

Microchip MPLAB XC8 Assembler V2.45 build 20230818022343 
                                                                                               Fri Dec 22 19:12:35 2023

Microchip MPLAB XC8 C Compiler v2.45 (Free license) build 20230818022343 Og1 
     1                           	processor	16F1827
     2                           	pagewidth 120
     3                           	opt	flic
     4                           	psect	idataCOMMON,global,class=CODE,delta=2,noexec
     5                           	psect	idataBANK0,global,class=CODE,delta=2,noexec
     6                           	psect	stringtext1,global,class=STRCODE,delta=2,noexec
     7                           	psect	nvBANK1,global,class=BANK1,space=1,delta=1,noexec
     8                           	psect	cinit,global,class=CODE,merge=1,delta=2
     9                           	psect	dataCOMMON,global,class=COMMON,space=1,delta=1,noexec
    10                           	psect	bssBANK0,global,class=BANK0,space=1,delta=1,noexec
    11                           	psect	dataBANK0,global,class=BANK0,space=1,delta=1,noexec
    12                           	psect	bssBANK1,global,class=BANK1,space=1,delta=1,noexec
    13                           	psect	cstackBANK1,global,class=BANK1,space=1,delta=1,noexec
    14                           	psect	cstackCOMMON,global,class=COMMON,space=1,delta=1,noexec
    15                           	psect	cstackBANK0,global,class=BANK0,space=1,delta=1,noexec
    16                           	psect	maintext,global,class=CODE,merge=1,split=1,delta=2
    17                           	psect	text1,local,class=CODE,merge=1,delta=2,group=1
    18                           	psect	text2,local,class=CODE,merge=1,delta=2,group=1
    19                           	psect	text3,local,class=CODE,merge=1,delta=2,group=1
    20                           	psect	text4,local,class=CODE,merge=1,delta=2,group=1
    21                           	psect	text5,local,class=CODE,merge=1,delta=2,group=1
    22                           	psect	text6,local,class=CODE,merge=1,delta=2
    23                           	psect	text7,local,class=CODE,merge=1,delta=2
    24                           	psect	text8,local,class=CODE,merge=1,delta=2
    25                           	psect	text9,local,class=CODE,merge=1,delta=2
    26                           	psect	text10,local,class=CODE,merge=1,delta=2
    27                           	psect	text11,local,class=CODE,merge=1,delta=2
    28                           	psect	text12,local,class=CODE,merge=1,delta=2
    29                           	psect	text13,local,class=CODE,merge=1,delta=2
    30                           	psect	text14,local,class=CODE,merge=1,delta=2
    31                           	psect	text15,local,class=CODE,merge=1,delta=2
    32                           	psect	text16,local,class=CODE,merge=1,delta=2
    33                           	psect	text17,local,class=CODE,merge=1,delta=2
    34                           	psect	text18,local,class=CODE,merge=1,delta=2
    35                           	psect	text19,local,class=CODE,merge=1,delta=2
    36                           	psect	text20,local,class=CODE,merge=1,delta=2
    37                           	psect	text21,local,class=CODE,merge=1,delta=2
    38                           	psect	text22,local,class=CODE,merge=1,delta=2
    39                           	psect	text23,local,class=CODE,merge=1,delta=2
    40                           	psect	text24,local,class=CODE,merge=1,delta=2
    41                           	psect	intentry,global,class=CODE,delta=2
    42                           	psect	text26,local,class=CODE,merge=1,delta=2
    43                           	psect	text27,local,class=CODE,merge=1,delta=2
    44                           	psect	text28,local,class=CODE,merge=1,delta=2
    45                           	psect	text29,local,class=CODE,merge=1,delta=2
    46                           	psect	text30,local,class=CODE,merge=1,delta=2
    47                           	psect	text31,local,class=CODE,merge=1,delta=2
    48                           	psect	text32,local,class=CODE,merge=1,delta=2
    49                           	psect	text33,local,class=CODE,merge=1,delta=2
    50                           	psect	text34,local,class=CODE,merge=1,delta=2
    51                           	psect	text35,local,class=CODE,merge=1,delta=2
    52                           	psect	text36,local,class=CODE,merge=1,delta=2,group=2
    53                           	psect	text37,local,class=CODE,merge=1,delta=2
    54                           	psect	text38,local,class=CODE,merge=1,delta=2
    55                           	psect	text39,local,class=CODE,merge=1,delta=2
    56                           	psect	text40,local,class=CODE,merge=1,delta=2
    57                           	psect	text41,local,class=CODE,merge=1,delta=2
    58                           	psect	text42,local,class=CODE,merge=1,delta=2
    59                           	psect	text43,local,class=CODE,merge=1,delta=2
    60                           	psect	text44,local,class=CODE,merge=1,delta=2
    61                           	psect	config,global,abs,ovrld,class=CONFIG,space=4,delta=2,noexec
    62                           	dabs	1,0x7E,2
    63     0000                     
    64                           ; Generated 06/07/2023 GMT
    65                           ; 
    66                           ; Copyright © 2023, Microchip Technology Inc. and its subsidiaries ("Microchip")
    67                           ; All rights reserved.
    68                           ; 
    69                           ; This software is developed by Microchip Technology Inc. and its subsidiaries ("Microch
      +                          ip").
    70                           ; 
    71                           ; Redistribution and use in source and binary forms, with or without modification, are
    72                           ; permitted provided that the following conditions are met:
    73                           ; 
    74                           ;     1. Redistributions of source code must retain the above copyright notice, this lis
      +                          t of
    75                           ;        conditions and the following disclaimer.
    76                           ; 
    77                           ;     2. Redistributions in binary form must reproduce the above copyright notice, this 
      +                          list
    78                           ;        of conditions and the following disclaimer in the documentation and/or other
    79                           ;        materials provided with the distribution. Publication is not required when
    80                           ;        this file is used in an embedded application.
    81                           ; 
    82                           ;     3. Microchip's name may not be used to endorse or promote products derived from th
      +                          is
    83                           ;        software without specific prior written permission.
    84                           ; 
    85                           ; THIS SOFTWARE IS PROVIDED BY MICROCHIP "AS IS" AND ANY EXPRESS OR IMPLIED WARRANTIES,
    86                           ; INCLUDING, BUT NOT LIMITED TO, THE IMPLIED WARRANTIES OF MERCHANTABILITY AND FITNESS F
      +                          OR
    87                           ; PURPOSE ARE DISCLAIMED.  IN NO EVENT SHALL MICROCHIP BE LIABLE FOR ANY DIRECT, INDIREC
      +                          T,
    88                           ; INCIDENTAL, SPECIAL, EXEMPLARY, OR CONSEQUENTIAL DAMAGES (INCLUDING BUT NOT LIMITED TO
    89                           ; PROCUREMENT OF SUBSTITUTE GOODS OR SERVICES; LOSS OF USE, DATA OR PROFITS; OR BUSINESS
    90                           ; INTERRUPTION) HOWSOEVER CAUSED AND ON ANY THEORY OF LIABILITY, WHETHER IN CONTRACT, ST
      +                          RICT
    91                           ; LIABILITY, OR TORT (INCLUDING NEGLIGENCE OR OTHERWISE) ARISING IN ANY WAY OUT OF THE U
      +                          SE OF
    92                           ; THIS SOFTWARE, EVEN IF ADVISED OF THE POSSIBILITY OF SUCH DAMAGE.
    93                           ; 
    94                           ; 
    95                           ; Code-generator required, PIC16F1827 Definitions
    96                           ; 
    97                           ; SFR Addresses
    98     0000                     	;# 
    99     0001                     	;# 
   100     0002                     	;# 
   101     0003                     	;# 
   102     0004                     	;# 
   103     0005                     	;# 
   104     0006                     	;# 
   105     0007                     	;# 
   106     0008                     	;# 
   107     0009                     	;# 
   108     000A                     	;# 
   109     000B                     	;# 
   110     000C                     	;# 
   111     000D                     	;# 
   112     0011                     	;# 
   113     0012                     	;# 
   114     0013                     	;# 
   115     0014                     	;# 
   116     0015                     	;# 
   117     0016                     	;# 
   118     0016                     	;# 
   119     0017                     	;# 
   120     0018                     	;# 
   121     0019                     	;# 
   122     001A                     	;# 
   123     001B                     	;# 
   124     001C                     	;# 
   125     001E                     	;# 
   126     001F                     	;# 
   127     008C                     	;# 
   128     008D                     	;# 
   129     0091                     	;# 
   130     0092                     	;# 
   131     0093                     	;# 
   132     0094                     	;# 
   133     0095                     	;# 
   134     0096                     	;# 
   135     0097                     	;# 
   136     0098                     	;# 
   137     0099                     	;# 
   138     009A                     	;# 
   139     009B                     	;# 
   140     009B                     	;# 
   141     009C                     	;# 
   142     009D                     	;# 
   143     009E                     	;# 
   144     010C                     	;# 
   145     010D                     	;# 
   146     0111                     	;# 
   147     0112                     	;# 
   148     0113                     	;# 
   149     0114                     	;# 
   150     0115                     	;# 
   151     0116                     	;# 
   152     0117                     	;# 
   153     0118                     	;# 
   154     0119                     	;# 
   155     011A                     	;# 
   156     011B                     	;# 
   157     011D                     	;# 
   158     011E                     	;# 
   159     018C                     	;# 
   160     018D                     	;# 
   161     0191                     	;# 
   162     0191                     	;# 
   163     0192                     	;# 
   164     0193                     	;# 
   165     0193                     	;# 
   166     0193                     	;# 
   167     0194                     	;# 
   168     0195                     	;# 
   169     0196                     	;# 
   170     0199                     	;# 
   171     019A                     	;# 
   172     019B                     	;# 
   173     019B                     	;# 
   174     019B                     	;# 
   175     019B                     	;# 
   176     019C                     	;# 
   177     019C                     	;# 
   178     019D                     	;# 
   179     019E                     	;# 
   180     019F                     	;# 
   181     020C                     	;# 
   182     020D                     	;# 
   183     0211                     	;# 
   184     0211                     	;# 
   185     0212                     	;# 
   186     0212                     	;# 
   187     0213                     	;# 
   188     0213                     	;# 
   189     0214                     	;# 
   190     0214                     	;# 
   191     0215                     	;# 
   192     0215                     	;# 
   193     0215                     	;# 
   194     0216                     	;# 
   195     0216                     	;# 
   196     0217                     	;# 
   197     0217                     	;# 
   198     0219                     	;# 
   199     021A                     	;# 
   200     021B                     	;# 
   201     021C                     	;# 
   202     021D                     	;# 
   203     021E                     	;# 
   204     021F                     	;# 
   205     0291                     	;# 
   206     0291                     	;# 
   207     0292                     	;# 
   208     0293                     	;# 
   209     0294                     	;# 
   210     0295                     	;# 
   211     0295                     	;# 
   212     0296                     	;# 
   213     0298                     	;# 
   214     0298                     	;# 
   215     0299                     	;# 
   216     029A                     	;# 
   217     029B                     	;# 
   218     029C                     	;# 
   219     029C                     	;# 
   220     029D                     	;# 
   221     029E                     	;# 
   222     029E                     	;# 
   223     0311                     	;# 
   224     0311                     	;# 
   225     0312                     	;# 
   226     0313                     	;# 
   227     0318                     	;# 
   228     0318                     	;# 
   229     0319                     	;# 
   230     031A                     	;# 
   231     0394                     	;# 
   232     0395                     	;# 
   233     0396                     	;# 
   234     039A                     	;# 
   235     039C                     	;# 
   236     039D                     	;# 
   237     039E                     	;# 
   238     039F                     	;# 
   239     0415                     	;# 
   240     0416                     	;# 
   241     0417                     	;# 
   242     041C                     	;# 
   243     041D                     	;# 
   244     041E                     	;# 
   245     0FE4                     	;# 
   246     0FE5                     	;# 
   247     0FE6                     	;# 
   248     0FE7                     	;# 
   249     0FE8                     	;# 
   250     0FE9                     	;# 
   251     0FEA                     	;# 
   252     0FEB                     	;# 
   253     0FED                     	;# 
   254     0FEE                     	;# 
   255     0FEF                     	;# 
   256     0000                     	;# 
   257     0001                     	;# 
   258     0002                     	;# 
   259     0003                     	;# 
   260     0004                     	;# 
   261     0005                     	;# 
   262     0006                     	;# 
   263     0007                     	;# 
   264     0008                     	;# 
   265     0009                     	;# 
   266     000A                     	;# 
   267     000B                     	;# 
   268     000C                     	;# 
   269     000D                     	;# 
   270     0011                     	;# 
   271     0012                     	;# 
   272     0013                     	;# 
   273     0014                     	;# 
   274     0015                     	;# 
   275     0016                     	;# 
   276     0016                     	;# 
   277     0017                     	;# 
   278     0018                     	;# 
   279     0019                     	;# 
   280     001A                     	;# 
   281     001B                     	;# 
   282     001C                     	;# 
   283     001E                     	;# 
   284     001F                     	;# 
   285     008C                     	;# 
   286     008D                     	;# 
   287     0091                     	;# 
   288     0092                     	;# 
   289     0093                     	;# 
   290     0094                     	;# 
   291     0095                     	;# 
   292     0096                     	;# 
   293     0097                     	;# 
   294     0098                     	;# 
   295     0099                     	;# 
   296     009A                     	;# 
   297     009B                     	;# 
   298     009B                     	;# 
   299     009C                     	;# 
   300     009D                     	;# 
   301     009E                     	;# 
   302     010C                     	;# 
   303     010D                     	;# 
   304     0111                     	;# 
   305     0112                     	;# 
   306     0113                     	;# 
   307     0114                     	;# 
   308     0115                     	;# 
   309     0116                     	;# 
   310     0117                     	;# 
   311     0118                     	;# 
   312     0119                     	;# 
   313     011A                     	;# 
   314     011B                     	;# 
   315     011D                     	;# 
   316     011E                     	;# 
   317     018C                     	;# 
   318     018D                     	;# 
   319     0191                     	;# 
   320     0191                     	;# 
   321     0192                     	;# 
   322     0193                     	;# 
   323     0193                     	;# 
   324     0193                     	;# 
   325     0194                     	;# 
   326     0195                     	;# 
   327     0196                     	;# 
   328     0199                     	;# 
   329     019A                     	;# 
   330     019B                     	;# 
   331     019B                     	;# 
   332     019B                     	;# 
   333     019B                     	;# 
   334     019C                     	;# 
   335     019C                     	;# 
   336     019D                     	;# 
   337     019E                     	;# 
   338     019F                     	;# 
   339     020C                     	;# 
   340     020D                     	;# 
   341     0211                     	;# 
   342     0211                     	;# 
   343     0212                     	;# 
   344     0212                     	;# 
   345     0213                     	;# 
   346     0213                     	;# 
   347     0214                     	;# 
   348     0214                     	;# 
   349     0215                     	;# 
   350     0215                     	;# 
   351     0215                     	;# 
   352     0216                     	;# 
   353     0216                     	;# 
   354     0217                     	;# 
   355     0217                     	;# 
   356     0219                     	;# 
   357     021A                     	;# 
   358     021B                     	;# 
   359     021C                     	;# 
   360     021D                     	;# 
   361     021E                     	;# 
   362     021F                     	;# 
   363     0291                     	;# 
   364     0291                     	;# 
   365     0292                     	;# 
   366     0293                     	;# 
   367     0294                     	;# 
   368     0295                     	;# 
   369     0295                     	;# 
   370     0296                     	;# 
   371     0298                     	;# 
   372     0298                     	;# 
   373     0299                     	;# 
   374     029A                     	;# 
   375     029B                     	;# 
   376     029C                     	;# 
   377     029C                     	;# 
   378     029D                     	;# 
   379     029E                     	;# 
   380     029E                     	;# 
   381     0311                     	;# 
   382     0311                     	;# 
   383     0312                     	;# 
   384     0313                     	;# 
   385     0318                     	;# 
   386     0318                     	;# 
   387     0319                     	;# 
   388     031A                     	;# 
   389     0394                     	;# 
   390     0395                     	;# 
   391     0396                     	;# 
   392     039A                     	;# 
   393     039C                     	;# 
   394     039D                     	;# 
   395     039E                     	;# 
   396     039F                     	;# 
   397     0415                     	;# 
   398     0416                     	;# 
   399     0417                     	;# 
   400     041C                     	;# 
   401     041D                     	;# 
   402     041E                     	;# 
   403     0FE4                     	;# 
   404     0FE5                     	;# 
   405     0FE6                     	;# 
   406     0FE7                     	;# 
   407     0FE8                     	;# 
   408     0FE9                     	;# 
   409     0FEA                     	;# 
   410     0FEB                     	;# 
   411     0FED                     	;# 
   412     0FEE                     	;# 
   413     0FEF                     	;# 
   414     0000                     	;# 
   415     0001                     	;# 
   416     0002                     	;# 
   417     0003                     	;# 
   418     0004                     	;# 
   419     0005                     	;# 
   420     0006                     	;# 
   421     0007                     	;# 
   422     0008                     	;# 
   423     0009                     	;# 
   424     000A                     	;# 
   425     000B                     	;# 
   426     000C                     	;# 
   427     000D                     	;# 
   428     0011                     	;# 
   429     0012                     	;# 
   430     0013                     	;# 
   431     0014                     	;# 
   432     0015                     	;# 
   433     0016                     	;# 
   434     0016                     	;# 
   435     0017                     	;# 
   436     0018                     	;# 
   437     0019                     	;# 
   438     001A                     	;# 
   439     001B                     	;# 
   440     001C                     	;# 
   441     001E                     	;# 
   442     001F                     	;# 
   443     008C                     	;# 
   444     008D                     	;# 
   445     0091                     	;# 
   446     0092                     	;# 
   447     0093                     	;# 
   448     0094                     	;# 
   449     0095                     	;# 
   450     0096                     	;# 
   451     0097                     	;# 
   452     0098                     	;# 
   453     0099                     	;# 
   454     009A                     	;# 
   455     009B                     	;# 
   456     009B                     	;# 
   457     009C                     	;# 
   458     009D                     	;# 
   459     009E                     	;# 
   460     010C                     	;# 
   461     010D                     	;# 
   462     0111                     	;# 
   463     0112                     	;# 
   464     0113                     	;# 
   465     0114                     	;# 
   466     0115                     	;# 
   467     0116                     	;# 
   468     0117                     	;# 
   469     0118                     	;# 
   470     0119                     	;# 
   471     011A                     	;# 
   472     011B                     	;# 
   473     011D                     	;# 
   474     011E                     	;# 
   475     018C                     	;# 
   476     018D                     	;# 
   477     0191                     	;# 
   478     0191                     	;# 
   479     0192                     	;# 
   480     0193                     	;# 
   481     0193                     	;# 
   482     0193                     	;# 
   483     0194                     	;# 
   484     0195                     	;# 
   485     0196                     	;# 
   486     0199                     	;# 
   487     019A                     	;# 
   488     019B                     	;# 
   489     019B                     	;# 
   490     019B                     	;# 
   491     019B                     	;# 
   492     019C                     	;# 
   493     019C                     	;# 
   494     019D                     	;# 
   495     019E                     	;# 
   496     019F                     	;# 
   497     020C                     	;# 
   498     020D                     	;# 
   499     0211                     	;# 
   500     0211                     	;# 
   501     0212                     	;# 
   502     0212                     	;# 
   503     0213                     	;# 
   504     0213                     	;# 
   505     0214                     	;# 
   506     0214                     	;# 
   507     0215                     	;# 
   508     0215                     	;# 
   509     0215                     	;# 
   510     0216                     	;# 
   511     0216                     	;# 
   512     0217                     	;# 
   513     0217                     	;# 
   514     0219                     	;# 
   515     021A                     	;# 
   516     021B                     	;# 
   517     021C                     	;# 
   518     021D                     	;# 
   519     021E                     	;# 
   520     021F                     	;# 
   521     0291                     	;# 
   522     0291                     	;# 
   523     0292                     	;# 
   524     0293                     	;# 
   525     0294                     	;# 
   526     0295                     	;# 
   527     0295                     	;# 
   528     0296                     	;# 
   529     0298                     	;# 
   530     0298                     	;# 
   531     0299                     	;# 
   532     029A                     	;# 
   533     029B                     	;# 
   534     029C                     	;# 
   535     029C                     	;# 
   536     029D                     	;# 
   537     029E                     	;# 
   538     029E                     	;# 
   539     0311                     	;# 
   540     0311                     	;# 
   541     0312                     	;# 
   542     0313                     	;# 
   543     0318                     	;# 
   544     0318                     	;# 
   545     0319                     	;# 
   546     031A                     	;# 
   547     0394                     	;# 
   548     0395                     	;# 
   549     0396                     	;# 
   550     039A                     	;# 
   551     039C                     	;# 
   552     039D                     	;# 
   553     039E                     	;# 
   554     039F                     	;# 
   555     0415                     	;# 
   556     0416                     	;# 
   557     0417                     	;# 
   558     041C                     	;# 
   559     041D                     	;# 
   560     041E                     	;# 
   561     0FE4                     	;# 
   562     0FE5                     	;# 
   563     0FE6                     	;# 
   564     0FE7                     	;# 
   565     0FE8                     	;# 
   566     0FE9                     	;# 
   567     0FEA                     	;# 
   568     0FEB                     	;# 
   569     0FED                     	;# 
   570     0FEE                     	;# 
   571     0FEF                     	;# 
   572     0000                     	;# 
   573     0001                     	;# 
   574     0002                     	;# 
   575     0003                     	;# 
   576     0004                     	;# 
   577     0005                     	;# 
   578     0006                     	;# 
   579     0007                     	;# 
   580     0008                     	;# 
   581     0009                     	;# 
   582     000A                     	;# 
   583     000B                     	;# 
   584     000C                     	;# 
   585     000D                     	;# 
   586     0011                     	;# 
   587     0012                     	;# 
   588     0013                     	;# 
   589     0014                     	;# 
   590     0015                     	;# 
   591     0016                     	;# 
   592     0016                     	;# 
   593     0017                     	;# 
   594     0018                     	;# 
   595     0019                     	;# 
   596     001A                     	;# 
   597     001B                     	;# 
   598     001C                     	;# 
   599     001E                     	;# 
   600     001F                     	;# 
   601     008C                     	;# 
   602     008D                     	;# 
   603     0091                     	;# 
   604     0092                     	;# 
   605     0093                     	;# 
   606     0094                     	;# 
   607     0095                     	;# 
   608     0096                     	;# 
   609     0097                     	;# 
   610     0098                     	;# 
   611     0099                     	;# 
   612     009A                     	;# 
   613     009B                     	;# 
   614     009B                     	;# 
   615     009C                     	;# 
   616     009D                     	;# 
   617     009E                     	;# 
   618     010C                     	;# 
   619     010D                     	;# 
   620     0111                     	;# 
   621     0112                     	;# 
   622     0113                     	;# 
   623     0114                     	;# 
   624     0115                     	;# 
   625     0116                     	;# 
   626     0117                     	;# 
   627     0118                     	;# 
   628     0119                     	;# 
   629     011A                     	;# 
   630     011B                     	;# 
   631     011D                     	;# 
   632     011E                     	;# 
   633     018C                     	;# 
   634     018D                     	;# 
   635     0191                     	;# 
   636     0191                     	;# 
   637     0192                     	;# 
   638     0193                     	;# 
   639     0193                     	;# 
   640     0193                     	;# 
   641     0194                     	;# 
   642     0195                     	;# 
   643     0196                     	;# 
   644     0199                     	;# 
   645     019A                     	;# 
   646     019B                     	;# 
   647     019B                     	;# 
   648     019B                     	;# 
   649     019B                     	;# 
   650     019C                     	;# 
   651     019C                     	;# 
   652     019D                     	;# 
   653     019E                     	;# 
   654     019F                     	;# 
   655     020C                     	;# 
   656     020D                     	;# 
   657     0211                     	;# 
   658     0211                     	;# 
   659     0212                     	;# 
   660     0212                     	;# 
   661     0213                     	;# 
   662     0213                     	;# 
   663     0214                     	;# 
   664     0214                     	;# 
   665     0215                     	;# 
   666     0215                     	;# 
   667     0215                     	;# 
   668     0216                     	;# 
   669     0216                     	;# 
   670     0217                     	;# 
   671     0217                     	;# 
   672     0219                     	;# 
   673     021A                     	;# 
   674     021B                     	;# 
   675     021C                     	;# 
   676     021D                     	;# 
   677     021E                     	;# 
   678     021F                     	;# 
   679     0291                     	;# 
   680     0291                     	;# 
   681     0292                     	;# 
   682     0293                     	;# 
   683     0294                     	;# 
   684     0295                     	;# 
   685     0295                     	;# 
   686     0296                     	;# 
   687     0298                     	;# 
   688     0298                     	;# 
   689     0299                     	;# 
   690     029A                     	;# 
   691     029B                     	;# 
   692     029C                     	;# 
   693     029C                     	;# 
   694     029D                     	;# 
   695     029E                     	;# 
   696     029E                     	;# 
   697     0311                     	;# 
   698     0311                     	;# 
   699     0312                     	;# 
   700     0313                     	;# 
   701     0318                     	;# 
   702     0318                     	;# 
   703     0319                     	;# 
   704     031A                     	;# 
   705     0394                     	;# 
   706     0395                     	;# 
   707     0396                     	;# 
   708     039A                     	;# 
   709     039C                     	;# 
   710     039D                     	;# 
   711     039E                     	;# 
   712     039F                     	;# 
   713     0415                     	;# 
   714     0416                     	;# 
   715     0417                     	;# 
   716     041C                     	;# 
   717     041D                     	;# 
   718     041E                     	;# 
   719     0FE4                     	;# 
   720     0FE5                     	;# 
   721     0FE6                     	;# 
   722     0FE7                     	;# 
   723     0FE8                     	;# 
   724     0FE9                     	;# 
   725     0FEA                     	;# 
   726     0FEB                     	;# 
   727     0FED                     	;# 
   728     0FEE                     	;# 
   729     0FEF                     	;# 
   730     0000                     	;# 
   731     0001                     	;# 
   732     0002                     	;# 
   733     0003                     	;# 
   734     0004                     	;# 
   735     0005                     	;# 
   736     0006                     	;# 
   737     0007                     	;# 
   738     0008                     	;# 
   739     0009                     	;# 
   740     000A                     	;# 
   741     000B                     	;# 
   742     000C                     	;# 
   743     000D                     	;# 
   744     0011                     	;# 
   745     0012                     	;# 
   746     0013                     	;# 
   747     0014                     	;# 
   748     0015                     	;# 
   749     0016                     	;# 
   750     0016                     	;# 
   751     0017                     	;# 
   752     0018                     	;# 
   753     0019                     	;# 
   754     001A                     	;# 
   755     001B                     	;# 
   756     001C                     	;# 
   757     001E                     	;# 
   758     001F                     	;# 
   759     008C                     	;# 
   760     008D                     	;# 
   761     0091                     	;# 
   762     0092                     	;# 
   763     0093                     	;# 
   764     0094                     	;# 
   765     0095                     	;# 
   766     0096                     	;# 
   767     0097                     	;# 
   768     0098                     	;# 
   769     0099                     	;# 
   770     009A                     	;# 
   771     009B                     	;# 
   772     009B                     	;# 
   773     009C                     	;# 
   774     009D                     	;# 
   775     009E                     	;# 
   776     010C                     	;# 
   777     010D                     	;# 
   778     0111                     	;# 
   779     0112                     	;# 
   780     0113                     	;# 
   781     0114                     	;# 
   782     0115                     	;# 
   783     0116                     	;# 
   784     0117                     	;# 
   785     0118                     	;# 
   786     0119                     	;# 
   787     011A                     	;# 
   788     011B                     	;# 
   789     011D                     	;# 
   790     011E                     	;# 
   791     018C                     	;# 
   792     018D                     	;# 
   793     0191                     	;# 
   794     0191                     	;# 
   795     0192                     	;# 
   796     0193                     	;# 
   797     0193                     	;# 
   798     0193                     	;# 
   799     0194                     	;# 
   800     0195                     	;# 
   801     0196                     	;# 
   802     0199                     	;# 
   803     019A                     	;# 
   804     019B                     	;# 
   805     019B                     	;# 
   806     019B                     	;# 
   807     019B                     	;# 
   808     019C                     	;# 
   809     019C                     	;# 
   810     019D                     	;# 
   811     019E                     	;# 
   812     019F                     	;# 
   813     020C                     	;# 
   814     020D                     	;# 
   815     0211                     	;# 
   816     0211                     	;# 
   817     0212                     	;# 
   818     0212                     	;# 
   819     0213                     	;# 
   820     0213                     	;# 
   821     0214                     	;# 
   822     0214                     	;# 
   823     0215                     	;# 
   824     0215                     	;# 
   825     0215                     	;# 
   826     0216                     	;# 
   827     0216                     	;# 
   828     0217                     	;# 
   829     0217                     	;# 
   830     0219                     	;# 
   831     021A                     	;# 
   832     021B                     	;# 
   833     021C                     	;# 
   834     021D                     	;# 
   835     021E                     	;# 
   836     021F                     	;# 
   837     0291                     	;# 
   838     0291                     	;# 
   839     0292                     	;# 
   840     0293                     	;# 
   841     0294                     	;# 
   842     0295                     	;# 
   843     0295                     	;# 
   844     0296                     	;# 
   845     0298                     	;# 
   846     0298                     	;# 
   847     0299                     	;# 
   848     029A                     	;# 
   849     029B                     	;# 
   850     029C                     	;# 
   851     029C                     	;# 
   852     029D                     	;# 
   853     029E                     	;# 
   854     029E                     	;# 
   855     0311                     	;# 
   856     0311                     	;# 
   857     0312                     	;# 
   858     0313                     	;# 
   859     0318                     	;# 
   860     0318                     	;# 
   861     0319                     	;# 
   862     031A                     	;# 
   863     0394                     	;# 
   864     0395                     	;# 
   865     0396                     	;# 
   866     039A                     	;# 
   867     039C                     	;# 
   868     039D                     	;# 
   869     039E                     	;# 
   870     039F                     	;# 
   871     0415                     	;# 
   872     0416                     	;# 
   873     0417                     	;# 
   874     041C                     	;# 
   875     041D                     	;# 
   876     041E                     	;# 
   877     0FE4                     	;# 
   878     0FE5                     	;# 
   879     0FE6                     	;# 
   880     0FE7                     	;# 
   881     0FE8                     	;# 
   882     0FE9                     	;# 
   883     0FEA                     	;# 
   884     0FEB                     	;# 
   885     0FED                     	;# 
   886     0FEE                     	;# 
   887     0FEF                     	;# 
   888     0000                     	;# 
   889     0001                     	;# 
   890     0002                     	;# 
   891     0003                     	;# 
   892     0004                     	;# 
   893     0005                     	;# 
   894     0006                     	;# 
   895     0007                     	;# 
   896     0008                     	;# 
   897     0009                     	;# 
   898     000A                     	;# 
   899     000B                     	;# 
   900     000C                     	;# 
   901     000D                     	;# 
   902     0011                     	;# 
   903     0012                     	;# 
   904     0013                     	;# 
   905     0014                     	;# 
   906     0015                     	;# 
   907     0016                     	;# 
   908     0016                     	;# 
   909     0017                     	;# 
   910     0018                     	;# 
   911     0019                     	;# 
   912     001A                     	;# 
   913     001B                     	;# 
   914     001C                     	;# 
   915     001E                     	;# 
   916     001F                     	;# 
   917     008C                     	;# 
   918     008D                     	;# 
   919     0091                     	;# 
   920     0092                     	;# 
   921     0093                     	;# 
   922     0094                     	;# 
   923     0095                     	;# 
   924     0096                     	;# 
   925     0097                     	;# 
   926     0098                     	;# 
   927     0099                     	;# 
   928     009A                     	;# 
   929     009B                     	;# 
   930     009B                     	;# 
   931     009C                     	;# 
   932     009D                     	;# 
   933     009E                     	;# 
   934     010C                     	;# 
   935     010D                     	;# 
   936     0111                     	;# 
   937     0112                     	;# 
   938     0113                     	;# 
   939     0114                     	;# 
   940     0115                     	;# 
   941     0116                     	;# 
   942     0117                     	;# 
   943     0118                     	;# 
   944     0119                     	;# 
   945     011A                     	;# 
   946     011B                     	;# 
   947     011D                     	;# 
   948     011E                     	;# 
   949     018C                     	;# 
   950     018D                     	;# 
   951     0191                     	;# 
   952     0191                     	;# 
   953     0192                     	;# 
   954     0193                     	;# 
   955     0193                     	;# 
   956     0193                     	;# 
   957     0194                     	;# 
   958     0195                     	;# 
   959     0196                     	;# 
   960     0199                     	;# 
   961     019A                     	;# 
   962     019B                     	;# 
   963     019B                     	;# 
   964     019B                     	;# 
   965     019B                     	;# 
   966     019C                     	;# 
   967     019C                     	;# 
   968     019D                     	;# 
   969     019E                     	;# 
   970     019F                     	;# 
   971     020C                     	;# 
   972     020D                     	;# 
   973     0211                     	;# 
   974     0211                     	;# 
   975     0212                     	;# 
   976     0212                     	;# 
   977     0213                     	;# 
   978     0213                     	;# 
   979     0214                     	;# 
   980     0214                     	;# 
   981     0215                     	;# 
   982     0215                     	;# 
   983     0215                     	;# 
   984     0216                     	;# 
   985     0216                     	;# 
   986     0217                     	;# 
   987     0217                     	;# 
   988     0219                     	;# 
   989     021A                     	;# 
   990     021B                     	;# 
   991     021C                     	;# 
   992     021D                     	;# 
   993     021E                     	;# 
   994     021F                     	;# 
   995     0291                     	;# 
   996     0291                     	;# 
   997     0292                     	;# 
   998     0293                     	;# 
   999     0294                     	;# 
  1000     0295                     	;# 
  1001     0295                     	;# 
  1002     0296                     	;# 
  1003     0298                     	;# 
  1004     0298                     	;# 
  1005     0299                     	;# 
  1006     029A                     	;# 
  1007     029B                     	;# 
  1008     029C                     	;# 
  1009     029C                     	;# 
  1010     029D                     	;# 
  1011     029E                     	;# 
  1012     029E                     	;# 
  1013     0311                     	;# 
  1014     0311                     	;# 
  1015     0312                     	;# 
  1016     0313                     	;# 
  1017     0318                     	;# 
  1018     0318                     	;# 
  1019     0319                     	;# 
  1020     031A                     	;# 
  1021     0394                     	;# 
  1022     0395                     	;# 
  1023     0396                     	;# 
  1024     039A                     	;# 
  1025     039C                     	;# 
  1026     039D                     	;# 
  1027     039E                     	;# 
  1028     039F                     	;# 
  1029     0415                     	;# 
  1030     0416                     	;# 
  1031     0417                     	;# 
  1032     041C                     	;# 
  1033     041D                     	;# 
  1034     041E                     	;# 
  1035     0FE4                     	;# 
  1036     0FE5                     	;# 
  1037     0FE6                     	;# 
  1038     0FE7                     	;# 
  1039     0FE8                     	;# 
  1040     0FE9                     	;# 
  1041     0FEA                     	;# 
  1042     0FEB                     	;# 
  1043     0FED                     	;# 
  1044     0FEE                     	;# 
  1045     0FEF                     	;# 
  1046     0000                     	;# 
  1047     0001                     	;# 
  1048     0002                     	;# 
  1049     0003                     	;# 
  1050     0004                     	;# 
  1051     0005                     	;# 
  1052     0006                     	;# 
  1053     0007                     	;# 
  1054     0008                     	;# 
  1055     0009                     	;# 
  1056     000A                     	;# 
  1057     000B                     	;# 
  1058     000C                     	;# 
  1059     000D                     	;# 
  1060     0011                     	;# 
  1061     0012                     	;# 
  1062     0013                     	;# 
  1063     0014                     	;# 
  1064     0015                     	;# 
  1065     0016                     	;# 
  1066     0016                     	;# 
  1067     0017                     	;# 
  1068     0018                     	;# 
  1069     0019                     	;# 
  1070     001A                     	;# 
  1071     001B                     	;# 
  1072     001C                     	;# 
  1073     001E                     	;# 
  1074     001F                     	;# 
  1075     008C                     	;# 
  1076     008D                     	;# 
  1077     0091                     	;# 
  1078     0092                     	;# 
  1079     0093                     	;# 
  1080     0094                     	;# 
  1081     0095                     	;# 
  1082     0096                     	;# 
  1083     0097                     	;# 
  1084     0098                     	;# 
  1085     0099                     	;# 
  1086     009A                     	;# 
  1087     009B                     	;# 
  1088     009B                     	;# 
  1089     009C                     	;# 
  1090     009D                     	;# 
  1091     009E                     	;# 
  1092     010C                     	;# 
  1093     010D                     	;# 
  1094     0111                     	;# 
  1095     0112                     	;# 
  1096     0113                     	;# 
  1097     0114                     	;# 
  1098     0115                     	;# 
  1099     0116                     	;# 
  1100     0117                     	;# 
  1101     0118                     	;# 
  1102     0119                     	;# 
  1103     011A                     	;# 
  1104     011B                     	;# 
  1105     011D                     	;# 
  1106     011E                     	;# 
  1107     018C                     	;# 
  1108     018D                     	;# 
  1109     0191                     	;# 
  1110     0191                     	;# 
  1111     0192                     	;# 
  1112     0193                     	;# 
  1113     0193                     	;# 
  1114     0193                     	;# 
  1115     0194                     	;# 
  1116     0195                     	;# 
  1117     0196                     	;# 
  1118     0199                     	;# 
  1119     019A                     	;# 
  1120     019B                     	;# 
  1121     019B                     	;# 
  1122     019B                     	;# 
  1123     019B                     	;# 
  1124     019C                     	;# 
  1125     019C                     	;# 
  1126     019D                     	;# 
  1127     019E                     	;# 
  1128     019F                     	;# 
  1129     020C                     	;# 
  1130     020D                     	;# 
  1131     0211                     	;# 
  1132     0211                     	;# 
  1133     0212                     	;# 
  1134     0212                     	;# 
  1135     0213                     	;# 
  1136     0213                     	;# 
  1137     0214                     	;# 
  1138     0214                     	;# 
  1139     0215                     	;# 
  1140     0215                     	;# 
  1141     0215                     	;# 
  1142     0216                     	;# 
  1143     0216                     	;# 
  1144     0217                     	;# 
  1145     0217                     	;# 
  1146     0219                     	;# 
  1147     021A                     	;# 
  1148     021B                     	;# 
  1149     021C                     	;# 
  1150     021D                     	;# 
  1151     021E                     	;# 
  1152     021F                     	;# 
  1153     0291                     	;# 
  1154     0291                     	;# 
  1155     0292                     	;# 
  1156     0293                     	;# 
  1157     0294                     	;# 
  1158     0295                     	;# 
  1159     0295                     	;# 
  1160     0296                     	;# 
  1161     0298                     	;# 
  1162     0298                     	;# 
  1163     0299                     	;# 
  1164     029A                     	;# 
  1165     029B                     	;# 
  1166     029C                     	;# 
  1167     029C                     	;# 
  1168     029D                     	;# 
  1169     029E                     	;# 
  1170     029E                     	;# 
  1171     0311                     	;# 
  1172     0311                     	;# 
  1173     0312                     	;# 
  1174     0313                     	;# 
  1175     0318                     	;# 
  1176     0318                     	;# 
  1177     0319                     	;# 
  1178     031A                     	;# 
  1179     0394                     	;# 
  1180     0395                     	;# 
  1181     0396                     	;# 
  1182     039A                     	;# 
  1183     039C                     	;# 
  1184     039D                     	;# 
  1185     039E                     	;# 
  1186     039F                     	;# 
  1187     0415                     	;# 
  1188     0416                     	;# 
  1189     0417                     	;# 
  1190     041C                     	;# 
  1191     041D                     	;# 
  1192     041E                     	;# 
  1193     0FE4                     	;# 
  1194     0FE5                     	;# 
  1195     0FE6                     	;# 
  1196     0FE7                     	;# 
  1197     0FE8                     	;# 
  1198     0FE9                     	;# 
  1199     0FEA                     	;# 
  1200     0FEB                     	;# 
  1201     0FED                     	;# 
  1202     0FEE                     	;# 
  1203     0FEF                     	;# 
  1204     0000                     	;# 
  1205     0001                     	;# 
  1206     0002                     	;# 
  1207     0003                     	;# 
  1208     0004                     	;# 
  1209     0005                     	;# 
  1210     0006                     	;# 
  1211     0007                     	;# 
  1212     0008                     	;# 
  1213     0009                     	;# 
  1214     000A                     	;# 
  1215     000B                     	;# 
  1216     000C                     	;# 
  1217     000D                     	;# 
  1218     0011                     	;# 
  1219     0012                     	;# 
  1220     0013                     	;# 
  1221     0014                     	;# 
  1222     0015                     	;# 
  1223     0016                     	;# 
  1224     0016                     	;# 
  1225     0017                     	;# 
  1226     0018                     	;# 
  1227     0019                     	;# 
  1228     001A                     	;# 
  1229     001B                     	;# 
  1230     001C                     	;# 
  1231     001E                     	;# 
  1232     001F                     	;# 
  1233     008C                     	;# 
  1234     008D                     	;# 
  1235     0091                     	;# 
  1236     0092                     	;# 
  1237     0093                     	;# 
  1238     0094                     	;# 
  1239     0095                     	;# 
  1240     0096                     	;# 
  1241     0097                     	;# 
  1242     0098                     	;# 
  1243     0099                     	;# 
  1244     009A                     	;# 
  1245     009B                     	;# 
  1246     009B                     	;# 
  1247     009C                     	;# 
  1248     009D                     	;# 
  1249     009E                     	;# 
  1250     010C                     	;# 
  1251     010D                     	;# 
  1252     0111                     	;# 
  1253     0112                     	;# 
  1254     0113                     	;# 
  1255     0114                     	;# 
  1256     0115                     	;# 
  1257     0116                     	;# 
  1258     0117                     	;# 
  1259     0118                     	;# 
  1260     0119                     	;# 
  1261     011A                     	;# 
  1262     011B                     	;# 
  1263     011D                     	;# 
  1264     011E                     	;# 
  1265     018C                     	;# 
  1266     018D                     	;# 
  1267     0191                     	;# 
  1268     0191                     	;# 
  1269     0192                     	;# 
  1270     0193                     	;# 
  1271     0193                     	;# 
  1272     0193                     	;# 
  1273     0194                     	;# 
  1274     0195                     	;# 
  1275     0196                     	;# 
  1276     0199                     	;# 
  1277     019A                     	;# 
  1278     019B                     	;# 
  1279     019B                     	;# 
  1280     019B                     	;# 
  1281     019B                     	;# 
  1282     019C                     	;# 
  1283     019C                     	;# 
  1284     019D                     	;# 
  1285     019E                     	;# 
  1286     019F                     	;# 
  1287     020C                     	;# 
  1288     020D                     	;# 
  1289     0211                     	;# 
  1290     0211                     	;# 
  1291     0212                     	;# 
  1292     0212                     	;# 
  1293     0213                     	;# 
  1294     0213                     	;# 
  1295     0214                     	;# 
  1296     0214                     	;# 
  1297     0215                     	;# 
  1298     0215                     	;# 
  1299     0215                     	;# 
  1300     0216                     	;# 
  1301     0216                     	;# 
  1302     0217                     	;# 
  1303     0217                     	;# 
  1304     0219                     	;# 
  1305     021A                     	;# 
  1306     021B                     	;# 
  1307     021C                     	;# 
  1308     021D                     	;# 
  1309     021E                     	;# 
  1310     021F                     	;# 
  1311     0291                     	;# 
  1312     0291                     	;# 
  1313     0292                     	;# 
  1314     0293                     	;# 
  1315     0294                     	;# 
  1316     0295                     	;# 
  1317     0295                     	;# 
  1318     0296                     	;# 
  1319     0298                     	;# 
  1320     0298                     	;# 
  1321     0299                     	;# 
  1322     029A                     	;# 
  1323     029B                     	;# 
  1324     029C                     	;# 
  1325     029C                     	;# 
  1326     029D                     	;# 
  1327     029E                     	;# 
  1328     029E                     	;# 
  1329     0311                     	;# 
  1330     0311                     	;# 
  1331     0312                     	;# 
  1332     0313                     	;# 
  1333     0318                     	;# 
  1334     0318                     	;# 
  1335     0319                     	;# 
  1336     031A                     	;# 
  1337     0394                     	;# 
  1338     0395                     	;# 
  1339     0396                     	;# 
  1340     039A                     	;# 
  1341     039C                     	;# 
  1342     039D                     	;# 
  1343     039E                     	;# 
  1344     039F                     	;# 
  1345     0415                     	;# 
  1346     0416                     	;# 
  1347     0417                     	;# 
  1348     041C                     	;# 
  1349     041D                     	;# 
  1350     041E                     	;# 
  1351     0FE4                     	;# 
  1352     0FE5                     	;# 
  1353     0FE6                     	;# 
  1354     0FE7                     	;# 
  1355     0FE8                     	;# 
  1356     0FE9                     	;# 
  1357     0FEA                     	;# 
  1358     0FEB                     	;# 
  1359     0FED                     	;# 
  1360     0FEE                     	;# 
  1361     0FEF                     	;# 
  1362     0000                     	;# 
  1363     0001                     	;# 
  1364     0002                     	;# 
  1365     0003                     	;# 
  1366     0004                     	;# 
  1367     0005                     	;# 
  1368     0006                     	;# 
  1369     0007                     	;# 
  1370     0008                     	;# 
  1371     0009                     	;# 
  1372     000A                     	;# 
  1373     000B                     	;# 
  1374     000C                     	;# 
  1375     000D                     	;# 
  1376     0011                     	;# 
  1377     0012                     	;# 
  1378     0013                     	;# 
  1379     0014                     	;# 
  1380     0015                     	;# 
  1381     0016                     	;# 
  1382     0016                     	;# 
  1383     0017                     	;# 
  1384     0018                     	;# 
  1385     0019                     	;# 
  1386     001A                     	;# 
  1387     001B                     	;# 
  1388     001C                     	;# 
  1389     001E                     	;# 
  1390     001F                     	;# 
  1391     008C                     	;# 
  1392     008D                     	;# 
  1393     0091                     	;# 
  1394     0092                     	;# 
  1395     0093                     	;# 
  1396     0094                     	;# 
  1397     0095                     	;# 
  1398     0096                     	;# 
  1399     0097                     	;# 
  1400     0098                     	;# 
  1401     0099                     	;# 
  1402     009A                     	;# 
  1403     009B                     	;# 
  1404     009B                     	;# 
  1405     009C                     	;# 
  1406     009D                     	;# 
  1407     009E                     	;# 
  1408     010C                     	;# 
  1409     010D                     	;# 
  1410     0111                     	;# 
  1411     0112                     	;# 
  1412     0113                     	;# 
  1413     0114                     	;# 
  1414     0115                     	;# 
  1415     0116                     	;# 
  1416     0117                     	;# 
  1417     0118                     	;# 
  1418     0119                     	;# 
  1419     011A                     	;# 
  1420     011B                     	;# 
  1421     011D                     	;# 
  1422     011E                     	;# 
  1423     018C                     	;# 
  1424     018D                     	;# 
  1425     0191                     	;# 
  1426     0191                     	;# 
  1427     0192                     	;# 
  1428     0193                     	;# 
  1429     0193                     	;# 
  1430     0193                     	;# 
  1431     0194                     	;# 
  1432     0195                     	;# 
  1433     0196                     	;# 
  1434     0199                     	;# 
  1435     019A                     	;# 
  1436     019B                     	;# 
  1437     019B                     	;# 
  1438     019B                     	;# 
  1439     019B                     	;# 
  1440     019C                     	;# 
  1441     019C                     	;# 
  1442     019D                     	;# 
  1443     019E                     	;# 
  1444     019F                     	;# 
  1445     020C                     	;# 
  1446     020D                     	;# 
  1447     0211                     	;# 
  1448     0211                     	;# 
  1449     0212                     	;# 
  1450     0212                     	;# 
  1451     0213                     	;# 
  1452     0213                     	;# 
  1453     0214                     	;# 
  1454     0214                     	;# 
  1455     0215                     	;# 
  1456     0215                     	;# 
  1457     0215                     	;# 
  1458     0216                     	;# 
  1459     0216                     	;# 
  1460     0217                     	;# 
  1461     0217                     	;# 
  1462     0219                     	;# 
  1463     021A                     	;# 
  1464     021B                     	;# 
  1465     021C                     	;# 
  1466     021D                     	;# 
  1467     021E                     	;# 
  1468     021F                     	;# 
  1469     0291                     	;# 
  1470     0291                     	;# 
  1471     0292                     	;# 
  1472     0293                     	;# 
  1473     0294                     	;# 
  1474     0295                     	;# 
  1475     0295                     	;# 
  1476     0296                     	;# 
  1477     0298                     	;# 
  1478     0298                     	;# 
  1479     0299                     	;# 
  1480     029A                     	;# 
  1481     029B                     	;# 
  1482     029C                     	;# 
  1483     029C                     	;# 
  1484     029D                     	;# 
  1485     029E                     	;# 
  1486     029E                     	;# 
  1487     0311                     	;# 
  1488     0311                     	;# 
  1489     0312                     	;# 
  1490     0313                     	;# 
  1491     0318                     	;# 
  1492     0318                     	;# 
  1493     0319                     	;# 
  1494     031A                     	;# 
  1495     0394                     	;# 
  1496     0395                     	;# 
  1497     0396                     	;# 
  1498     039A                     	;# 
  1499     039C                     	;# 
  1500     039D                     	;# 
  1501     039E                     	;# 
  1502     039F                     	;# 
  1503     0415                     	;# 
  1504     0416                     	;# 
  1505     0417                     	;# 
  1506     041C                     	;# 
  1507     041D                     	;# 
  1508     041E                     	;# 
  1509     0FE4                     	;# 
  1510     0FE5                     	;# 
  1511     0FE6                     	;# 
  1512     0FE7                     	;# 
  1513     0FE8                     	;# 
  1514     0FE9                     	;# 
  1515     0FEA                     	;# 
  1516     0FEB                     	;# 
  1517     0FED                     	;# 
  1518     0FEE                     	;# 
  1519     0FEF                     	;# 
  1520     0000                     	;# 
  1521     0001                     	;# 
  1522     0002                     	;# 
  1523     0003                     	;# 
  1524     0004                     	;# 
  1525     0005                     	;# 
  1526     0006                     	;# 
  1527     0007                     	;# 
  1528     0008                     	;# 
  1529     0009                     	;# 
  1530     000A                     	;# 
  1531     000B                     	;# 
  1532     000C                     	;# 
  1533     000D                     	;# 
  1534     0011                     	;# 
  1535     0012                     	;# 
  1536     0013                     	;# 
  1537     0014                     	;# 
  1538     0015                     	;# 
  1539     0016                     	;# 
  1540     0016                     	;# 
  1541     0017                     	;# 
  1542     0018                     	;# 
  1543     0019                     	;# 
  1544     001A                     	;# 
  1545     001B                     	;# 
  1546     001C                     	;# 
  1547     001E                     	;# 
  1548     001F                     	;# 
  1549     008C                     	;# 
  1550     008D                     	;# 
  1551     0091                     	;# 
  1552     0092                     	;# 
  1553     0093                     	;# 
  1554     0094                     	;# 
  1555     0095                     	;# 
  1556     0096                     	;# 
  1557     0097                     	;# 
  1558     0098                     	;# 
  1559     0099                     	;# 
  1560     009A                     	;# 
  1561     009B                     	;# 
  1562     009B                     	;# 
  1563     009C                     	;# 
  1564     009D                     	;# 
  1565     009E                     	;# 
  1566     010C                     	;# 
  1567     010D                     	;# 
  1568     0111                     	;# 
  1569     0112                     	;# 
  1570     0113                     	;# 
  1571     0114                     	;# 
  1572     0115                     	;# 
  1573     0116                     	;# 
  1574     0117                     	;# 
  1575     0118                     	;# 
  1576     0119                     	;# 
  1577     011A                     	;# 
  1578     011B                     	;# 
  1579     011D                     	;# 
  1580     011E                     	;# 
  1581     018C                     	;# 
  1582     018D                     	;# 
  1583     0191                     	;# 
  1584     0191                     	;# 
  1585     0192                     	;# 
  1586     0193                     	;# 
  1587     0193                     	;# 
  1588     0193                     	;# 
  1589     0194                     	;# 
  1590     0195                     	;# 
  1591     0196                     	;# 
  1592     0199                     	;# 
  1593     019A                     	;# 
  1594     019B                     	;# 
  1595     019B                     	;# 
  1596     019B                     	;# 
  1597     019B                     	;# 
  1598     019C                     	;# 
  1599     019C                     	;# 
  1600     019D                     	;# 
  1601     019E                     	;# 
  1602     019F                     	;# 
  1603     020C                     	;# 
  1604     020D                     	;# 
  1605     0211                     	;# 
  1606     0211                     	;# 
  1607     0212                     	;# 
  1608     0212                     	;# 
  1609     0213                     	;# 
  1610     0213                     	;# 
  1611     0214                     	;# 
  1612     0214                     	;# 
  1613     0215                     	;# 
  1614     0215                     	;# 
  1615     0215                     	;# 
  1616     0216                     	;# 
  1617     0216                     	;# 
  1618     0217                     	;# 
  1619     0217                     	;# 
  1620     0219                     	;# 
  1621     021A                     	;# 
  1622     021B                     	;# 
  1623     021C                     	;# 
  1624     021D                     	;# 
  1625     021E                     	;# 
  1626     021F                     	;# 
  1627     0291                     	;# 
  1628     0291                     	;# 
  1629     0292                     	;# 
  1630     0293                     	;# 
  1631     0294                     	;# 
  1632     0295                     	;# 
  1633     0295                     	;# 
  1634     0296                     	;# 
  1635     0298                     	;# 
  1636     0298                     	;# 
  1637     0299                     	;# 
  1638     029A                     	;# 
  1639     029B                     	;# 
  1640     029C                     	;# 
  1641     029C                     	;# 
  1642     029D                     	;# 
  1643     029E                     	;# 
  1644     029E                     	;# 
  1645     0311                     	;# 
  1646     0311                     	;# 
  1647     0312                     	;# 
  1648     0313                     	;# 
  1649     0318                     	;# 
  1650     0318                     	;# 
  1651     0319                     	;# 
  1652     031A                     	;# 
  1653     0394                     	;# 
  1654     0395                     	;# 
  1655     0396                     	;# 
  1656     039A                     	;# 
  1657     039C                     	;# 
  1658     039D                     	;# 
  1659     039E                     	;# 
  1660     039F                     	;# 
  1661     0415                     	;# 
  1662     0416                     	;# 
  1663     0417                     	;# 
  1664     041C                     	;# 
  1665     041D                     	;# 
  1666     041E                     	;# 
  1667     0FE4                     	;# 
  1668     0FE5                     	;# 
  1669     0FE6                     	;# 
  1670     0FE7                     	;# 
  1671     0FE8                     	;# 
  1672     0FE9                     	;# 
  1673     0FEA                     	;# 
  1674     0FEB                     	;# 
  1675     0FED                     	;# 
  1676     0FEE                     	;# 
  1677     0FEF                     	;# 
  1678     0000                     	;# 
  1679     0001                     	;# 
  1680     0002                     	;# 
  1681     0003                     	;# 
  1682     0004                     	;# 
  1683     0005                     	;# 
  1684     0006                     	;# 
  1685     0007                     	;# 
  1686     0008                     	;# 
  1687     0009                     	;# 
  1688     000A                     	;# 
  1689     000B                     	;# 
  1690     000C                     	;# 
  1691     000D                     	;# 
  1692     0011                     	;# 
  1693     0012                     	;# 
  1694     0013                     	;# 
  1695     0014                     	;# 
  1696     0015                     	;# 
  1697     0016                     	;# 
  1698     0016                     	;# 
  1699     0017                     	;# 
  1700     0018                     	;# 
  1701     0019                     	;# 
  1702     001A                     	;# 
  1703     001B                     	;# 
  1704     001C                     	;# 
  1705     001E                     	;# 
  1706     001F                     	;# 
  1707     008C                     	;# 
  1708     008D                     	;# 
  1709     0091                     	;# 
  1710     0092                     	;# 
  1711     0093                     	;# 
  1712     0094                     	;# 
  1713     0095                     	;# 
  1714     0096                     	;# 
  1715     0097                     	;# 
  1716     0098                     	;# 
  1717     0099                     	;# 
  1718     009A                     	;# 
  1719     009B                     	;# 
  1720     009B                     	;# 
  1721     009C                     	;# 
  1722     009D                     	;# 
  1723     009E                     	;# 
  1724     010C                     	;# 
  1725     010D                     	;# 
  1726     0111                     	;# 
  1727     0112                     	;# 
  1728     0113                     	;# 
  1729     0114                     	;# 
  1730     0115                     	;# 
  1731     0116                     	;# 
  1732     0117                     	;# 
  1733     0118                     	;# 
  1734     0119                     	;# 
  1735     011A                     	;# 
  1736     011B                     	;# 
  1737     011D                     	;# 
  1738     011E                     	;# 
  1739     018C                     	;# 
  1740     018D                     	;# 
  1741     0191                     	;# 
  1742     0191                     	;# 
  1743     0192                     	;# 
  1744     0193                     	;# 
  1745     0193                     	;# 
  1746     0193                     	;# 
  1747     0194                     	;# 
  1748     0195                     	;# 
  1749     0196                     	;# 
  1750     0199                     	;# 
  1751     019A                     	;# 
  1752     019B                     	;# 
  1753     019B                     	;# 
  1754     019B                     	;# 
  1755     019B                     	;# 
  1756     019C                     	;# 
  1757     019C                     	;# 
  1758     019D                     	;# 
  1759     019E                     	;# 
  1760     019F                     	;# 
  1761     020C                     	;# 
  1762     020D                     	;# 
  1763     0211                     	;# 
  1764     0211                     	;# 
  1765     0212                     	;# 
  1766     0212                     	;# 
  1767     0213                     	;# 
  1768     0213                     	;# 
  1769     0214                     	;# 
  1770     0214                     	;# 
  1771     0215                     	;# 
  1772     0215                     	;# 
  1773     0215                     	;# 
  1774     0216                     	;# 
  1775     0216                     	;# 
  1776     0217                     	;# 
  1777     0217                     	;# 
  1778     0219                     	;# 
  1779     021A                     	;# 
  1780     021B                     	;# 
  1781     021C                     	;# 
  1782     021D                     	;# 
  1783     021E                     	;# 
  1784     021F                     	;# 
  1785     0291                     	;# 
  1786     0291                     	;# 
  1787     0292                     	;# 
  1788     0293                     	;# 
  1789     0294                     	;# 
  1790     0295                     	;# 
  1791     0295                     	;# 
  1792     0296                     	;# 
  1793     0298                     	;# 
  1794     0298                     	;# 
  1795     0299                     	;# 
  1796     029A                     	;# 
  1797     029B                     	;# 
  1798     029C                     	;# 
  1799     029C                     	;# 
  1800     029D                     	;# 
  1801     029E                     	;# 
  1802     029E                     	;# 
  1803     0311                     	;# 
  1804     0311                     	;# 
  1805     0312                     	;# 
  1806     0313                     	;# 
  1807     0318                     	;# 
  1808     0318                     	;# 
  1809     0319                     	;# 
  1810     031A                     	;# 
  1811     0394                     	;# 
  1812     0395                     	;# 
  1813     0396                     	;# 
  1814     039A                     	;# 
  1815     039C                     	;# 
  1816     039D                     	;# 
  1817     039E                     	;# 
  1818     039F                     	;# 
  1819     0415                     	;# 
  1820     0416                     	;# 
  1821     0417                     	;# 
  1822     041C                     	;# 
  1823     041D                     	;# 
  1824     041E                     	;# 
  1825     0FE4                     	;# 
  1826     0FE5                     	;# 
  1827     0FE6                     	;# 
  1828     0FE7                     	;# 
  1829     0FE8                     	;# 
  1830     0FE9                     	;# 
  1831     0FEA                     	;# 
  1832     0FEB                     	;# 
  1833     0FED                     	;# 
  1834     0FEE                     	;# 
  1835     0FEF                     	;# 
  1836                           
  1837 ;; Function _EUSART_DefaultFramingErrorHandler is unused but had its address taken
  1838     0000                     
  1839 ;; Function _EUSART_DefaultOverrunErrorHandler is unused but had its address taken
  1840     0000                     
  1841 ;; Function _EUSART_DefaultErrorHandler is unused but had its address taken
  1842     0000                     
  1843                           	psect	idataCOMMON
  1844     0E36                     __pidataCOMMON:
  1845                           
  1846                           ;initializer for _cat
  1847     0E36  3480               	retlw	128
  1848                           
  1849                           	psect	idataBANK0
  1850     0002                     __pidataBANK0:
  1851                           
  1852                           ;initializer for _park_uint
  1853     0002  34E7               	retlw	231
  1854     0003  3403               	retlw	3
  1855                           
  1856                           	psect	stringtext1
  1857     07FD                     __pstringtext1:
  1858     07FD                     _segVal:
  1859     07FD  34DE               	retlw	222
  1860     07FE  3406               	retlw	6
  1861     07FF  349B               	retlw	155
  1862     0800  348F               	retlw	143
  1863     0801  34C6               	retlw	198
  1864     0802  34CD               	retlw	205
  1865     0803  34DD               	retlw	221
  1866     0804  3487               	retlw	135
  1867     0805  34DF               	retlw	223
  1868     0806  34CF               	retlw	207
  1869     0807                     __end_of_segVal:
  1870                           
  1871                           	psect	nvBANK1
  1872     00A0                     __pnvBANK1:
  1873     00A0                     _bright:
  1874     00A0                     	ds	2
  1875     00A2                     _lum:
  1876     00A2                     	ds	2
  1877     00A4                     _TMR4_InterruptHandler:
  1878     00A4                     	ds	2
  1879     00A6                     _EUSART_ErrorHandler:
  1880     00A6                     	ds	2
  1881     00A8                     _EUSART_OverrunErrorHandler:
  1882     00A8                     	ds	2
  1883     00AA                     _EUSART_FramingErrorHandler:
  1884     00AA                     	ds	2
  1885     00AC                     _TMR1_InterruptHandler:
  1886     00AC                     	ds	2
  1887     00AE                     _IOCBF3_InterruptHandler:
  1888     00AE                     	ds	2
  1889     00B0                     _IOCBF0_InterruptHandler:
  1890     00B0                     	ds	2
  1891     000C                     _PORTA	set	12
  1892     001C                     _T2CONbits	set	28
  1893     001C                     _T2CON	set	28
  1894     001A                     _TMR2	set	26
  1895     001B                     _PR2	set	27
  1896     0019                     _T1GCONbits	set	25
  1897     0018                     _T1CONbits	set	24
  1898     0018                     _T1CON	set	24
  1899     0016                     _TMR1L	set	22
  1900     0017                     _TMR1H	set	23
  1901     0019                     _T1GCON	set	25
  1902     0011                     _PIR1bits	set	17
  1903     0013                     _PIR3bits	set	19
  1904     000B                     _INTCONbits	set	11
  1905     009D                     _ADCON0bits	set	157
  1906     009D                     _ADCON0	set	157
  1907     009C                     _ADRESH	set	156
  1908     009B                     _ADRESL	set	155
  1909     009E                     _ADCON1	set	158
  1910     0095                     _OPTION_REGbits	set	149
  1911     008D                     _TRISB	set	141
  1912     008C                     _TRISA	set	140
  1913     0091                     _PIE1bits	set	145
  1914     0093                     _PIE3bits	set	147
  1915     0097                     _WDTCON	set	151
  1916     0098                     _OSCTUNE	set	152
  1917     0099                     _OSCCON	set	153
  1918     011E                     _APFCON1	set	286
  1919     011D                     _APFCON0	set	285
  1920     010D                     _LATB	set	269
  1921     010C                     _LATA	set	268
  1922     0116                     _BORCON	set	278
  1923     019A                     _TXREG	set	410
  1924     0199                     _RCREG	set	409
  1925     019D                     _RCSTAbits	set	413
  1926     019E                     _TXSTAbits	set	414
  1927     019C                     _SPBRGH	set	412
  1928     019B                     _SPBRGL	set	411
  1929     019E                     _TXSTA	set	414
  1930     019D                     _RCSTA	set	413
  1931     019F                     _BAUDCON	set	415
  1932     018C                     _ANSELA	set	396
  1933     018D                     _ANSELB	set	397
  1934     020C                     _WPUA	set	524
  1935     020D                     _WPUB	set	525
  1936     029E                     _CCPTMRS0bits	set	670
  1937     0291                     _CCPR1L	set	657
  1938     0292                     _CCPR1H	set	658
  1939     0296                     _PSTR1CON	set	662
  1940     0294                     _PWM1CON	set	660
  1941     0295                     _ECCP1AS	set	661
  1942     0293                     _CCP1CON	set	659
  1943     0394                     _IOCBPbits	set	916
  1944     0395                     _IOCBNbits	set	917
  1945     0396                     _IOCBFbits	set	918
  1946     0417                     _T4CONbits	set	1047
  1947     0417                     _T4CON	set	1047
  1948     0415                     _TMR4	set	1045
  1949     0416                     _PR4	set	1046
  1950                           
  1951                           	psect	cinit
  1952     0036                     start_initialization:	
  1953                           ; #config settings
  1954                           
  1955     0036                     __initialization:
  1956                           
  1957                           ; Initialize objects allocated to COMMON
  1958     0036  318E  2636  3180   	fcall	__pidataCOMMON	;fetch initializer
  1959     0039  00FD               	movwf	__pdataCOMMON& (0+127)
  1960                           
  1961                           ; Initialize objects allocated to BANK0
  1962     003A  3180  2002  3180   	fcall	__pidataBANK0	;fetch initializer
  1963     003D  00E6               	movwf	__pdataBANK0& (0+127)
  1964     003E  3180  2003  3180   	fcall	__pidataBANK0+1	;fetch initializer
  1965     0041  00E7               	movwf	(__pdataBANK0+1)& (0+127)
  1966                           
  1967                           ; Clear objects allocated to BANK0
  1968     0042  01E1               	clrf	__pbssBANK0& (0+127)
  1969     0043  01E2               	clrf	(__pbssBANK0+1)& (0+127)
  1970     0044  01E3               	clrf	(__pbssBANK0+2)& (0+127)
  1971     0045  01E4               	clrf	(__pbssBANK0+3)& (0+127)
  1972     0046  01E5               	clrf	(__pbssBANK0+4)& (0+127)
  1973                           
  1974                           ; Clear objects allocated to BANK1
  1975     0047  0021               	movlb	1	; select bank1
  1976     0048  01BE               	clrf	__pbssBANK1& (0+127)
  1977     0049  01BF               	clrf	(__pbssBANK1+1)& (0+127)
  1978     004A                     end_of_initialization:	
  1979                           ;End of C runtime variable initialization code
  1980                           
  1981     004A                     __end_of__initialization:
  1982     004A  107E               	bcf	int$flags,0	;clear compiler interrupt flag (level 1)
  1983     004B  0020               	movlb	0
  1984     004C  3186  2E21         	ljmp	_main	;jump to C main() function
  1985                           
  1986                           	psect	dataCOMMON
  1987     007D                     __pdataCOMMON:
  1988     007D                     _cat:
  1989     007D                     	ds	1
  1990                           
  1991                           	psect	bssBANK0
  1992     0061                     __pbssBANK0:
  1993     0061                     _park_bcd:
  1994     0061                     	ds	2
  1995     0063                     _timer1ReloadVal:
  1996     0063                     	ds	2
  1997     0065                     _eusartRxLastError:
  1998     0065                     	ds	1
  1999                           
  2000                           	psect	dataBANK0
  2001     0066                     __pdataBANK0:
  2002     0066                     _park_uint:
  2003     0066                     	ds	2
  2004                           
  2005                           	psect	bssBANK1
  2006     00BE                     __pbssBANK1:
  2007     00BE                     _ADC_InterruptHandler:
  2008     00BE                     	ds	2
  2009                           
  2010                           	psect	cstackBANK1
  2011     00B2                     __pcstackBANK1:
  2012     00B2                     ___fladd@signs:
  2013                           
  2014                           ; 1 bytes @ 0x0
  2015     00B2                     	ds	1
  2016     00B3                     ___fladd@aexp:
  2017                           
  2018                           ; 1 bytes @ 0x1
  2019     00B3                     	ds	1
  2020     00B4                     ___fladd@bexp:
  2021                           
  2022                           ; 1 bytes @ 0x2
  2023     00B4                     	ds	1
  2024     00B5                     ___fladd@grs:
  2025                           
  2026                           ; 1 bytes @ 0x3
  2027     00B5                     	ds	1
  2028     00B6                     ?___fltol:
  2029     00B6                     ___fltol@f1:	
  2030                           ; 4 bytes @ 0x4
  2031                           
  2032                           
  2033                           ; 4 bytes @ 0x4
  2034     00B6                     	ds	4
  2035     00BA                     ??___fltol:
  2036                           
  2037                           ; 1 bytes @ 0x8
  2038     00BA                     	ds	4
  2039                           
  2040                           	psect	cstackCOMMON
  2041     0070                     __pcstackCOMMON:
  2042     0070                     ?_PIN_MANAGER_Initialize:
  2043     0070                     ?_OSCILLATOR_Initialize:	
  2044                           ; 1 bytes @ 0x0
  2045                           
  2046     0070                     ?_WDT_Initialize:	
  2047                           ; 1 bytes @ 0x0
  2048                           
  2049     0070                     ?_ADC_Initialize:	
  2050                           ; 1 bytes @ 0x0
  2051                           
  2052     0070                     ?_EPWM1_Initialize:	
  2053                           ; 1 bytes @ 0x0
  2054                           
  2055     0070                     ?_TMR4_Initialize:	
  2056                           ; 1 bytes @ 0x0
  2057                           
  2058     0070                     ?_TMR2_Initialize:	
  2059                           ; 1 bytes @ 0x0
  2060                           
  2061     0070                     ?_TMR1_Initialize:	
  2062                           ; 1 bytes @ 0x0
  2063                           
  2064     0070                     ?_EUSART_Initialize:	
  2065                           ; 1 bytes @ 0x0
  2066                           
  2067     0070                     ?_PIN_MANAGER_IOC:	
  2068                           ; 1 bytes @ 0x0
  2069                           
  2070     0070                     ??_PIN_MANAGER_IOC:	
  2071                           ; 1 bytes @ 0x0
  2072                           
  2073     0070                     ?_TMR4_ISR:	
  2074                           ; 1 bytes @ 0x0
  2075                           
  2076     0070                     ?_TMR1_ISR:	
  2077                           ; 1 bytes @ 0x0
  2078                           
  2079     0070                     ?_IOCBF0_DefaultInterruptHandler:	
  2080                           ; 1 bytes @ 0x0
  2081                           
  2082     0070                     ??_IOCBF0_DefaultInterruptHandler:	
  2083                           ; 1 bytes @ 0x0
  2084                           
  2085     0070                     ?_IOCBF3_DefaultInterruptHandler:	
  2086                           ; 1 bytes @ 0x0
  2087                           
  2088     0070                     ??_IOCBF3_DefaultInterruptHandler:	
  2089                           ; 1 bytes @ 0x0
  2090                           
  2091     0070                     ?_IOCBF0_ISR:	
  2092                           ; 1 bytes @ 0x0
  2093                           
  2094     0070                     ??_IOCBF0_ISR:	
  2095                           ; 1 bytes @ 0x0
  2096                           
  2097     0070                     ?_IOCBF3_ISR:	
  2098                           ; 1 bytes @ 0x0
  2099                           
  2100     0070                     ??_IOCBF3_ISR:	
  2101                           ; 1 bytes @ 0x0
  2102                           
  2103     0070                     ?_TMR1_DefaultInterruptHandler:	
  2104                           ; 1 bytes @ 0x0
  2105                           
  2106     0070                     ??_TMR1_DefaultInterruptHandler:	
  2107                           ; 1 bytes @ 0x0
  2108                           
  2109     0070                     ?_TMR4_DefaultInterruptHandler:	
  2110                           ; 1 bytes @ 0x0
  2111                           
  2112     0070                     ??_TMR4_DefaultInterruptHandler:	
  2113                           ; 1 bytes @ 0x0
  2114                           
  2115     0070                     ?_TMR4_CallBack:	
  2116                           ; 1 bytes @ 0x0
  2117                           
  2118     0070                     ?_displayMux:	
  2119                           ; 1 bytes @ 0x0
  2120                           
  2121     0070                     ?_dattaOut:	
  2122                           ; 1 bytes @ 0x0
  2123                           
  2124     0070                     ?_carIn:	
  2125                           ; 1 bytes @ 0x0
  2126                           
  2127     0070                     ??_carIn:	
  2128                           ; 1 bytes @ 0x0
  2129                           
  2130     0070                     ?_carOut:	
  2131                           ; 1 bytes @ 0x0
  2132                           
  2133     0070                     ??_carOut:	
  2134                           ; 1 bytes @ 0x0
  2135                           
  2136     0070                     ?_uint2ASCII:	
  2137                           ; 1 bytes @ 0x0
  2138                           
  2139     0070                     ??_uint2ASCII:	
  2140                           ; 1 bytes @ 0x0
  2141                           
  2142     0070                     ?_memset:	
  2143                           ; 1 bytes @ 0x0
  2144                           
  2145     0070                     ?_SYSTEM_Initialize:	
  2146                           ; 1 bytes @ 0x0
  2147                           
  2148     0070                     ?_INTERRUPT_InterruptManager:	
  2149                           ; 1 bytes @ 0x0
  2150                           
  2151     0070                     ?_TMR1_WriteTimer:	
  2152                           ; 1 bytes @ 0x0
  2153                           
  2154     0070                     ?_EUSART_Write:	
  2155                           ; 1 bytes @ 0x0
  2156                           
  2157     0070                     ??_EUSART_Write:	
  2158                           ; 1 bytes @ 0x0
  2159                           
  2160     0070                     ?_main:	
  2161                           ; 1 bytes @ 0x0
  2162                           
  2163     0070                     EUSART_Write@txData:	
  2164                           ; 1 bytes @ 0x0
  2165                           
  2166     0070                     uint2ASCII@num:	
  2167                           ; 1 bytes @ 0x0
  2168                           
  2169     0070                     TMR1_WriteTimer@timerVal:	
  2170                           ; 1 bytes @ 0x0
  2171                           
  2172     0070                     memset@c:	
  2173                           ; 2 bytes @ 0x0
  2174                           
  2175                           
  2176                           ; 2 bytes @ 0x0
  2177     0070                     	ds	2
  2178     0072                     ??_TMR1_WriteTimer:
  2179     0072                     memset@n:	
  2180                           ; 1 bytes @ 0x2
  2181                           
  2182                           
  2183                           ; 2 bytes @ 0x2
  2184     0072                     	ds	2
  2185     0074                     ??_memset:
  2186                           
  2187                           ; 1 bytes @ 0x4
  2188     0074                     	ds	1
  2189     0075                     memset@dest:
  2190                           
  2191                           ; 1 bytes @ 0x5
  2192     0075                     	ds	1
  2193     0076                     memset@p:
  2194                           
  2195                           ; 1 bytes @ 0x6
  2196     0076                     	ds	1
  2197     0077                     ?_bin2bcd:
  2198     0077                     bin2bcd@binVal:	
  2199                           ; 2 bytes @ 0x7
  2200                           
  2201                           
  2202                           ; 2 bytes @ 0x7
  2203     0077                     	ds	2
  2204     0079                     ??_bin2bcd:
  2205                           
  2206                           ; 1 bytes @ 0x9
  2207     0079                     	ds	4
  2208     007D                     ??_TMR4_ISR:
  2209     007D                     ??_TMR1_ISR:	
  2210                           ; 1 bytes @ 0xD
  2211                           
  2212     007D                     ??_TMR4_CallBack:	
  2213                           ; 1 bytes @ 0xD
  2214                           
  2215     007D                     ??_dattaOut:	
  2216                           ; 1 bytes @ 0xD
  2217                           
  2218     007D                     ??_INTERRUPT_InterruptManager:	
  2219                           ; 1 bytes @ 0xD
  2220                           
  2221                           
  2222                           	psect	cstackBANK0
  2223     0020                     __pcstackBANK0:	
  2224                           ; 1 bytes @ 0xD
  2225                           
  2226     0020                     bin2bcd@i:
  2227                           
  2228                           ; 1 bytes @ 0x0
  2229     0020                     	ds	1
  2230     0021                     bin2bcd@dataU:
  2231                           
  2232                           ; 4 bytes @ 0x1
  2233     0021                     	ds	4
  2234     0025                     ??_displayMux:
  2235                           
  2236                           ; 1 bytes @ 0x5
  2237     0025                     	ds	2
  2238     0027                     ??_OSCILLATOR_Initialize:
  2239     0027                     ??_WDT_Initialize:	
  2240                           ; 1 bytes @ 0x7
  2241                           
  2242     0027                     ??_ADC_Initialize:	
  2243                           ; 1 bytes @ 0x7
  2244                           
  2245     0027                     ??_EPWM1_Initialize:	
  2246                           ; 1 bytes @ 0x7
  2247                           
  2248     0027                     ??_TMR2_Initialize:	
  2249                           ; 1 bytes @ 0x7
  2250                           
  2251     0027                     ?_IOCBF0_SetInterruptHandler:	
  2252                           ; 1 bytes @ 0x7
  2253                           
  2254     0027                     ?_IOCBF3_SetInterruptHandler:	
  2255                           ; 1 bytes @ 0x7
  2256                           
  2257     0027                     ?_TMR1_SetInterruptHandler:	
  2258                           ; 1 bytes @ 0x7
  2259                           
  2260     0027                     ?_EUSART_SetFramingErrorHandler:	
  2261                           ; 1 bytes @ 0x7
  2262                           
  2263     0027                     ?_EUSART_SetOverrunErrorHandler:	
  2264                           ; 1 bytes @ 0x7
  2265                           
  2266     0027                     ?_EUSART_SetErrorHandler:	
  2267                           ; 1 bytes @ 0x7
  2268                           
  2269     0027                     ?_TMR4_SetInterruptHandler:	
  2270                           ; 1 bytes @ 0x7
  2271                           
  2272     0027                     ?_EPWM1_LoadDutyValue:	
  2273                           ; 1 bytes @ 0x7
  2274                           
  2275     0027                     ?__Umul8_16:	
  2276                           ; 1 bytes @ 0x7
  2277                           
  2278     0027                     ?_ADC_GetConversion:	
  2279                           ; 2 bytes @ 0x7
  2280                           
  2281     0027                     ?___xxtofl:	
  2282                           ; 2 bytes @ 0x7
  2283                           
  2284     0027                     __Umul8_16@multiplicand:	
  2285                           ; 4 bytes @ 0x7
  2286                           
  2287     0027                     IOCBF0_SetInterruptHandler@InterruptHandler:	
  2288                           ; 1 bytes @ 0x7
  2289                           
  2290     0027                     IOCBF3_SetInterruptHandler@InterruptHandler:	
  2291                           ; 2 bytes @ 0x7
  2292                           
  2293     0027                     EPWM1_LoadDutyValue@dutyValue:	
  2294                           ; 2 bytes @ 0x7
  2295                           
  2296     0027                     TMR1_SetInterruptHandler@InterruptHandler:	
  2297                           ; 2 bytes @ 0x7
  2298                           
  2299     0027                     EUSART_SetFramingErrorHandler@interruptHandler:	
  2300                           ; 2 bytes @ 0x7
  2301                           
  2302     0027                     EUSART_SetOverrunErrorHandler@interruptHandler:	
  2303                           ; 2 bytes @ 0x7
  2304                           
  2305     0027                     EUSART_SetErrorHandler@interruptHandler:	
  2306                           ; 2 bytes @ 0x7
  2307                           
  2308     0027                     TMR4_SetInterruptHandler@InterruptHandler:	
  2309                           ; 2 bytes @ 0x7
  2310                           
  2311     0027                     ___xxtofl@val:	
  2312                           ; 2 bytes @ 0x7
  2313                           
  2314                           
  2315                           ; 4 bytes @ 0x7
  2316     0027                     	ds	2
  2317     0029                     ??_PIN_MANAGER_Initialize:
  2318     0029                     ??_TMR4_Initialize:	
  2319                           ; 1 bytes @ 0x9
  2320                           
  2321     0029                     ??_TMR1_Initialize:	
  2322                           ; 1 bytes @ 0x9
  2323                           
  2324     0029                     ??_EUSART_Initialize:	
  2325                           ; 1 bytes @ 0x9
  2326                           
  2327     0029                     ??_IOCBF0_SetInterruptHandler:	
  2328                           ; 1 bytes @ 0x9
  2329                           
  2330     0029                     ??_IOCBF3_SetInterruptHandler:	
  2331                           ; 1 bytes @ 0x9
  2332                           
  2333     0029                     ??_TMR1_SetInterruptHandler:	
  2334                           ; 1 bytes @ 0x9
  2335                           
  2336     0029                     ??_EUSART_SetFramingErrorHandler:	
  2337                           ; 1 bytes @ 0x9
  2338                           
  2339     0029                     ??_EUSART_SetOverrunErrorHandler:	
  2340                           ; 1 bytes @ 0x9
  2341                           
  2342     0029                     ??_EUSART_SetErrorHandler:	
  2343                           ; 1 bytes @ 0x9
  2344                           
  2345     0029                     ??_TMR4_SetInterruptHandler:	
  2346                           ; 1 bytes @ 0x9
  2347                           
  2348     0029                     ??__Umul8_16:	
  2349                           ; 1 bytes @ 0x9
  2350                           
  2351     0029                     ??_SYSTEM_Initialize:	
  2352                           ; 1 bytes @ 0x9
  2353                           
  2354     0029                     ??_ADC_GetConversion:	
  2355                           ; 1 bytes @ 0x9
  2356                           
  2357     0029                     ??_EPWM1_LoadDutyValue:	
  2358                           ; 1 bytes @ 0x9
  2359                           
  2360                           
  2361                           ; 1 bytes @ 0x9
  2362     0029                     	ds	1
  2363     002A                     ADC_GetConversion@channel:
  2364                           
  2365                           ; 1 bytes @ 0xA
  2366     002A                     	ds	1
  2367     002B                     ??___xxtofl:
  2368     002B                     __Umul8_16@product:	
  2369                           ; 1 bytes @ 0xB
  2370                           
  2371                           
  2372                           ; 2 bytes @ 0xB
  2373     002B                     	ds	2
  2374     002D                     __Umul8_16@word_mpld:
  2375                           
  2376                           ; 2 bytes @ 0xD
  2377     002D                     	ds	2
  2378     002F                     __Umul8_16@multiplier:
  2379     002F                     ___xxtofl@sign:	
  2380                           ; 1 bytes @ 0xF
  2381                           
  2382                           
  2383                           ; 1 bytes @ 0xF
  2384     002F                     	ds	1
  2385     0030                     ___xxtofl@exp:
  2386                           
  2387                           ; 1 bytes @ 0x10
  2388     0030                     	ds	1
  2389     0031                     ___xxtofl@arg:
  2390                           
  2391                           ; 4 bytes @ 0x11
  2392     0031                     	ds	4
  2393     0035                     ?___flmul:
  2394     0035                     ___flmul@b:	
  2395                           ; 4 bytes @ 0x15
  2396                           
  2397                           
  2398                           ; 4 bytes @ 0x15
  2399     0035                     	ds	4
  2400     0039                     ___flmul@a:
  2401                           
  2402                           ; 4 bytes @ 0x19
  2403     0039                     	ds	4
  2404     003D                     ??___flmul:
  2405                           
  2406                           ; 1 bytes @ 0x1D
  2407     003D                     	ds	5
  2408     0042                     ___flmul@sign:
  2409                           
  2410                           ; 1 bytes @ 0x22
  2411     0042                     	ds	1
  2412     0043                     ___flmul@grs:
  2413                           
  2414                           ; 4 bytes @ 0x23
  2415     0043                     	ds	4
  2416     0047                     ___flmul@aexp:
  2417                           
  2418                           ; 1 bytes @ 0x27
  2419     0047                     	ds	1
  2420     0048                     ___flmul@bexp:
  2421                           
  2422                           ; 1 bytes @ 0x28
  2423     0048                     	ds	1
  2424     0049                     ___flmul@prod:
  2425                           
  2426                           ; 4 bytes @ 0x29
  2427     0049                     	ds	4
  2428     004D                     ___flmul@temp:
  2429                           
  2430                           ; 2 bytes @ 0x2D
  2431     004D                     	ds	2
  2432     004F                     ?___fladd:
  2433     004F                     ___fladd@b:	
  2434                           ; 4 bytes @ 0x2F
  2435                           
  2436                           
  2437                           ; 4 bytes @ 0x2F
  2438     004F                     	ds	4
  2439     0053                     ___fladd@a:
  2440                           
  2441                           ; 4 bytes @ 0x33
  2442     0053                     	ds	4
  2443     0057                     ??___fladd:
  2444                           
  2445                           ; 1 bytes @ 0x37
  2446     0057                     	ds	8
  2447     005F                     ___fltol@sign1:
  2448                           
  2449                           ; 1 bytes @ 0x3F
  2450     005F                     	ds	1
  2451     0060                     ___fltol@exp1:
  2452                           
  2453                           ; 1 bytes @ 0x40
  2454     0060                     	ds	1
  2455     0061                     ??_main:
  2456                           
  2457                           	psect	maintext
  2458     0621                     __pmaintext:	
  2459                           ; 1 bytes @ 0x41
  2460 ;;
  2461 ;;Main: autosize = 0, tempsize = 0, incstack = 0, save=0
  2462 ;;
  2463 ;; *************** function _main *****************
  2464 ;; Defined at:
  2465 ;;		line 52 in file "main.c"
  2466 ;; Parameters:    Size  Location     Type
  2467 ;;		None
  2468 ;; Auto vars:     Size  Location     Type
  2469 ;;		None
  2470 ;; Return value:  Size  Location     Type
  2471 ;;                  1    wreg      void 
  2472 ;; Registers used:
  2473 ;;		wreg, status,2, status,0, pclath, cstack
  2474 ;; Tracked objects:
  2475 ;;		On entry : B1F/0
  2476 ;;		On exit  : 0/0
  2477 ;;		Unchanged: 0/0
  2478 ;; Data sizes:     COMMON   BANK0   BANK1   BANK2   BANK3   BANK4
  2479 ;;      Params:         0       0       0       0       0       0
  2480 ;;      Locals:         0       0       0       0       0       0
  2481 ;;      Temps:          0       0       0       0       0       0
  2482 ;;      Totals:         0       0       0       0       0       0
  2483 ;;Total ram usage:        0 bytes
  2484 ;; Hardware stack levels required when called: 9
  2485 ;; This function calls:
  2486 ;;		_ADC_GetConversion
  2487 ;;		_EPWM1_LoadDutyValue
  2488 ;;		_IOCBF0_SetInterruptHandler
  2489 ;;		_IOCBF3_SetInterruptHandler
  2490 ;;		_SYSTEM_Initialize
  2491 ;;		_TMR1_SetInterruptHandler
  2492 ;;		_TMR4_SetInterruptHandler
  2493 ;;		___fladd
  2494 ;;		___flmul
  2495 ;;		___fltol
  2496 ;;		___xxtofl
  2497 ;; This function is called by:
  2498 ;;		Startup code after reset
  2499 ;; This function uses a non-reentrant model
  2500 ;;
  2501                           
  2502     0621                     _main:	
  2503                           ;psect for function _main
  2504                           
  2505     0621                     l2977:	
  2506                           ;incstack = 0
  2507                           ; Regs used in _main: [wreg+status,2+status,0+pclath+cstack]
  2508                           
  2509                           
  2510                           ;main.c: 55:     SYSTEM_Initialize();
  2511     0621  318F  27A2  3186   	fcall	_SYSTEM_Initialize
  2512                           
  2513                           ;main.c: 56:     TMR1_SetInterruptHandler(displayMux);
  2514     0624  3028               	movlw	low _displayMux
  2515     0625  0020               	movlb	0	; select bank0
  2516     0626  00A7               	movwf	TMR1_SetInterruptHandler@InterruptHandler
  2517     0627  3007               	movlw	high _displayMux
  2518     0628  00A8               	movwf	TMR1_SetInterruptHandler@InterruptHandler+1
  2519     0629  318E  2689  3186   	fcall	_TMR1_SetInterruptHandler
  2520                           
  2521                           ;main.c: 57:     TMR4_SetInterruptHandler(dattaOut);
  2522     062C  3079               	movlw	low _dattaOut
  2523     062D  0020               	movlb	0	; select bank0
  2524     062E  00A7               	movwf	TMR4_SetInterruptHandler@InterruptHandler
  2525     062F  3007               	movlw	high _dattaOut
  2526     0630  00A8               	movwf	TMR4_SetInterruptHandler@InterruptHandler+1
  2527     0631  318E  2692  3186   	fcall	_TMR4_SetInterruptHandler
  2528                           
  2529                           ;main.c: 58:     IOCBF0_SetInterruptHandler(carIn);
  2530     0634  3000               	movlw	low _carIn
  2531     0635  0020               	movlb	0	; select bank0
  2532     0636  00A7               	movwf	IOCBF0_SetInterruptHandler@InterruptHandler
  2533     0637  300F               	movlw	high _carIn
  2534     0638  00A8               	movwf	IOCBF0_SetInterruptHandler@InterruptHandler+1
  2535     0639  318E  2677  3186   	fcall	_IOCBF0_SetInterruptHandler
  2536                           
  2537                           ;main.c: 59:     IOCBF3_SetInterruptHandler(carOut);
  2538     063C  3027               	movlw	low _carOut
  2539     063D  0020               	movlb	0	; select bank0
  2540     063E  00A7               	movwf	IOCBF3_SetInterruptHandler@InterruptHandler
  2541     063F  300F               	movlw	high _carOut
  2542     0640  00A8               	movwf	IOCBF3_SetInterruptHandler@InterruptHandler+1
  2543     0641  318E  2680  3186   	fcall	_IOCBF3_SetInterruptHandler
  2544     0644                     l2979:
  2545                           
  2546                           ;main.c: 65:     (INTCONbits.GIE = 1);
  2547     0644  178B               	bsf	11,7	;volatile
  2548     0645                     l2981:
  2549                           
  2550                           ;main.c: 68:     (INTCONbits.PEIE = 1);
  2551     0645  170B               	bsf	11,6	;volatile
  2552     0646                     l478:	
  2553                           ;main.c: 76:     while (1)
  2554                           
  2555                           
  2556                           ;main.c: 77:     {;main.c: 78:         lum = ADC_GetConversion(SENS_LUM);
  2557     0646  3008               	movlw	8
  2558     0647  318F  27BE  3186   	fcall	_ADC_GetConversion
  2559     064A  0020               	movlb	0	; select bank0
  2560     064B  0828               	movf	?_ADC_GetConversion+1,w
  2561     064C  0021               	movlb	1	; select bank1
  2562     064D  00A3               	movwf	(_lum+1)^(0+128)
  2563     064E  0020               	movlb	0	; select bank0
  2564     064F  0827               	movf	?_ADC_GetConversion,w
  2565     0650  0021               	movlb	1	; select bank1
  2566     0651  00A2               	movwf	_lum^(0+128)
  2567                           
  2568                           ;main.c: 79:         bright = (uint16_t)(lum*0.9 + 102);
  2569     0652  0822               	movf	_lum^(0+128),w
  2570     0653  0020               	movlb	0	; select bank0
  2571     0654  00A7               	movwf	___xxtofl@val
  2572     0655  0021               	movlb	1	; select bank1
  2573     0656  0823               	movf	(_lum+1)^(0+128),w
  2574     0657  0020               	movlb	0	; select bank0
  2575     0658  00A8               	movwf	___xxtofl@val+1
  2576     0659  01A9               	clrf	___xxtofl@val+2
  2577     065A  01AA               	clrf	___xxtofl@val+3
  2578     065B  3000               	movlw	0
  2579     065C  3184  24E4  3186   	fcall	___xxtofl
  2580     065F  0020               	movlb	0	; select bank0
  2581     0660  082A               	movf	?___xxtofl+3,w
  2582     0661  00BC               	movwf	___flmul@a+3
  2583     0662  0829               	movf	?___xxtofl+2,w
  2584     0663  00BB               	movwf	___flmul@a+2
  2585     0664  0828               	movf	?___xxtofl+1,w
  2586     0665  00BA               	movwf	___flmul@a+1
  2587     0666  0827               	movf	?___xxtofl,w
  2588     0667  00B9               	movwf	___flmul@a
  2589     0668  303F               	movlw	63
  2590     0669  00B8               	movwf	___flmul@b+3
  2591     066A  3066               	movlw	102
  2592     066B  00B7               	movwf	___flmul@b+2
  2593     066C  3066               	movlw	102
  2594     066D  00B6               	movwf	___flmul@b+1
  2595     066E  3066               	movlw	102
  2596     066F  00B5               	movwf	___flmul@b
  2597     0670  3182  22A9  3186   	fcall	___flmul
  2598     0673  0020               	movlb	0	; select bank0
  2599     0674  0838               	movf	?___flmul+3,w
  2600     0675  00D6               	movwf	___fladd@a+3
  2601     0676  0837               	movf	?___flmul+2,w
  2602     0677  00D5               	movwf	___fladd@a+2
  2603     0678  0836               	movf	?___flmul+1,w
  2604     0679  00D4               	movwf	___fladd@a+1
  2605     067A  0835               	movf	?___flmul,w
  2606     067B  00D3               	movwf	___fladd@a
  2607     067C  3042               	movlw	66
  2608     067D  00D2               	movwf	___fladd@b+3
  2609     067E  30CC               	movlw	204
  2610     067F  00D1               	movwf	___fladd@b+2
  2611     0680  3000               	movlw	0
  2612     0681  00D0               	movwf	___fladd@b+1
  2613     0682  3000               	movlw	0
  2614     0683  00CF               	movwf	___fladd@b
  2615     0684  3180  204E  3186   	fcall	___fladd
  2616     0687  0020               	movlb	0	; select bank0
  2617     0688  0852               	movf	?___fladd+3,w
  2618     0689  0021               	movlb	1	; select bank1
  2619     068A  00B9               	movwf	(___fltol@f1+3)^(0+128)
  2620     068B  0020               	movlb	0	; select bank0
  2621     068C  0851               	movf	?___fladd+2,w
  2622     068D  0021               	movlb	1	; select bank1
  2623     068E  00B8               	movwf	(___fltol@f1+2)^(0+128)
  2624     068F  0020               	movlb	0	; select bank0
  2625     0690  0850               	movf	?___fladd+1,w
  2626     0691  0021               	movlb	1	; select bank1
  2627     0692  00B7               	movwf	(___fltol@f1+1)^(0+128)
  2628     0693  0020               	movlb	0	; select bank0
  2629     0694  084F               	movf	?___fladd,w
  2630     0695  0021               	movlb	1	; select bank1
  2631     0696  00B6               	movwf	___fltol@f1^(0+128)
  2632     0697  3186  26AC  3186   	fcall	___fltol
  2633     069A  0021               	movlb	1	; select bank1
  2634     069B  0837               	movf	(?___fltol+1)^(0+128),w
  2635     069C  00A1               	movwf	(_bright+1)^(0+128)
  2636     069D  0836               	movf	?___fltol^(0+128),w
  2637     069E  00A0               	movwf	_bright^(0+128)
  2638                           
  2639                           ;main.c: 80:         EPWM1_LoadDutyValue(bright);
  2640     069F  0821               	movf	(_bright+1)^(0+128),w
  2641     06A0  0020               	movlb	0	; select bank0
  2642     06A1  00A8               	movwf	EPWM1_LoadDutyValue@dutyValue+1
  2643     06A2  0021               	movlb	1	; select bank1
  2644     06A3  0820               	movf	_bright^(0+128),w
  2645     06A4  0020               	movlb	0	; select bank0
  2646     06A5  00A7               	movwf	EPWM1_LoadDutyValue@dutyValue
  2647     06A6  318F  2786  3186   	fcall	_EPWM1_LoadDutyValue
  2648     06A9  2E46               	goto	l478
  2649     06AA  3180  2834         	ljmp	start
  2650     06AC                     __end_of_main:
  2651                           
  2652                           	psect	text1
  2653     04E4                     __ptext1:	
  2654 ;; *************** function ___xxtofl *****************
  2655 ;; Defined at:
  2656 ;;		line 10 in file "C:\Program Files\Microchip\xc8\v2.45\pic\sources\c99\common\xxtofl.c"
  2657 ;; Parameters:    Size  Location     Type
  2658 ;;  sign            1    wreg     unsigned char 
  2659 ;;  val             4    7[BANK0 ] long 
  2660 ;; Auto vars:     Size  Location     Type
  2661 ;;  sign            1   15[BANK0 ] unsigned char 
  2662 ;;  arg             4   17[BANK0 ] unsigned long 
  2663 ;;  exp             1   16[BANK0 ] unsigned char 
  2664 ;; Return value:  Size  Location     Type
  2665 ;;                  4    7[BANK0 ] unsigned char 
  2666 ;; Registers used:
  2667 ;;		wreg, status,2, status,0
  2668 ;; Tracked objects:
  2669 ;;		On entry : 0/0
  2670 ;;		On exit  : 0/0
  2671 ;;		Unchanged: 0/0
  2672 ;; Data sizes:     COMMON   BANK0   BANK1   BANK2   BANK3   BANK4
  2673 ;;      Params:         0       4       0       0       0       0
  2674 ;;      Locals:         0       6       0       0       0       0
  2675 ;;      Temps:          0       4       0       0       0       0
  2676 ;;      Totals:         0      14       0       0       0       0
  2677 ;;Total ram usage:       14 bytes
  2678 ;; Hardware stack levels used: 1
  2679 ;; Hardware stack levels required when called: 6
  2680 ;; This function calls:
  2681 ;;		Nothing
  2682 ;; This function is called by:
  2683 ;;		_main
  2684 ;; This function uses a non-reentrant model
  2685 ;;
  2686                           
  2687     04E4                     ___xxtofl:	
  2688                           ;psect for function ___xxtofl
  2689                           
  2690                           
  2691                           ;incstack = 0
  2692                           ; Regs used in ___xxtofl: [wreg+status,2+status,0]
  2693                           ;___xxtofl@sign stored from wreg
  2694     04E4  0020               	movlb	0	; select bank0
  2695     04E5  00AF               	movwf	___xxtofl@sign
  2696     04E6                     l2637:
  2697     04E6  082F               	movf	___xxtofl@sign,w
  2698     04E7  1903               	btfsc	3,2
  2699     04E8  2CEA               	goto	u2311
  2700     04E9  2CEB               	goto	u2310
  2701     04EA                     u2311:
  2702     04EA  2CFF               	goto	l2643
  2703     04EB                     u2310:
  2704     04EB                     l2639:
  2705     04EB  1FAA               	btfss	___xxtofl@val+3,7
  2706     04EC  2CEE               	goto	u2321
  2707     04ED  2CEF               	goto	u2320
  2708     04EE                     u2321:
  2709     04EE  2CFF               	goto	l2643
  2710     04EF                     u2320:
  2711     04EF                     l2641:
  2712     04EF  0927               	comf	___xxtofl@val,w
  2713     04F0  00B1               	movwf	___xxtofl@arg
  2714     04F1  0928               	comf	___xxtofl@val+1,w
  2715     04F2  00B2               	movwf	___xxtofl@arg+1
  2716     04F3  0929               	comf	___xxtofl@val+2,w
  2717     04F4  00B3               	movwf	___xxtofl@arg+2
  2718     04F5  092A               	comf	___xxtofl@val+3,w
  2719     04F6  00B4               	movwf	___xxtofl@arg+3
  2720     04F7  0AB1               	incf	___xxtofl@arg,f
  2721     04F8  1903               	skipnz
  2722     04F9  0AB2               	incf	___xxtofl@arg+1,f
  2723     04FA  1903               	skipnz
  2724     04FB  0AB3               	incf	___xxtofl@arg+2,f
  2725     04FC  1903               	skipnz
  2726     04FD  0AB4               	incf	___xxtofl@arg+3,f
  2727     04FE  2D07               	goto	l1112
  2728     04FF                     l2643:
  2729     04FF  082A               	movf	___xxtofl@val+3,w
  2730     0500  00B4               	movwf	___xxtofl@arg+3
  2731     0501  0829               	movf	___xxtofl@val+2,w
  2732     0502  00B3               	movwf	___xxtofl@arg+2
  2733     0503  0828               	movf	___xxtofl@val+1,w
  2734     0504  00B2               	movwf	___xxtofl@arg+1
  2735     0505  0827               	movf	___xxtofl@val,w
  2736     0506  00B1               	movwf	___xxtofl@arg
  2737     0507                     l1112:
  2738     0507  082A               	movf	___xxtofl@val+3,w
  2739     0508  0429               	iorwf	___xxtofl@val+2,w
  2740     0509  0428               	iorwf	___xxtofl@val+1,w
  2741     050A  0427               	iorwf	___xxtofl@val,w
  2742     050B  1D03               	skipz
  2743     050C  2D0E               	goto	u2331
  2744     050D  2D0F               	goto	u2330
  2745     050E                     u2331:
  2746     050E  2D18               	goto	l2649
  2747     050F                     u2330:
  2748     050F                     l2645:
  2749     050F  3000               	movlw	0
  2750     0510  00AA               	movwf	?___xxtofl+3
  2751     0511  3000               	movlw	0
  2752     0512  00A9               	movwf	?___xxtofl+2
  2753     0513  3000               	movlw	0
  2754     0514  00A8               	movwf	?___xxtofl+1
  2755     0515  3000               	movlw	0
  2756     0516  00A7               	movwf	?___xxtofl
  2757     0517  2D8E               	goto	l1114
  2758     0518                     l2649:
  2759     0518  3096               	movlw	150
  2760     0519  00B0               	movwf	___xxtofl@exp
  2761     051A  2D26               	goto	l2653
  2762     051B                     l2651:
  2763     051B  3001               	movlw	1
  2764     051C  00AB               	movwf	??___xxtofl
  2765     051D  082B               	movf	??___xxtofl,w
  2766     051E  07B0               	addwf	___xxtofl@exp,f
  2767     051F  3001               	movlw	1
  2768     0520                     u2345:
  2769     0520  36B4               	lsrf	___xxtofl@arg+3,f
  2770     0521  0CB3               	rrf	___xxtofl@arg+2,f
  2771     0522  0CB2               	rrf	___xxtofl@arg+1,f
  2772     0523  0CB1               	rrf	___xxtofl@arg,f
  2773     0524  0B89               	decfsz	9,f
  2774     0525  2D20               	goto	u2345
  2775     0526                     l2653:
  2776     0526  30FE               	movlw	254
  2777     0527  0534               	andwf	___xxtofl@arg+3,w
  2778     0528  1D03               	btfss	3,2
  2779     0529  2D2B               	goto	u2351
  2780     052A  2D2C               	goto	u2350
  2781     052B                     u2351:
  2782     052B  2D1B               	goto	l2651
  2783     052C                     u2350:
  2784     052C  2D40               	goto	l1118
  2785     052D                     l2655:
  2786     052D  3001               	movlw	1
  2787     052E  00AB               	movwf	??___xxtofl
  2788     052F  082B               	movf	??___xxtofl,w
  2789     0530  07B0               	addwf	___xxtofl@exp,f
  2790     0531                     l2657:
  2791     0531  3001               	movlw	1
  2792     0532  07B1               	addwf	___xxtofl@arg,f
  2793     0533  3000               	movlw	0
  2794     0534  3DB2               	addwfc	___xxtofl@arg+1,f
  2795     0535  3000               	movlw	0
  2796     0536  3DB3               	addwfc	___xxtofl@arg+2,f
  2797     0537  3000               	movlw	0
  2798     0538  3DB4               	addwfc	___xxtofl@arg+3,f
  2799     0539                     l2659:
  2800     0539  3001               	movlw	1
  2801     053A                     u2365:
  2802     053A  36B4               	lsrf	___xxtofl@arg+3,f
  2803     053B  0CB3               	rrf	___xxtofl@arg+2,f
  2804     053C  0CB2               	rrf	___xxtofl@arg+1,f
  2805     053D  0CB1               	rrf	___xxtofl@arg,f
  2806     053E  0B89               	decfsz	9,f
  2807     053F  2D3A               	goto	u2365
  2808     0540                     l1118:
  2809     0540  30FF               	movlw	255
  2810     0541  0534               	andwf	___xxtofl@arg+3,w
  2811     0542  1D03               	btfss	3,2
  2812     0543  2D45               	goto	u2371
  2813     0544  2D46               	goto	u2370
  2814     0545                     u2371:
  2815     0545  2D2D               	goto	l2655
  2816     0546                     u2370:
  2817     0546  2D50               	goto	l2663
  2818     0547                     l2661:
  2819     0547  3001               	movlw	1
  2820     0548  02B0               	subwf	___xxtofl@exp,f
  2821     0549  3001               	movlw	1
  2822     054A                     u2385:
  2823     054A  35B1               	lslf	___xxtofl@arg,f
  2824     054B  0DB2               	rlf	___xxtofl@arg+1,f
  2825     054C  0DB3               	rlf	___xxtofl@arg+2,f
  2826     054D  0DB4               	rlf	___xxtofl@arg+3,f
  2827     054E  0B89               	decfsz	9,f
  2828     054F  2D4A               	goto	u2385
  2829     0550                     l2663:
  2830     0550  1BB3               	btfsc	___xxtofl@arg+2,7
  2831     0551  2D53               	goto	u2391
  2832     0552  2D54               	goto	u2390
  2833     0553                     u2391:
  2834     0553  2D5A               	goto	l1125
  2835     0554                     u2390:
  2836     0554                     l2665:
  2837     0554  3002               	movlw	2
  2838     0555  0230               	subwf	___xxtofl@exp,w
  2839     0556  1803               	skipnc
  2840     0557  2D59               	goto	u2401
  2841     0558  2D5A               	goto	u2400
  2842     0559                     u2401:
  2843     0559  2D47               	goto	l2661
  2844     055A                     u2400:
  2845     055A                     l1125:
  2846     055A  1830               	btfsc	___xxtofl@exp,0
  2847     055B  2D5D               	goto	u2411
  2848     055C  2D5E               	goto	u2410
  2849     055D                     u2411:
  2850     055D  2D66               	goto	l1126
  2851     055E                     u2410:
  2852     055E                     l2667:
  2853     055E  30FF               	movlw	255
  2854     055F  05B1               	andwf	___xxtofl@arg,f
  2855     0560  30FF               	movlw	255
  2856     0561  05B2               	andwf	___xxtofl@arg+1,f
  2857     0562  307F               	movlw	127
  2858     0563  05B3               	andwf	___xxtofl@arg+2,f
  2859     0564  30FF               	movlw	255
  2860     0565  05B4               	andwf	___xxtofl@arg+3,f
  2861     0566                     l1126:
  2862     0566  1003               	clrc
  2863     0567  0CB0               	rrf	___xxtofl@exp,f
  2864     0568                     l2669:
  2865     0568  0830               	movf	___xxtofl@exp,w
  2866     0569  00AB               	movwf	??___xxtofl
  2867     056A  01AC               	clrf	??___xxtofl+1
  2868     056B  01AD               	clrf	??___xxtofl+2
  2869     056C  01AE               	clrf	??___xxtofl+3
  2870     056D  3018               	movlw	24
  2871     056E                     u2425:
  2872     056E  35AB               	lslf	??___xxtofl,f
  2873     056F  0DAC               	rlf	??___xxtofl+1,f
  2874     0570  0DAD               	rlf	??___xxtofl+2,f
  2875     0571  0DAE               	rlf	??___xxtofl+3,f
  2876     0572                     u2420:
  2877     0572  0B89               	decfsz	9,f
  2878     0573  2D6E               	goto	u2425
  2879     0574  082B               	movf	??___xxtofl,w
  2880     0575  04B1               	iorwf	___xxtofl@arg,f
  2881     0576  082C               	movf	??___xxtofl+1,w
  2882     0577  04B2               	iorwf	___xxtofl@arg+1,f
  2883     0578  082D               	movf	??___xxtofl+2,w
  2884     0579  04B3               	iorwf	___xxtofl@arg+2,f
  2885     057A  082E               	movf	??___xxtofl+3,w
  2886     057B  04B4               	iorwf	___xxtofl@arg+3,f
  2887     057C                     l2671:
  2888     057C  082F               	movf	___xxtofl@sign,w
  2889     057D  1903               	btfsc	3,2
  2890     057E  2D80               	goto	u2431
  2891     057F  2D81               	goto	u2430
  2892     0580                     u2431:
  2893     0580  2D86               	goto	l2677
  2894     0581                     u2430:
  2895     0581                     l2673:
  2896     0581  1FAA               	btfss	___xxtofl@val+3,7
  2897     0582  2D84               	goto	u2441
  2898     0583  2D85               	goto	u2440
  2899     0584                     u2441:
  2900     0584  2D86               	goto	l2677
  2901     0585                     u2440:
  2902     0585                     l2675:
  2903     0585  17B4               	bsf	___xxtofl@arg+3,7
  2904     0586                     l2677:
  2905     0586  0834               	movf	___xxtofl@arg+3,w
  2906     0587  00AA               	movwf	?___xxtofl+3
  2907     0588  0833               	movf	___xxtofl@arg+2,w
  2908     0589  00A9               	movwf	?___xxtofl+2
  2909     058A  0832               	movf	___xxtofl@arg+1,w
  2910     058B  00A8               	movwf	?___xxtofl+1
  2911     058C  0831               	movf	___xxtofl@arg,w
  2912     058D  00A7               	movwf	?___xxtofl
  2913     058E                     l1114:
  2914     058E  0008               	return
  2915     058F                     __end_of___xxtofl:
  2916                           
  2917                           	psect	text2
  2918     06AC                     __ptext2:	
  2919 ;; *************** function ___fltol *****************
  2920 ;; Defined at:
  2921 ;;		line 43 in file "C:\Program Files\Microchip\xc8\v2.45\pic\sources\c99\common\fltol.c"
  2922 ;; Parameters:    Size  Location     Type
  2923 ;;  f1              4    4[BANK1 ] unsigned char 
  2924 ;; Auto vars:     Size  Location     Type
  2925 ;;  exp1            1   64[BANK0 ] unsigned char 
  2926 ;;  sign1           1   63[BANK0 ] unsigned char 
  2927 ;; Return value:  Size  Location     Type
  2928 ;;                  4    4[BANK1 ] long 
  2929 ;; Registers used:
  2930 ;;		wreg, status,2, status,0
  2931 ;; Tracked objects:
  2932 ;;		On entry : 0/0
  2933 ;;		On exit  : 0/0
  2934 ;;		Unchanged: 0/0
  2935 ;; Data sizes:     COMMON   BANK0   BANK1   BANK2   BANK3   BANK4
  2936 ;;      Params:         0       0       4       0       0       0
  2937 ;;      Locals:         0       2       0       0       0       0
  2938 ;;      Temps:          0       0       4       0       0       0
  2939 ;;      Totals:         0       2       8       0       0       0
  2940 ;;Total ram usage:       10 bytes
  2941 ;; Hardware stack levels used: 1
  2942 ;; Hardware stack levels required when called: 6
  2943 ;; This function calls:
  2944 ;;		Nothing
  2945 ;; This function is called by:
  2946 ;;		_main
  2947 ;; This function uses a non-reentrant model
  2948 ;;
  2949                           
  2950     06AC                     ___fltol:	
  2951                           ;psect for function ___fltol
  2952                           
  2953     06AC                     l2747:	
  2954                           ;incstack = 0
  2955                           ; Regs used in ___fltol: [wreg+status,2+status,0]
  2956                           
  2957     06AC  1003               	clrc
  2958     06AD  0021               	movlb	1	; select bank1
  2959     06AE  0D38               	rlf	(___fltol@f1+2)^(0+128),w
  2960     06AF  0D39               	rlf	(___fltol@f1+3)^(0+128),w
  2961     06B0  0020               	movlb	0	; select bank0
  2962     06B1  00E0               	movwf	___fltol@exp1
  2963     06B2  0860               	movf	___fltol@exp1,w
  2964     06B3  1D03               	btfss	3,2
  2965     06B4  2EB6               	goto	u2541
  2966     06B5  2EB7               	goto	u2540
  2967     06B6                     u2541:
  2968     06B6  2EC1               	goto	l2753
  2969     06B7                     u2540:
  2970     06B7                     l2749:
  2971     06B7  3000               	movlw	0
  2972     06B8  0021               	movlb	1	; select bank1
  2973     06B9  00B9               	movwf	(?___fltol+3)^(0+128)
  2974     06BA  3000               	movlw	0
  2975     06BB  00B8               	movwf	(?___fltol+2)^(0+128)
  2976     06BC  3000               	movlw	0
  2977     06BD  00B7               	movwf	(?___fltol+1)^(0+128)
  2978     06BE  3000               	movlw	0
  2979     06BF  00B6               	movwf	?___fltol^(0+128)
  2980     06C0  2F27               	goto	l865
  2981     06C1                     l2753:
  2982     06C1  0021               	movlb	1	; select bank1
  2983     06C2  0836               	movf	___fltol@f1^(0+128),w
  2984     06C3  00BA               	movwf	??___fltol^(0+128)
  2985     06C4  0837               	movf	(___fltol@f1+1)^(0+128),w
  2986     06C5  00BB               	movwf	(??___fltol^(0+128)+1)
  2987     06C6  0838               	movf	(___fltol@f1+2)^(0+128),w
  2988     06C7  00BC               	movwf	(??___fltol^(0+128)+2)
  2989     06C8  0839               	movf	(___fltol@f1+3)^(0+128),w
  2990     06C9  00BD               	movwf	(??___fltol^(0+128)+3)
  2991     06CA  301F               	movlw	31
  2992     06CB                     u2555:
  2993     06CB  36BD               	lsrf	(??___fltol^(0+128)+3),f
  2994     06CC  0CBC               	rrf	(??___fltol^(0+128)+2),f
  2995     06CD  0CBB               	rrf	(??___fltol^(0+128)+1),f
  2996     06CE  0CBA               	rrf	??___fltol^(0+128),f
  2997     06CF                     u2550:
  2998     06CF  0B89               	decfsz	9,f
  2999     06D0  2ECB               	goto	u2555
  3000     06D1  083A               	movf	??___fltol^(0+128),w
  3001     06D2  0020               	movlb	0	; select bank0
  3002     06D3  00DF               	movwf	___fltol@sign1
  3003     06D4                     l2755:
  3004     06D4  0021               	movlb	1	; select bank1
  3005     06D5  17B8               	bsf	(___fltol@f1^(0+128)+2),7
  3006     06D6                     l2757:
  3007     06D6  30FF               	movlw	255
  3008     06D7  05B6               	andwf	___fltol@f1^(0+128),f
  3009     06D8  30FF               	movlw	255
  3010     06D9  05B7               	andwf	(___fltol@f1+1)^(0+128),f
  3011     06DA  30FF               	movlw	255
  3012     06DB  05B8               	andwf	(___fltol@f1+2)^(0+128),f
  3013     06DC  3000               	movlw	0
  3014     06DD  05B9               	andwf	(___fltol@f1+3)^(0+128),f
  3015     06DE                     l2759:
  3016     06DE  3096               	movlw	150
  3017     06DF  0020               	movlb	0	; select bank0
  3018     06E0  02E0               	subwf	___fltol@exp1,f
  3019     06E1                     l2761:
  3020     06E1  1FE0               	btfss	___fltol@exp1,7
  3021     06E2  2EE4               	goto	u2561
  3022     06E3  2EE5               	goto	u2560
  3023     06E4                     u2561:
  3024     06E4  2EFF               	goto	l2771
  3025     06E5                     u2560:
  3026     06E5                     l2763:
  3027     06E5  0860               	movf	___fltol@exp1,w
  3028     06E6  3A80               	xorlw	128
  3029     06E7  3E97               	addlw	151
  3030     06E8  1803               	skipnc
  3031     06E9  2EEB               	goto	u2571
  3032     06EA  2EEC               	goto	u2570
  3033     06EB                     u2571:
  3034     06EB  2EED               	goto	l2769
  3035     06EC                     u2570:
  3036     06EC  2EB7               	goto	l2749
  3037     06ED                     l2769:
  3038     06ED  3001               	movlw	1
  3039     06EE                     u2585:
  3040     06EE  0021               	movlb	1	; select bank1
  3041     06EF  36B9               	lsrf	(___fltol@f1+3)^(0+128),f
  3042     06F0  0CB8               	rrf	(___fltol@f1+2)^(0+128),f
  3043     06F1  0CB7               	rrf	(___fltol@f1+1)^(0+128),f
  3044     06F2  0CB6               	rrf	___fltol@f1^(0+128),f
  3045     06F3  0B89               	decfsz	9,f
  3046     06F4  2EEE               	goto	u2585
  3047     06F5  3001               	movlw	1
  3048     06F6  00BA               	movwf	??___fltol^(0+128)
  3049     06F7  083A               	movf	??___fltol^(0+128),w
  3050     06F8  0020               	movlb	0	; select bank0
  3051     06F9  07E0               	addwf	___fltol@exp1,f
  3052     06FA  1D03               	btfss	3,2
  3053     06FB  2EFD               	goto	u2591
  3054     06FC  2EFE               	goto	u2590
  3055     06FD                     u2591:
  3056     06FD  2EED               	goto	l2769
  3057     06FE                     u2590:
  3058     06FE  2F16               	goto	l2779
  3059     06FF                     l2771:
  3060     06FF  3020               	movlw	32
  3061     0700  0260               	subwf	___fltol@exp1,w
  3062     0701  1C03               	skipc
  3063     0702  2F04               	goto	u2601
  3064     0703  2F05               	goto	u2600
  3065     0704                     u2601:
  3066     0704  2F11               	goto	l872
  3067     0705                     u2600:
  3068     0705  2EB7               	goto	l2749
  3069     0706                     l2777:
  3070     0706  3001               	movlw	1
  3071     0707                     u2615:
  3072     0707  0021               	movlb	1	; select bank1
  3073     0708  35B6               	lslf	___fltol@f1^(0+128),f
  3074     0709  0DB7               	rlf	(___fltol@f1+1)^(0+128),f
  3075     070A  0DB8               	rlf	(___fltol@f1+2)^(0+128),f
  3076     070B  0DB9               	rlf	(___fltol@f1+3)^(0+128),f
  3077     070C  0B89               	decfsz	9,f
  3078     070D  2F07               	goto	u2615
  3079     070E  3001               	movlw	1
  3080     070F  0020               	movlb	0	; select bank0
  3081     0710  02E0               	subwf	___fltol@exp1,f
  3082     0711                     l872:
  3083     0711  0860               	movf	___fltol@exp1,w
  3084     0712  1D03               	btfss	3,2
  3085     0713  2F15               	goto	u2621
  3086     0714  2F16               	goto	u2620
  3087     0715                     u2621:
  3088     0715  2F06               	goto	l2777
  3089     0716                     u2620:
  3090     0716                     l2779:
  3091     0716  085F               	movf	___fltol@sign1,w
  3092     0717  1903               	btfsc	3,2
  3093     0718  2F1A               	goto	u2631
  3094     0719  2F1B               	goto	u2630
  3095     071A                     u2631:
  3096     071A  2F27               	goto	l875
  3097     071B                     u2630:
  3098     071B                     l2781:
  3099     071B  0021               	movlb	1	; select bank1
  3100     071C  09B6               	comf	___fltol@f1^(0+128),f
  3101     071D  09B7               	comf	(___fltol@f1+1)^(0+128),f
  3102     071E  09B8               	comf	(___fltol@f1+2)^(0+128),f
  3103     071F  09B9               	comf	(___fltol@f1+3)^(0+128),f
  3104     0720  0AB6               	incf	___fltol@f1^(0+128),f
  3105     0721  1903               	skipnz
  3106     0722  0AB7               	incf	(___fltol@f1+1)^(0+128),f
  3107     0723  1903               	skipnz
  3108     0724  0AB8               	incf	(___fltol@f1+2)^(0+128),f
  3109     0725  1903               	skipnz
  3110     0726  0AB9               	incf	(___fltol@f1+3)^(0+128),f
  3111     0727                     l875:
  3112     0727                     l865:
  3113     0727  0008               	return
  3114     0728                     __end_of___fltol:
  3115                           
  3116                           	psect	text3
  3117     02A9                     __ptext3:	
  3118 ;; *************** function ___flmul *****************
  3119 ;; Defined at:
  3120 ;;		line 8 in file "C:\Program Files\Microchip\xc8\v2.45\pic\sources\c99\common\sprcmul.c"
  3121 ;; Parameters:    Size  Location     Type
  3122 ;;  b               4   21[BANK0 ] long 
  3123 ;;  a               4   25[BANK0 ] long 
  3124 ;; Auto vars:     Size  Location     Type
  3125 ;;  prod            4   41[BANK0 ] struct .
  3126 ;;  grs             4   35[BANK0 ] unsigned long 
  3127 ;;  temp            2   45[BANK0 ] struct .
  3128 ;;  bexp            1   40[BANK0 ] unsigned char 
  3129 ;;  aexp            1   39[BANK0 ] unsigned char 
  3130 ;;  sign            1   34[BANK0 ] unsigned char 
  3131 ;; Return value:  Size  Location     Type
  3132 ;;                  4   21[BANK0 ] unsigned char 
  3133 ;; Registers used:
  3134 ;;		wreg, status,2, status,0, pclath, cstack
  3135 ;; Tracked objects:
  3136 ;;		On entry : 0/0
  3137 ;;		On exit  : 0/0
  3138 ;;		Unchanged: 0/0
  3139 ;; Data sizes:     COMMON   BANK0   BANK1   BANK2   BANK3   BANK4
  3140 ;;      Params:         0       8       0       0       0       0
  3141 ;;      Locals:         0      13       0       0       0       0
  3142 ;;      Temps:          0       5       0       0       0       0
  3143 ;;      Totals:         0      26       0       0       0       0
  3144 ;;Total ram usage:       26 bytes
  3145 ;; Hardware stack levels used: 1
  3146 ;; Hardware stack levels required when called: 7
  3147 ;; This function calls:
  3148 ;;		__Umul8_16
  3149 ;; This function is called by:
  3150 ;;		_main
  3151 ;; This function uses a non-reentrant model
  3152 ;;
  3153                           
  3154     02A9                     ___flmul:	
  3155                           ;psect for function ___flmul
  3156                           
  3157     02A9                     l2497:	
  3158                           ;incstack = 0
  3159                           ; Regs used in ___flmul: [wreg+status,2+status,0+pclath+cstack]
  3160                           
  3161     02A9  0020               	movlb	0	; select bank0
  3162     02AA  0838               	movf	___flmul@b+3,w
  3163     02AB  3980               	andlw	128
  3164     02AC  00C2               	movwf	___flmul@sign
  3165     02AD                     l2499:
  3166     02AD  3538               	lslf	___flmul@b+3,w
  3167     02AE  00C8               	movwf	___flmul@bexp
  3168     02AF                     l2501:
  3169     02AF  1FB7               	btfss	___flmul@b+2,7
  3170     02B0  2AB2               	goto	u2051
  3171     02B1  2AB3               	goto	u2050
  3172     02B2                     u2051:
  3173     02B2  2AB4               	goto	l2505
  3174     02B3                     u2050:
  3175     02B3                     l2503:
  3176     02B3  1448               	bsf	___flmul@bexp,0
  3177     02B4                     l2505:
  3178     02B4  0848               	movf	___flmul@bexp,w
  3179     02B5  1903               	btfsc	3,2
  3180     02B6  2AB8               	goto	u2061
  3181     02B7  2AB9               	goto	u2060
  3182     02B8                     u2061:
  3183     02B8  2AC8               	goto	l2513
  3184     02B9                     u2060:
  3185     02B9                     l2507:
  3186     02B9  0A48               	incf	___flmul@bexp,w
  3187     02BA  1D03               	btfss	3,2
  3188     02BB  2ABD               	goto	u2071
  3189     02BC  2ABE               	goto	u2070
  3190     02BD                     u2071:
  3191     02BD  2AC6               	goto	l2511
  3192     02BE                     u2070:
  3193     02BE                     l2509:
  3194     02BE  3000               	movlw	0
  3195     02BF  00B8               	movwf	___flmul@b+3
  3196     02C0  3000               	movlw	0
  3197     02C1  00B7               	movwf	___flmul@b+2
  3198     02C2  3000               	movlw	0
  3199     02C3  00B6               	movwf	___flmul@b+1
  3200     02C4  3000               	movlw	0
  3201     02C5  00B5               	movwf	___flmul@b
  3202     02C6                     l2511:
  3203     02C6  17B7               	bsf	___flmul@b+2,7
  3204     02C7  2AD0               	goto	l2515
  3205     02C8                     l2513:
  3206     02C8  3000               	movlw	0
  3207     02C9  00B8               	movwf	___flmul@b+3
  3208     02CA  3000               	movlw	0
  3209     02CB  00B7               	movwf	___flmul@b+2
  3210     02CC  3000               	movlw	0
  3211     02CD  00B6               	movwf	___flmul@b+1
  3212     02CE  3000               	movlw	0
  3213     02CF  00B5               	movwf	___flmul@b
  3214     02D0                     l2515:
  3215     02D0  083C               	movf	___flmul@a+3,w
  3216     02D1  3980               	andlw	128
  3217     02D2  00BD               	movwf	??___flmul
  3218     02D3  083D               	movf	??___flmul,w
  3219     02D4  06C2               	xorwf	___flmul@sign,f
  3220     02D5                     l2517:
  3221     02D5  353C               	lslf	___flmul@a+3,w
  3222     02D6  00C7               	movwf	___flmul@aexp
  3223     02D7                     l2519:
  3224     02D7  1FBB               	btfss	___flmul@a+2,7
  3225     02D8  2ADA               	goto	u2081
  3226     02D9  2ADB               	goto	u2080
  3227     02DA                     u2081:
  3228     02DA  2ADC               	goto	l2523
  3229     02DB                     u2080:
  3230     02DB                     l2521:
  3231     02DB  1447               	bsf	___flmul@aexp,0
  3232     02DC                     l2523:
  3233     02DC  0847               	movf	___flmul@aexp,w
  3234     02DD  1903               	btfsc	3,2
  3235     02DE  2AE0               	goto	u2091
  3236     02DF  2AE1               	goto	u2090
  3237     02E0                     u2091:
  3238     02E0  2AF0               	goto	l2531
  3239     02E1                     u2090:
  3240     02E1                     l2525:
  3241     02E1  0A47               	incf	___flmul@aexp,w
  3242     02E2  1D03               	btfss	3,2
  3243     02E3  2AE5               	goto	u2101
  3244     02E4  2AE6               	goto	u2100
  3245     02E5                     u2101:
  3246     02E5  2AEE               	goto	l2529
  3247     02E6                     u2100:
  3248     02E6                     l2527:
  3249     02E6  3000               	movlw	0
  3250     02E7  00BC               	movwf	___flmul@a+3
  3251     02E8  3000               	movlw	0
  3252     02E9  00BB               	movwf	___flmul@a+2
  3253     02EA  3000               	movlw	0
  3254     02EB  00BA               	movwf	___flmul@a+1
  3255     02EC  3000               	movlw	0
  3256     02ED  00B9               	movwf	___flmul@a
  3257     02EE                     l2529:
  3258     02EE  17BB               	bsf	___flmul@a+2,7
  3259     02EF  2AF8               	goto	l2533
  3260     02F0                     l2531:
  3261     02F0  3000               	movlw	0
  3262     02F1  00BC               	movwf	___flmul@a+3
  3263     02F2  3000               	movlw	0
  3264     02F3  00BB               	movwf	___flmul@a+2
  3265     02F4  3000               	movlw	0
  3266     02F5  00BA               	movwf	___flmul@a+1
  3267     02F6  3000               	movlw	0
  3268     02F7  00B9               	movwf	___flmul@a
  3269     02F8                     l2533:
  3270     02F8  0847               	movf	___flmul@aexp,w
  3271     02F9  1903               	btfsc	3,2
  3272     02FA  2AFC               	goto	u2111
  3273     02FB  2AFD               	goto	u2110
  3274     02FC                     u2111:
  3275     02FC  2B02               	goto	l2537
  3276     02FD                     u2110:
  3277     02FD                     l2535:
  3278     02FD  0848               	movf	___flmul@bexp,w
  3279     02FE  1D03               	btfss	3,2
  3280     02FF  2B01               	goto	u2121
  3281     0300  2B02               	goto	u2120
  3282     0301                     u2121:
  3283     0301  2B0B               	goto	l2541
  3284     0302                     u2120:
  3285     0302                     l2537:
  3286     0302  3000               	movlw	0
  3287     0303  00B8               	movwf	?___flmul+3
  3288     0304  3000               	movlw	0
  3289     0305  00B7               	movwf	?___flmul+2
  3290     0306  3000               	movlw	0
  3291     0307  00B6               	movwf	?___flmul+1
  3292     0308  3000               	movlw	0
  3293     0309  00B5               	movwf	?___flmul
  3294     030A  2CE3               	goto	l1068
  3295     030B                     l2541:
  3296     030B  0835               	movf	___flmul@b,w
  3297     030C  00A7               	movwf	__Umul8_16@multiplicand
  3298     030D  083B               	movf	___flmul@a+2,w
  3299     030E  318F  27DC  3182   	fcall	__Umul8_16
  3300     0311  0020               	movlb	0	; select bank0
  3301     0312  0828               	movf	?__Umul8_16+1,w
  3302     0313  00CE               	movwf	___flmul@temp+1
  3303     0314  0827               	movf	?__Umul8_16,w
  3304     0315  00CD               	movwf	___flmul@temp
  3305     0316                     l2543:
  3306     0316  084D               	movf	___flmul@temp,w
  3307     0317  00BD               	movwf	??___flmul
  3308     0318  01BE               	clrf	??___flmul+1
  3309     0319  01BF               	clrf	??___flmul+2
  3310     031A  01C0               	clrf	??___flmul+3
  3311     031B  0840               	movf	??___flmul+3,w
  3312     031C  00C6               	movwf	___flmul@grs+3
  3313     031D  083F               	movf	??___flmul+2,w
  3314     031E  00C5               	movwf	___flmul@grs+2
  3315     031F  083E               	movf	??___flmul+1,w
  3316     0320  00C4               	movwf	___flmul@grs+1
  3317     0321  083D               	movf	??___flmul,w
  3318     0322  00C3               	movwf	___flmul@grs
  3319     0323                     l2545:
  3320     0323  084E               	movf	___flmul@temp+1,w
  3321     0324  00BD               	movwf	??___flmul
  3322     0325  01BE               	clrf	??___flmul+1
  3323     0326  01BF               	clrf	??___flmul+2
  3324     0327  01C0               	clrf	??___flmul+3
  3325     0328  0840               	movf	??___flmul+3,w
  3326     0329  00CC               	movwf	___flmul@prod+3
  3327     032A  083F               	movf	??___flmul+2,w
  3328     032B  00CB               	movwf	___flmul@prod+2
  3329     032C  083E               	movf	??___flmul+1,w
  3330     032D  00CA               	movwf	___flmul@prod+1
  3331     032E  083D               	movf	??___flmul,w
  3332     032F  00C9               	movwf	___flmul@prod
  3333     0330  0836               	movf	___flmul@b+1,w
  3334     0331  00A7               	movwf	__Umul8_16@multiplicand
  3335     0332  083A               	movf	___flmul@a+1,w
  3336     0333  318F  27DC  3182   	fcall	__Umul8_16
  3337     0336  0020               	movlb	0	; select bank0
  3338     0337  0828               	movf	?__Umul8_16+1,w
  3339     0338  00CE               	movwf	___flmul@temp+1
  3340     0339  0827               	movf	?__Umul8_16,w
  3341     033A  00CD               	movwf	___flmul@temp
  3342     033B                     l2547:
  3343     033B  084D               	movf	___flmul@temp,w
  3344     033C  00BD               	movwf	??___flmul
  3345     033D  01BE               	clrf	??___flmul+1
  3346     033E  01BF               	clrf	??___flmul+2
  3347     033F  01C0               	clrf	??___flmul+3
  3348     0340  083D               	movf	??___flmul,w
  3349     0341  07C3               	addwf	___flmul@grs,f
  3350     0342  083E               	movf	??___flmul+1,w
  3351     0343  3DC4               	addwfc	___flmul@grs+1,f
  3352     0344  083F               	movf	??___flmul+2,w
  3353     0345  3DC5               	addwfc	___flmul@grs+2,f
  3354     0346  0840               	movf	??___flmul+3,w
  3355     0347  3DC6               	addwfc	___flmul@grs+3,f
  3356     0348                     l2549:
  3357     0348  084E               	movf	___flmul@temp+1,w
  3358     0349  00BD               	movwf	??___flmul
  3359     034A  01BE               	clrf	??___flmul+1
  3360     034B  01BF               	clrf	??___flmul+2
  3361     034C  01C0               	clrf	??___flmul+3
  3362     034D  083D               	movf	??___flmul,w
  3363     034E  07C9               	addwf	___flmul@prod,f
  3364     034F  083E               	movf	??___flmul+1,w
  3365     0350  3DCA               	addwfc	___flmul@prod+1,f
  3366     0351  083F               	movf	??___flmul+2,w
  3367     0352  3DCB               	addwfc	___flmul@prod+2,f
  3368     0353  0840               	movf	??___flmul+3,w
  3369     0354  3DCC               	addwfc	___flmul@prod+3,f
  3370     0355  0837               	movf	___flmul@b+2,w
  3371     0356  00A7               	movwf	__Umul8_16@multiplicand
  3372     0357  0839               	movf	___flmul@a,w
  3373     0358  318F  27DC  3182   	fcall	__Umul8_16
  3374     035B  0020               	movlb	0	; select bank0
  3375     035C  0828               	movf	?__Umul8_16+1,w
  3376     035D  00CE               	movwf	___flmul@temp+1
  3377     035E  0827               	movf	?__Umul8_16,w
  3378     035F  00CD               	movwf	___flmul@temp
  3379     0360                     l2551:
  3380     0360  084D               	movf	___flmul@temp,w
  3381     0361  00BD               	movwf	??___flmul
  3382     0362  01BE               	clrf	??___flmul+1
  3383     0363  01BF               	clrf	??___flmul+2
  3384     0364  01C0               	clrf	??___flmul+3
  3385     0365  083D               	movf	??___flmul,w
  3386     0366  07C3               	addwf	___flmul@grs,f
  3387     0367  083E               	movf	??___flmul+1,w
  3388     0368  3DC4               	addwfc	___flmul@grs+1,f
  3389     0369  083F               	movf	??___flmul+2,w
  3390     036A  3DC5               	addwfc	___flmul@grs+2,f
  3391     036B  0840               	movf	??___flmul+3,w
  3392     036C  3DC6               	addwfc	___flmul@grs+3,f
  3393     036D                     l2553:
  3394     036D  084E               	movf	___flmul@temp+1,w
  3395     036E  00BD               	movwf	??___flmul
  3396     036F  01BE               	clrf	??___flmul+1
  3397     0370  01BF               	clrf	??___flmul+2
  3398     0371  01C0               	clrf	??___flmul+3
  3399     0372  083D               	movf	??___flmul,w
  3400     0373  07C9               	addwf	___flmul@prod,f
  3401     0374  083E               	movf	??___flmul+1,w
  3402     0375  3DCA               	addwfc	___flmul@prod+1,f
  3403     0376  083F               	movf	??___flmul+2,w
  3404     0377  3DCB               	addwfc	___flmul@prod+2,f
  3405     0378  0840               	movf	??___flmul+3,w
  3406     0379  3DCC               	addwfc	___flmul@prod+3,f
  3407     037A                     l2555:
  3408     037A  3008               	movlw	8
  3409     037B                     u2135:
  3410     037B  35C3               	lslf	___flmul@grs,f
  3411     037C  0DC4               	rlf	___flmul@grs+1,f
  3412     037D  0DC5               	rlf	___flmul@grs+2,f
  3413     037E  0DC6               	rlf	___flmul@grs+3,f
  3414     037F  0B89               	decfsz	9,f
  3415     0380  2B7B               	goto	u2135
  3416     0381                     l2557:
  3417     0381  0836               	movf	___flmul@b+1,w
  3418     0382  00A7               	movwf	__Umul8_16@multiplicand
  3419     0383  0839               	movf	___flmul@a,w
  3420     0384  318F  27DC  3182   	fcall	__Umul8_16
  3421     0387  0020               	movlb	0	; select bank0
  3422     0388  0828               	movf	?__Umul8_16+1,w
  3423     0389  00CE               	movwf	___flmul@temp+1
  3424     038A  0827               	movf	?__Umul8_16,w
  3425     038B  00CD               	movwf	___flmul@temp
  3426     038C                     l2559:
  3427     038C  084D               	movf	___flmul@temp,w
  3428     038D  07C3               	addwf	___flmul@grs,f
  3429     038E  084E               	movf	___flmul@temp+1,w
  3430     038F  3DC4               	addwfc	___flmul@grs+1,f
  3431     0390  3000               	movlw	0
  3432     0391  3DC5               	addwfc	___flmul@grs+2,f
  3433     0392  3DC6               	addwfc	___flmul@grs+3,f
  3434     0393                     l2561:
  3435     0393  0835               	movf	___flmul@b,w
  3436     0394  00A7               	movwf	__Umul8_16@multiplicand
  3437     0395  083A               	movf	___flmul@a+1,w
  3438     0396  318F  27DC  3182   	fcall	__Umul8_16
  3439     0399  0020               	movlb	0	; select bank0
  3440     039A  0828               	movf	?__Umul8_16+1,w
  3441     039B  00CE               	movwf	___flmul@temp+1
  3442     039C  0827               	movf	?__Umul8_16,w
  3443     039D  00CD               	movwf	___flmul@temp
  3444     039E                     l2563:
  3445     039E  084D               	movf	___flmul@temp,w
  3446     039F  07C3               	addwf	___flmul@grs,f
  3447     03A0  084E               	movf	___flmul@temp+1,w
  3448     03A1  3DC4               	addwfc	___flmul@grs+1,f
  3449     03A2  3000               	movlw	0
  3450     03A3  3DC5               	addwfc	___flmul@grs+2,f
  3451     03A4  3DC6               	addwfc	___flmul@grs+3,f
  3452     03A5                     l2565:
  3453     03A5  3008               	movlw	8
  3454     03A6                     u2145:
  3455     03A6  35C3               	lslf	___flmul@grs,f
  3456     03A7  0DC4               	rlf	___flmul@grs+1,f
  3457     03A8  0DC5               	rlf	___flmul@grs+2,f
  3458     03A9  0DC6               	rlf	___flmul@grs+3,f
  3459     03AA  0B89               	decfsz	9,f
  3460     03AB  2BA6               	goto	u2145
  3461     03AC  0835               	movf	___flmul@b,w
  3462     03AD  00A7               	movwf	__Umul8_16@multiplicand
  3463     03AE  0839               	movf	___flmul@a,w
  3464     03AF  318F  27DC  3182   	fcall	__Umul8_16
  3465     03B2  0020               	movlb	0	; select bank0
  3466     03B3  0828               	movf	?__Umul8_16+1,w
  3467     03B4  00CE               	movwf	___flmul@temp+1
  3468     03B5  0827               	movf	?__Umul8_16,w
  3469     03B6  00CD               	movwf	___flmul@temp
  3470     03B7                     l2567:
  3471     03B7  084D               	movf	___flmul@temp,w
  3472     03B8  07C3               	addwf	___flmul@grs,f
  3473     03B9  084E               	movf	___flmul@temp+1,w
  3474     03BA  3DC4               	addwfc	___flmul@grs+1,f
  3475     03BB  3000               	movlw	0
  3476     03BC  3DC5               	addwfc	___flmul@grs+2,f
  3477     03BD  3DC6               	addwfc	___flmul@grs+3,f
  3478     03BE                     l2569:
  3479     03BE  0836               	movf	___flmul@b+1,w
  3480     03BF  00A7               	movwf	__Umul8_16@multiplicand
  3481     03C0  083B               	movf	___flmul@a+2,w
  3482     03C1  318F  27DC  3182   	fcall	__Umul8_16
  3483     03C4  0020               	movlb	0	; select bank0
  3484     03C5  0828               	movf	?__Umul8_16+1,w
  3485     03C6  00CE               	movwf	___flmul@temp+1
  3486     03C7  0827               	movf	?__Umul8_16,w
  3487     03C8  00CD               	movwf	___flmul@temp
  3488     03C9  084D               	movf	___flmul@temp,w
  3489     03CA  07C9               	addwf	___flmul@prod,f
  3490     03CB  084E               	movf	___flmul@temp+1,w
  3491     03CC  3DCA               	addwfc	___flmul@prod+1,f
  3492     03CD  3000               	movlw	0
  3493     03CE  3DCB               	addwfc	___flmul@prod+2,f
  3494     03CF  3DCC               	addwfc	___flmul@prod+3,f
  3495     03D0                     l2571:
  3496     03D0  0837               	movf	___flmul@b+2,w
  3497     03D1  00A7               	movwf	__Umul8_16@multiplicand
  3498     03D2  083A               	movf	___flmul@a+1,w
  3499     03D3  318F  27DC  3182   	fcall	__Umul8_16
  3500     03D6  0020               	movlb	0	; select bank0
  3501     03D7  0828               	movf	?__Umul8_16+1,w
  3502     03D8  00CE               	movwf	___flmul@temp+1
  3503     03D9  0827               	movf	?__Umul8_16,w
  3504     03DA  00CD               	movwf	___flmul@temp
  3505     03DB                     l2573:
  3506     03DB  084D               	movf	___flmul@temp,w
  3507     03DC  07C9               	addwf	___flmul@prod,f
  3508     03DD  084E               	movf	___flmul@temp+1,w
  3509     03DE  3DCA               	addwfc	___flmul@prod+1,f
  3510     03DF  3000               	movlw	0
  3511     03E0  3DCB               	addwfc	___flmul@prod+2,f
  3512     03E1  3DCC               	addwfc	___flmul@prod+3,f
  3513     03E2  0837               	movf	___flmul@b+2,w
  3514     03E3  00A7               	movwf	__Umul8_16@multiplicand
  3515     03E4  083B               	movf	___flmul@a+2,w
  3516     03E5  318F  27DC  3182   	fcall	__Umul8_16
  3517     03E8  0020               	movlb	0	; select bank0
  3518     03E9  0828               	movf	?__Umul8_16+1,w
  3519     03EA  00CE               	movwf	___flmul@temp+1
  3520     03EB  0827               	movf	?__Umul8_16,w
  3521     03EC  00CD               	movwf	___flmul@temp
  3522     03ED                     l2575:
  3523     03ED  084D               	movf	___flmul@temp,w
  3524     03EE  00BD               	movwf	??___flmul
  3525     03EF  084E               	movf	___flmul@temp+1,w
  3526     03F0  00BE               	movwf	??___flmul+1
  3527     03F1  01BF               	clrf	??___flmul+2
  3528     03F2  01C0               	clrf	??___flmul+3
  3529     03F3  3008               	movlw	8
  3530     03F4                     u2155:
  3531     03F4  35BD               	lslf	??___flmul,f
  3532     03F5  0DBE               	rlf	??___flmul+1,f
  3533     03F6  0DBF               	rlf	??___flmul+2,f
  3534     03F7  0DC0               	rlf	??___flmul+3,f
  3535     03F8                     u2150:
  3536     03F8  0B89               	decfsz	9,f
  3537     03F9  2BF4               	goto	u2155
  3538     03FA  083D               	movf	??___flmul,w
  3539     03FB  07C9               	addwf	___flmul@prod,f
  3540     03FC  083E               	movf	??___flmul+1,w
  3541     03FD  3DCA               	addwfc	___flmul@prod+1,f
  3542     03FE  083F               	movf	??___flmul+2,w
  3543     03FF  3DCB               	addwfc	___flmul@prod+2,f
  3544     0400  0840               	movf	??___flmul+3,w
  3545     0401  3DCC               	addwfc	___flmul@prod+3,f
  3546     0402                     l2577:
  3547     0402  0843               	movf	___flmul@grs,w
  3548     0403  00BD               	movwf	??___flmul
  3549     0404  0844               	movf	___flmul@grs+1,w
  3550     0405  00BE               	movwf	??___flmul+1
  3551     0406  0845               	movf	___flmul@grs+2,w
  3552     0407  00BF               	movwf	??___flmul+2
  3553     0408  0846               	movf	___flmul@grs+3,w
  3554     0409  00C0               	movwf	??___flmul+3
  3555     040A  3018               	movlw	24
  3556     040B                     u2165:
  3557     040B  36C0               	lsrf	??___flmul+3,f
  3558     040C  0CBF               	rrf	??___flmul+2,f
  3559     040D  0CBE               	rrf	??___flmul+1,f
  3560     040E  0CBD               	rrf	??___flmul,f
  3561     040F                     u2160:
  3562     040F  0B89               	decfsz	9,f
  3563     0410  2C0B               	goto	u2165
  3564     0411  083D               	movf	??___flmul,w
  3565     0412  07C9               	addwf	___flmul@prod,f
  3566     0413  083E               	movf	??___flmul+1,w
  3567     0414  3DCA               	addwfc	___flmul@prod+1,f
  3568     0415  083F               	movf	??___flmul+2,w
  3569     0416  3DCB               	addwfc	___flmul@prod+2,f
  3570     0417  0840               	movf	??___flmul+3,w
  3571     0418  3DCC               	addwfc	___flmul@prod+3,f
  3572     0419                     l2579:
  3573     0419  3008               	movlw	8
  3574     041A                     u2175:
  3575     041A  35C3               	lslf	___flmul@grs,f
  3576     041B  0DC4               	rlf	___flmul@grs+1,f
  3577     041C  0DC5               	rlf	___flmul@grs+2,f
  3578     041D  0DC6               	rlf	___flmul@grs+3,f
  3579     041E  0B89               	decfsz	9,f
  3580     041F  2C1A               	goto	u2175
  3581     0420                     l2581:
  3582     0420  0848               	movf	___flmul@bexp,w
  3583     0421  0747               	addwf	___flmul@aexp,w
  3584     0422  00BD               	movwf	??___flmul
  3585     0423  01BE               	clrf	??___flmul+1
  3586     0424  0DBE               	rlf	??___flmul+1,f
  3587     0425  083D               	movf	??___flmul,w
  3588     0426  3E82               	addlw	130
  3589     0427  00CD               	movwf	___flmul@temp
  3590     0428  30FF               	movlw	255
  3591     0429  3D3E               	addwfc	??___flmul+1,w
  3592     042A  00CE               	movwf	___flmul@temp+1
  3593     042B  2C43               	goto	l2593
  3594     042C                     l2583:
  3595     042C  3001               	movlw	1
  3596     042D                     u2185:
  3597     042D  35C9               	lslf	___flmul@prod,f
  3598     042E  0DCA               	rlf	___flmul@prod+1,f
  3599     042F  0DCB               	rlf	___flmul@prod+2,f
  3600     0430  0DCC               	rlf	___flmul@prod+3,f
  3601     0431  0B89               	decfsz	9,f
  3602     0432  2C2D               	goto	u2185
  3603     0433                     l2585:
  3604     0433  1FC6               	btfss	___flmul@grs+3,7
  3605     0434  2C36               	goto	u2191
  3606     0435  2C37               	goto	u2190
  3607     0436                     u2191:
  3608     0436  2C38               	goto	l2589
  3609     0437                     u2190:
  3610     0437                     l2587:
  3611     0437  1449               	bsf	___flmul@prod,0
  3612     0438                     l2589:
  3613     0438  3001               	movlw	1
  3614     0439                     u2205:
  3615     0439  35C3               	lslf	___flmul@grs,f
  3616     043A  0DC4               	rlf	___flmul@grs+1,f
  3617     043B  0DC5               	rlf	___flmul@grs+2,f
  3618     043C  0DC6               	rlf	___flmul@grs+3,f
  3619     043D  0B89               	decfsz	9,f
  3620     043E  2C39               	goto	u2205
  3621     043F                     l2591:
  3622     043F  30FF               	movlw	255
  3623     0440  07CD               	addwf	___flmul@temp,f
  3624     0441  30FF               	movlw	255
  3625     0442  3DCE               	addwfc	___flmul@temp+1,f
  3626     0443                     l2593:
  3627     0443  1FCB               	btfss	___flmul@prod+2,7
  3628     0444  2C46               	goto	u2211
  3629     0445  2C47               	goto	u2210
  3630     0446                     u2211:
  3631     0446  2C2C               	goto	l2583
  3632     0447                     u2210:
  3633     0447                     l2595:
  3634     0447  01C7               	clrf	___flmul@aexp
  3635     0448                     l2597:
  3636     0448  1FC6               	btfss	___flmul@grs+3,7
  3637     0449  2C4B               	goto	u2221
  3638     044A  2C4C               	goto	u2220
  3639     044B                     u2221:
  3640     044B  2C68               	goto	l2605
  3641     044C                     u2220:
  3642     044C                     l2599:
  3643     044C  30FF               	movlw	255
  3644     044D  0543               	andwf	___flmul@grs,w
  3645     044E  00BD               	movwf	??___flmul
  3646     044F  30FF               	movlw	255
  3647     0450  0544               	andwf	___flmul@grs+1,w
  3648     0451  00BE               	movwf	??___flmul+1
  3649     0452  30FF               	movlw	255
  3650     0453  0545               	andwf	___flmul@grs+2,w
  3651     0454  00BF               	movwf	??___flmul+2
  3652     0455  307F               	movlw	127
  3653     0456  0546               	andwf	___flmul@grs+3,w
  3654     0457  00C0               	movwf	??___flmul+3
  3655     0458  0840               	movf	??___flmul+3,w
  3656     0459  043F               	iorwf	??___flmul+2,w
  3657     045A  043E               	iorwf	??___flmul+1,w
  3658     045B  043D               	iorwf	??___flmul,w
  3659     045C  1903               	skipnz
  3660     045D  2C5F               	goto	u2231
  3661     045E  2C60               	goto	u2230
  3662     045F                     u2231:
  3663     045F  2C63               	goto	l1074
  3664     0460                     u2230:
  3665     0460                     l2601:
  3666     0460  01C7               	clrf	___flmul@aexp
  3667     0461  0AC7               	incf	___flmul@aexp,f
  3668     0462  2C68               	goto	l2605
  3669     0463                     l1074:
  3670     0463  1C49               	btfss	___flmul@prod,0
  3671     0464  2C66               	goto	u2241
  3672     0465  2C67               	goto	u2240
  3673     0466                     u2241:
  3674     0466  2C68               	goto	l2605
  3675     0467                     u2240:
  3676     0467  2C60               	goto	l2601
  3677     0468                     l2605:
  3678     0468  0847               	movf	___flmul@aexp,w
  3679     0469  1903               	btfsc	3,2
  3680     046A  2C6C               	goto	u2251
  3681     046B  2C6D               	goto	u2250
  3682     046C                     u2251:
  3683     046C  2C95               	goto	l2615
  3684     046D                     u2250:
  3685     046D                     l2607:
  3686     046D  3001               	movlw	1
  3687     046E  07C9               	addwf	___flmul@prod,f
  3688     046F  3000               	movlw	0
  3689     0470  3DCA               	addwfc	___flmul@prod+1,f
  3690     0471  3000               	movlw	0
  3691     0472  3DCB               	addwfc	___flmul@prod+2,f
  3692     0473  3000               	movlw	0
  3693     0474  3DCC               	addwfc	___flmul@prod+3,f
  3694     0475                     l2609:
  3695     0475  1C4C               	btfss	___flmul@prod+3,0
  3696     0476  2C78               	goto	u2261
  3697     0477  2C79               	goto	u2260
  3698     0478                     u2261:
  3699     0478  2C95               	goto	l2615
  3700     0479                     u2260:
  3701     0479                     l2611:
  3702     0479  0849               	movf	___flmul@prod,w
  3703     047A  00BD               	movwf	??___flmul
  3704     047B  084A               	movf	___flmul@prod+1,w
  3705     047C  00BE               	movwf	??___flmul+1
  3706     047D  084B               	movf	___flmul@prod+2,w
  3707     047E  00BF               	movwf	??___flmul+2
  3708     047F  084C               	movf	___flmul@prod+3,w
  3709     0480  00C0               	movwf	??___flmul+3
  3710     0481  3001               	movlw	1
  3711     0482  00C1               	movwf	??___flmul+4
  3712     0483                     u2275:
  3713     0483  37C0               	asrf	??___flmul+3,f
  3714     0484  0CBF               	rrf	??___flmul+2,f
  3715     0485  0CBE               	rrf	??___flmul+1,f
  3716     0486  0CBD               	rrf	??___flmul,f
  3717     0487                     u2270:
  3718     0487  0BC1               	decfsz	??___flmul+4,f
  3719     0488  2C83               	goto	u2275
  3720     0489  0840               	movf	??___flmul+3,w
  3721     048A  00CC               	movwf	___flmul@prod+3
  3722     048B  083F               	movf	??___flmul+2,w
  3723     048C  00CB               	movwf	___flmul@prod+2
  3724     048D  083E               	movf	??___flmul+1,w
  3725     048E  00CA               	movwf	___flmul@prod+1
  3726     048F  083D               	movf	??___flmul,w
  3727     0490  00C9               	movwf	___flmul@prod
  3728     0491                     l2613:
  3729     0491  3001               	movlw	1
  3730     0492  07CD               	addwf	___flmul@temp,f
  3731     0493  3000               	movlw	0
  3732     0494  3DCE               	addwfc	___flmul@temp+1,f
  3733     0495                     l2615:
  3734     0495  084E               	movf	___flmul@temp+1,w
  3735     0496  3A80               	xorlw	128
  3736     0497  00BD               	movwf	??___flmul
  3737     0498  3080               	movlw	128
  3738     0499  023D               	subwf	??___flmul,w
  3739     049A  1D03               	skipz
  3740     049B  2C9E               	goto	u2285
  3741     049C  30FF               	movlw	255
  3742     049D  024D               	subwf	___flmul@temp,w
  3743     049E                     u2285:
  3744     049E  1C03               	skipc
  3745     049F  2CA1               	goto	u2281
  3746     04A0  2CA2               	goto	u2280
  3747     04A1                     u2281:
  3748     04A1  2CAC               	goto	l2619
  3749     04A2                     u2280:
  3750     04A2                     l2617:
  3751     04A2  307F               	movlw	127
  3752     04A3  0020               	movlb	0	; select bank0
  3753     04A4  00CC               	movwf	___flmul@prod+3
  3754     04A5  3080               	movlw	128
  3755     04A6  00CB               	movwf	___flmul@prod+2
  3756     04A7  3000               	movlw	0
  3757     04A8  00CA               	movwf	___flmul@prod+1
  3758     04A9  3000               	movlw	0
  3759     04AA  00C9               	movwf	___flmul@prod
  3760     04AB  2CD7               	goto	l1080
  3761     04AC                     l2619:
  3762     04AC  0020               	movlb	0	; select bank0
  3763     04AD  084E               	movf	___flmul@temp+1,w
  3764     04AE  3A80               	xorlw	128
  3765     04AF  00BD               	movwf	??___flmul
  3766     04B0  3080               	movlw	128
  3767     04B1  023D               	subwf	??___flmul,w
  3768     04B2  1D03               	skipz
  3769     04B3  2CB6               	goto	u2295
  3770     04B4  3001               	movlw	1
  3771     04B5  024D               	subwf	___flmul@temp,w
  3772     04B6                     u2295:
  3773     04B6  1803               	skipnc
  3774     04B7  2CB9               	goto	u2291
  3775     04B8  2CBA               	goto	u2290
  3776     04B9                     u2291:
  3777     04B9  2CC5               	goto	l2625
  3778     04BA                     u2290:
  3779     04BA                     l2621:
  3780     04BA  3000               	movlw	0
  3781     04BB  0020               	movlb	0	; select bank0
  3782     04BC  00CC               	movwf	___flmul@prod+3
  3783     04BD  3000               	movlw	0
  3784     04BE  00CB               	movwf	___flmul@prod+2
  3785     04BF  3000               	movlw	0
  3786     04C0  00CA               	movwf	___flmul@prod+1
  3787     04C1  3000               	movlw	0
  3788     04C2  00C9               	movwf	___flmul@prod
  3789     04C3                     l2623:
  3790     04C3  01C2               	clrf	___flmul@sign
  3791     04C4  2CD7               	goto	l1080
  3792     04C5                     l2625:
  3793     04C5  0020               	movlb	0	; select bank0
  3794     04C6  084D               	movf	___flmul@temp,w
  3795     04C7  00C8               	movwf	___flmul@bexp
  3796     04C8  30FF               	movlw	255
  3797     04C9  05C9               	andwf	___flmul@prod,f
  3798     04CA  30FF               	movlw	255
  3799     04CB  05CA               	andwf	___flmul@prod+1,f
  3800     04CC  307F               	movlw	127
  3801     04CD  05CB               	andwf	___flmul@prod+2,f
  3802     04CE  3000               	movlw	0
  3803     04CF  05CC               	andwf	___flmul@prod+3,f
  3804     04D0                     l2627:
  3805     04D0  1C48               	btfss	___flmul@bexp,0
  3806     04D1  2CD3               	goto	u2301
  3807     04D2  2CD4               	goto	u2300
  3808     04D3                     u2301:
  3809     04D3  2CD5               	goto	l2631
  3810     04D4                     u2300:
  3811     04D4                     l2629:
  3812     04D4  17CB               	bsf	___flmul@prod+2,7
  3813     04D5                     l2631:
  3814     04D5  3648               	lsrf	___flmul@bexp,w
  3815     04D6  00CC               	movwf	___flmul@prod+3
  3816     04D7                     l1080:
  3817     04D7  0842               	movf	___flmul@sign,w
  3818     04D8  00BD               	movwf	??___flmul
  3819     04D9  083D               	movf	??___flmul,w
  3820     04DA  04CC               	iorwf	___flmul@prod+3,f
  3821     04DB                     l2633:
  3822     04DB  084C               	movf	___flmul@prod+3,w
  3823     04DC  00B8               	movwf	?___flmul+3
  3824     04DD  084B               	movf	___flmul@prod+2,w
  3825     04DE  00B7               	movwf	?___flmul+2
  3826     04DF  084A               	movf	___flmul@prod+1,w
  3827     04E0  00B6               	movwf	?___flmul+1
  3828     04E1  0849               	movf	___flmul@prod,w
  3829     04E2  00B5               	movwf	?___flmul
  3830     04E3                     l1068:
  3831     04E3  0008               	return
  3832     04E4                     __end_of___flmul:
  3833                           
  3834                           	psect	text4
  3835     0FDC                     __ptext4:	
  3836 ;; *************** function __Umul8_16 *****************
  3837 ;; Defined at:
  3838 ;;		line 4 in file "C:\Program Files\Microchip\xc8\v2.45\pic\sources\c99\common\Umul8_16.c"
  3839 ;; Parameters:    Size  Location     Type
  3840 ;;  multiplier      1    wreg     unsigned char 
  3841 ;;  multiplicand    1    7[BANK0 ] unsigned char 
  3842 ;; Auto vars:     Size  Location     Type
  3843 ;;  multiplier      1   15[BANK0 ] unsigned char 
  3844 ;;  word_mpld       2   13[BANK0 ] unsigned short 
  3845 ;;  product         2   11[BANK0 ] unsigned short 
  3846 ;; Return value:  Size  Location     Type
  3847 ;;                  2    7[BANK0 ] unsigned int 
  3848 ;; Registers used:
  3849 ;;		wreg, status,2, status,0
  3850 ;; Tracked objects:
  3851 ;;		On entry : 0/0
  3852 ;;		On exit  : 0/0
  3853 ;;		Unchanged: 0/0
  3854 ;; Data sizes:     COMMON   BANK0   BANK1   BANK2   BANK3   BANK4
  3855 ;;      Params:         0       2       0       0       0       0
  3856 ;;      Locals:         0       5       0       0       0       0
  3857 ;;      Temps:          0       2       0       0       0       0
  3858 ;;      Totals:         0       9       0       0       0       0
  3859 ;;Total ram usage:        9 bytes
  3860 ;; Hardware stack levels used: 1
  3861 ;; Hardware stack levels required when called: 6
  3862 ;; This function calls:
  3863 ;;		Nothing
  3864 ;; This function is called by:
  3865 ;;		___flmul
  3866 ;; This function uses a non-reentrant model
  3867 ;;
  3868                           
  3869     0FDC                     __Umul8_16:	
  3870                           ;psect for function __Umul8_16
  3871                           
  3872                           
  3873                           ;incstack = 0
  3874                           ; Regs used in __Umul8_16: [wreg+status,2+status,0]
  3875                           ;__Umul8_16@multiplier stored from wreg
  3876     0FDC  0020               	movlb	0	; select bank0
  3877     0FDD  00AF               	movwf	__Umul8_16@multiplier
  3878     0FDE                     l2217:
  3879     0FDE  01AB               	clrf	__Umul8_16@product
  3880     0FDF  01AC               	clrf	__Umul8_16@product+1
  3881     0FE0                     l2219:
  3882     0FE0  0827               	movf	__Umul8_16@multiplicand,w
  3883     0FE1  00A9               	movwf	??__Umul8_16
  3884     0FE2  01AA               	clrf	??__Umul8_16+1
  3885     0FE3  0829               	movf	??__Umul8_16,w
  3886     0FE4  00AD               	movwf	__Umul8_16@word_mpld
  3887     0FE5  082A               	movf	??__Umul8_16+1,w
  3888     0FE6  00AE               	movwf	__Umul8_16@word_mpld+1
  3889     0FE7                     l2221:
  3890     0FE7  1C2F               	btfss	__Umul8_16@multiplier,0
  3891     0FE8  2FEA               	goto	u1441
  3892     0FE9  2FEB               	goto	u1440
  3893     0FEA                     u1441:
  3894     0FEA  2FEF               	goto	l1087
  3895     0FEB                     u1440:
  3896     0FEB                     l2223:
  3897     0FEB  082D               	movf	__Umul8_16@word_mpld,w
  3898     0FEC  07AB               	addwf	__Umul8_16@product,f
  3899     0FED  082E               	movf	__Umul8_16@word_mpld+1,w
  3900     0FEE  3DAC               	addwfc	__Umul8_16@product+1,f
  3901     0FEF                     l1087:
  3902     0FEF  3001               	movlw	1
  3903     0FF0                     u1455:
  3904     0FF0  35AD               	lslf	__Umul8_16@word_mpld,f
  3905     0FF1  0DAE               	rlf	__Umul8_16@word_mpld+1,f
  3906     0FF2  0B89               	decfsz	9,f
  3907     0FF3  2FF0               	goto	u1455
  3908     0FF4  1003               	clrc
  3909     0FF5  0CAF               	rrf	__Umul8_16@multiplier,f
  3910     0FF6                     l2225:
  3911     0FF6  082F               	movf	__Umul8_16@multiplier,w
  3912     0FF7  1D03               	btfss	3,2
  3913     0FF8  2FFA               	goto	u1461
  3914     0FF9  2FFB               	goto	u1460
  3915     0FFA                     u1461:
  3916     0FFA  2FE7               	goto	l2221
  3917     0FFB                     u1460:
  3918     0FFB                     l2227:
  3919     0FFB  082C               	movf	__Umul8_16@product+1,w
  3920     0FFC  00A8               	movwf	?__Umul8_16+1
  3921     0FFD  082B               	movf	__Umul8_16@product,w
  3922     0FFE  00A7               	movwf	?__Umul8_16
  3923     0FFF                     l1089:
  3924     0FFF  0008               	return
  3925     1000                     __end_of__Umul8_16:
  3926                           
  3927                           	psect	text5
  3928     004E                     __ptext5:	
  3929 ;; *************** function ___fladd *****************
  3930 ;; Defined at:
  3931 ;;		line 10 in file "C:\Program Files\Microchip\xc8\v2.45\pic\sources\c99\common\sprcadd.c"
  3932 ;; Parameters:    Size  Location     Type
  3933 ;;  b               4   47[BANK0 ] unsigned int 
  3934 ;;  a               4   51[BANK0 ] unsigned int 
  3935 ;; Auto vars:     Size  Location     Type
  3936 ;;  grs             1    3[BANK1 ] unsigned char 
  3937 ;;  bexp            1    2[BANK1 ] unsigned char 
  3938 ;;  aexp            1    1[BANK1 ] unsigned char 
  3939 ;;  signs           1    0[BANK1 ] unsigned char 
  3940 ;; Return value:  Size  Location     Type
  3941 ;;                  4   47[BANK0 ] unsigned char 
  3942 ;; Registers used:
  3943 ;;		wreg, status,2, status,0
  3944 ;; Tracked objects:
  3945 ;;		On entry : 0/0
  3946 ;;		On exit  : 0/0
  3947 ;;		Unchanged: 0/0
  3948 ;; Data sizes:     COMMON   BANK0   BANK1   BANK2   BANK3   BANK4
  3949 ;;      Params:         0       8       0       0       0       0
  3950 ;;      Locals:         0       0       4       0       0       0
  3951 ;;      Temps:          0       8       0       0       0       0
  3952 ;;      Totals:         0      16       4       0       0       0
  3953 ;;Total ram usage:       20 bytes
  3954 ;; Hardware stack levels used: 1
  3955 ;; Hardware stack levels required when called: 6
  3956 ;; This function calls:
  3957 ;;		Nothing
  3958 ;; This function is called by:
  3959 ;;		_main
  3960 ;; This function uses a non-reentrant model
  3961 ;;
  3962                           
  3963     004E                     ___fladd:	
  3964                           ;psect for function ___fladd
  3965                           
  3966     004E                     l2783:	
  3967                           ;incstack = 0
  3968                           ; Regs used in ___fladd: [wreg+status,2+status,0]
  3969                           
  3970     004E  0020               	movlb	0	; select bank0
  3971     004F  0852               	movf	___fladd@b+3,w
  3972     0050  3980               	andlw	128
  3973     0051  0021               	movlb	1	; select bank1
  3974     0052  00B2               	movwf	___fladd@signs^(0+128)
  3975     0053                     l2785:
  3976     0053  0020               	movlb	0	; select bank0
  3977     0054  3552               	lslf	___fladd@b+3,w
  3978     0055  0021               	movlb	1	; select bank1
  3979     0056  00B4               	movwf	___fladd@bexp^(0+128)
  3980     0057                     l2787:
  3981     0057  0020               	movlb	0	; select bank0
  3982     0058  1FD1               	btfss	___fladd@b+2,7
  3983     0059  285B               	goto	u2641
  3984     005A  285C               	goto	u2640
  3985     005B                     u2641:
  3986     005B  285E               	goto	l2791
  3987     005C                     u2640:
  3988     005C                     l2789:
  3989     005C  0021               	movlb	1	; select bank1
  3990     005D  1434               	bsf	___fladd@bexp^(0+128),0
  3991     005E                     l2791:
  3992     005E  0021               	movlb	1	; select bank1
  3993     005F  0834               	movf	___fladd@bexp^(0+128),w
  3994     0060  1903               	btfsc	3,2
  3995     0061  2863               	goto	u2651
  3996     0062  2864               	goto	u2650
  3997     0063                     u2651:
  3998     0063  2876               	goto	l2801
  3999     0064                     u2650:
  4000     0064                     l2793:
  4001     0064  0A34               	incf	___fladd@bexp^(0+128),w
  4002     0065  1D03               	btfss	3,2
  4003     0066  2868               	goto	u2661
  4004     0067  2869               	goto	u2660
  4005     0068                     u2661:
  4006     0068  2872               	goto	l2797
  4007     0069                     u2660:
  4008     0069                     l2795:
  4009     0069  3000               	movlw	0
  4010     006A  0020               	movlb	0	; select bank0
  4011     006B  00D2               	movwf	___fladd@b+3
  4012     006C  3000               	movlw	0
  4013     006D  00D1               	movwf	___fladd@b+2
  4014     006E  3000               	movlw	0
  4015     006F  00D0               	movwf	___fladd@b+1
  4016     0070  3000               	movlw	0
  4017     0071  00CF               	movwf	___fladd@b
  4018     0072                     l2797:
  4019     0072  0020               	movlb	0	; select bank0
  4020     0073  17D1               	bsf	___fladd@b+2,7
  4021     0074                     l2799:
  4022     0074  01D2               	clrf	___fladd@b+3
  4023     0075  287F               	goto	l2803
  4024     0076                     l2801:
  4025     0076  3000               	movlw	0
  4026     0077  0020               	movlb	0	; select bank0
  4027     0078  00D2               	movwf	___fladd@b+3
  4028     0079  3000               	movlw	0
  4029     007A  00D1               	movwf	___fladd@b+2
  4030     007B  3000               	movlw	0
  4031     007C  00D0               	movwf	___fladd@b+1
  4032     007D  3000               	movlw	0
  4033     007E  00CF               	movwf	___fladd@b
  4034     007F                     l2803:
  4035     007F  0856               	movf	___fladd@a+3,w
  4036     0080  3980               	andlw	128
  4037     0081  0021               	movlb	1	; select bank1
  4038     0082  00B3               	movwf	___fladd@aexp^(0+128)
  4039     0083                     l2805:
  4040     0083  0833               	movf	___fladd@aexp^(0+128),w
  4041     0084  0632               	xorwf	___fladd@signs^(0+128),w
  4042     0085  1903               	skipnz
  4043     0086  2888               	goto	u2671
  4044     0087  2889               	goto	u2670
  4045     0088                     u2671:
  4046     0088  288A               	goto	l2809
  4047     0089                     u2670:
  4048     0089                     l2807:
  4049     0089  1732               	bsf	___fladd@signs^(0+128),6
  4050     008A                     l2809:
  4051     008A  0020               	movlb	0	; select bank0
  4052     008B  3556               	lslf	___fladd@a+3,w
  4053     008C  0021               	movlb	1	; select bank1
  4054     008D  00B3               	movwf	___fladd@aexp^(0+128)
  4055     008E                     l2811:
  4056     008E  0020               	movlb	0	; select bank0
  4057     008F  1FD5               	btfss	___fladd@a+2,7
  4058     0090  2892               	goto	u2681
  4059     0091  2893               	goto	u2680
  4060     0092                     u2681:
  4061     0092  2895               	goto	l2815
  4062     0093                     u2680:
  4063     0093                     l2813:
  4064     0093  0021               	movlb	1	; select bank1
  4065     0094  1433               	bsf	___fladd@aexp^(0+128),0
  4066     0095                     l2815:
  4067     0095  0021               	movlb	1	; select bank1
  4068     0096  0833               	movf	___fladd@aexp^(0+128),w
  4069     0097  1903               	btfsc	3,2
  4070     0098  289A               	goto	u2691
  4071     0099  289B               	goto	u2690
  4072     009A                     u2691:
  4073     009A  28AD               	goto	l2825
  4074     009B                     u2690:
  4075     009B                     l2817:
  4076     009B  0A33               	incf	___fladd@aexp^(0+128),w
  4077     009C  1D03               	btfss	3,2
  4078     009D  289F               	goto	u2701
  4079     009E  28A0               	goto	u2700
  4080     009F                     u2701:
  4081     009F  28A9               	goto	l2821
  4082     00A0                     u2700:
  4083     00A0                     l2819:
  4084     00A0  3000               	movlw	0
  4085     00A1  0020               	movlb	0	; select bank0
  4086     00A2  00D6               	movwf	___fladd@a+3
  4087     00A3  3000               	movlw	0
  4088     00A4  00D5               	movwf	___fladd@a+2
  4089     00A5  3000               	movlw	0
  4090     00A6  00D4               	movwf	___fladd@a+1
  4091     00A7  3000               	movlw	0
  4092     00A8  00D3               	movwf	___fladd@a
  4093     00A9                     l2821:
  4094     00A9  0020               	movlb	0	; select bank0
  4095     00AA  17D5               	bsf	___fladd@a+2,7
  4096     00AB                     l2823:
  4097     00AB  01D6               	clrf	___fladd@a+3
  4098     00AC  28B6               	goto	l972
  4099     00AD                     l2825:
  4100     00AD  3000               	movlw	0
  4101     00AE  0020               	movlb	0	; select bank0
  4102     00AF  00D6               	movwf	___fladd@a+3
  4103     00B0  3000               	movlw	0
  4104     00B1  00D5               	movwf	___fladd@a+2
  4105     00B2  3000               	movlw	0
  4106     00B3  00D4               	movwf	___fladd@a+1
  4107     00B4  3000               	movlw	0
  4108     00B5  00D3               	movwf	___fladd@a
  4109     00B6                     l972:
  4110     00B6  0021               	movlb	1	; select bank1
  4111     00B7  0834               	movf	___fladd@bexp^(0+128),w
  4112     00B8  0233               	subwf	___fladd@aexp^(0+128),w
  4113     00B9  1803               	skipnc
  4114     00BA  28BC               	goto	u2711
  4115     00BB  28BD               	goto	u2710
  4116     00BC                     u2711:
  4117     00BC  28F6               	goto	l2861
  4118     00BD                     u2710:
  4119     00BD                     l2827:
  4120     00BD  1F32               	btfss	___fladd@signs^(0+128),6
  4121     00BE  28C0               	goto	u2721
  4122     00BF  28C1               	goto	u2720
  4123     00C0                     u2721:
  4124     00C0  28C7               	goto	l2831
  4125     00C1                     u2720:
  4126     00C1                     l2829:
  4127     00C1  3080               	movlw	128
  4128     00C2  0020               	movlb	0	; select bank0
  4129     00C3  00D7               	movwf	??___fladd
  4130     00C4  0857               	movf	??___fladd,w
  4131     00C5  0021               	movlb	1	; select bank1
  4132     00C6  06B2               	xorwf	___fladd@signs^(0+128),f
  4133     00C7                     l2831:
  4134     00C7  0834               	movf	___fladd@bexp^(0+128),w
  4135     00C8  00B5               	movwf	___fladd@grs^(0+128)
  4136     00C9                     l2833:
  4137     00C9  0833               	movf	___fladd@aexp^(0+128),w
  4138     00CA  00B4               	movwf	___fladd@bexp^(0+128)
  4139     00CB                     l2835:
  4140     00CB  0835               	movf	___fladd@grs^(0+128),w
  4141     00CC  00B3               	movwf	___fladd@aexp^(0+128)
  4142     00CD                     l2837:
  4143     00CD  0020               	movlb	0	; select bank0
  4144     00CE  084F               	movf	___fladd@b,w
  4145     00CF  0021               	movlb	1	; select bank1
  4146     00D0  00B5               	movwf	___fladd@grs^(0+128)
  4147     00D1                     l2839:
  4148     00D1  0020               	movlb	0	; select bank0
  4149     00D2  0853               	movf	___fladd@a,w
  4150     00D3  00CF               	movwf	___fladd@b
  4151     00D4                     l2841:
  4152     00D4  0021               	movlb	1	; select bank1
  4153     00D5  0835               	movf	___fladd@grs^(0+128),w
  4154     00D6  0020               	movlb	0	; select bank0
  4155     00D7  00D3               	movwf	___fladd@a
  4156     00D8                     l2843:
  4157     00D8  0850               	movf	___fladd@b+1,w
  4158     00D9  0021               	movlb	1	; select bank1
  4159     00DA  00B5               	movwf	___fladd@grs^(0+128)
  4160     00DB                     l2845:
  4161     00DB  0020               	movlb	0	; select bank0
  4162     00DC  0854               	movf	___fladd@a+1,w
  4163     00DD  00D0               	movwf	___fladd@b+1
  4164     00DE                     l2847:
  4165     00DE  0021               	movlb	1	; select bank1
  4166     00DF  0835               	movf	___fladd@grs^(0+128),w
  4167     00E0  0020               	movlb	0	; select bank0
  4168     00E1  00D4               	movwf	___fladd@a+1
  4169     00E2                     l2849:
  4170     00E2  0851               	movf	___fladd@b+2,w
  4171     00E3  0021               	movlb	1	; select bank1
  4172     00E4  00B5               	movwf	___fladd@grs^(0+128)
  4173     00E5                     l2851:
  4174     00E5  0020               	movlb	0	; select bank0
  4175     00E6  0855               	movf	___fladd@a+2,w
  4176     00E7  00D1               	movwf	___fladd@b+2
  4177     00E8                     l2853:
  4178     00E8  0021               	movlb	1	; select bank1
  4179     00E9  0835               	movf	___fladd@grs^(0+128),w
  4180     00EA  0020               	movlb	0	; select bank0
  4181     00EB  00D5               	movwf	___fladd@a+2
  4182     00EC                     l2855:
  4183     00EC  0852               	movf	___fladd@b+3,w
  4184     00ED  0021               	movlb	1	; select bank1
  4185     00EE  00B5               	movwf	___fladd@grs^(0+128)
  4186     00EF                     l2857:
  4187     00EF  0020               	movlb	0	; select bank0
  4188     00F0  0856               	movf	___fladd@a+3,w
  4189     00F1  00D2               	movwf	___fladd@b+3
  4190     00F2                     l2859:
  4191     00F2  0021               	movlb	1	; select bank1
  4192     00F3  0835               	movf	___fladd@grs^(0+128),w
  4193     00F4  0020               	movlb	0	; select bank0
  4194     00F5  00D6               	movwf	___fladd@a+3
  4195     00F6                     l2861:
  4196     00F6  0021               	movlb	1	; select bank1
  4197     00F7  01B5               	clrf	___fladd@grs^(0+128)
  4198     00F8                     l2863:
  4199     00F8  0833               	movf	___fladd@aexp^(0+128),w
  4200     00F9  0020               	movlb	0	; select bank0
  4201     00FA  00D7               	movwf	??___fladd
  4202     00FB  01D8               	clrf	??___fladd+1
  4203     00FC  0858               	movf	??___fladd+1,w
  4204     00FD  00DA               	movwf	??___fladd+3
  4205     00FE  0021               	movlb	1	; select bank1
  4206     00FF  0834               	movf	___fladd@bexp^(0+128),w
  4207     0100  0020               	movlb	0	; select bank0
  4208     0101  0257               	subwf	??___fladd,w
  4209     0102  00D9               	movwf	??___fladd+2
  4210     0103  1C03               	skipc
  4211     0104  03DA               	decf	??___fladd+3,f
  4212     0105  085A               	movf	??___fladd+3,w
  4213     0106  3A80               	xorlw	128
  4214     0107  00DB               	movwf	??___fladd+4
  4215     0108  3080               	movlw	128
  4216     0109  025B               	subwf	??___fladd+4,w
  4217     010A  1D03               	skipz
  4218     010B  290E               	goto	u2735
  4219     010C  301A               	movlw	26
  4220     010D  0259               	subwf	??___fladd+2,w
  4221     010E                     u2735:
  4222     010E  1C03               	skipc
  4223     010F  2911               	goto	u2731
  4224     0110  2912               	goto	u2730
  4225     0111                     u2731:
  4226     0111  294B               	goto	l2879
  4227     0112                     u2730:
  4228     0112                     l2865:
  4229     0112  0020               	movlb	0	; select bank0
  4230     0113  0852               	movf	___fladd@b+3,w
  4231     0114  0451               	iorwf	___fladd@b+2,w
  4232     0115  0450               	iorwf	___fladd@b+1,w
  4233     0116  044F               	iorwf	___fladd@b,w
  4234     0117  1D03               	skipz
  4235     0118  291A               	goto	u2741
  4236     0119  291C               	goto	u2740
  4237     011A                     u2741:
  4238     011A  3001               	movlw	1
  4239     011B  291D               	goto	u2750
  4240     011C                     u2740:
  4241     011C  3000               	movlw	0
  4242     011D                     u2750:
  4243     011D  0021               	movlb	1	; select bank1
  4244     011E  00B5               	movwf	___fladd@grs^(0+128)
  4245     011F  3000               	movlw	0
  4246     0120  0020               	movlb	0	; select bank0
  4247     0121  00D2               	movwf	___fladd@b+3
  4248     0122  3000               	movlw	0
  4249     0123  00D1               	movwf	___fladd@b+2
  4250     0124  3000               	movlw	0
  4251     0125  00D0               	movwf	___fladd@b+1
  4252     0126  3000               	movlw	0
  4253     0127  00CF               	movwf	___fladd@b
  4254     0128  0021               	movlb	1	; select bank1
  4255     0129  0833               	movf	___fladd@aexp^(0+128),w
  4256     012A  00B4               	movwf	___fladd@bexp^(0+128)
  4257     012B  2952               	goto	l976
  4258     012C                     l978:
  4259     012C  1C35               	btfss	___fladd@grs^(0+128),0
  4260     012D  292F               	goto	u2761
  4261     012E  2930               	goto	u2760
  4262     012F                     u2761:
  4263     012F  2934               	goto	l2869
  4264     0130                     u2760:
  4265     0130                     l2867:
  4266     0130  3635               	lsrf	___fladd@grs^(0+128),w
  4267     0131  3801               	iorlw	1
  4268     0132  00B5               	movwf	___fladd@grs^(0+128)
  4269     0133  2936               	goto	l2871
  4270     0134                     l2869:
  4271     0134  1003               	clrc
  4272     0135  0CB5               	rrf	___fladd@grs^(0+128),f
  4273     0136                     l2871:
  4274     0136  0020               	movlb	0	; select bank0
  4275     0137  1C4F               	btfss	___fladd@b,0
  4276     0138  293A               	goto	u2771
  4277     0139  293B               	goto	u2770
  4278     013A                     u2771:
  4279     013A  293D               	goto	l2875
  4280     013B                     u2770:
  4281     013B                     l2873:
  4282     013B  0021               	movlb	1	; select bank1
  4283     013C  17B5               	bsf	___fladd@grs^(0+128),7
  4284     013D                     l2875:
  4285     013D  3001               	movlw	1
  4286     013E  0020               	movlb	0	; select bank0
  4287     013F  00D7               	movwf	??___fladd
  4288     0140                     u2785:
  4289     0140  37D2               	asrf	___fladd@b+3,f
  4290     0141  0CD1               	rrf	___fladd@b+2,f
  4291     0142  0CD0               	rrf	___fladd@b+1,f
  4292     0143  0CCF               	rrf	___fladd@b,f
  4293     0144  0BD7               	decfsz	??___fladd& (0+127),f
  4294     0145  2940               	goto	u2785
  4295     0146                     l2877:
  4296     0146  3001               	movlw	1
  4297     0147  00D7               	movwf	??___fladd
  4298     0148  0857               	movf	??___fladd,w
  4299     0149  0021               	movlb	1	; select bank1
  4300     014A  07B4               	addwf	___fladd@bexp^(0+128),f
  4301     014B                     l2879:
  4302     014B  0021               	movlb	1	; select bank1
  4303     014C  0833               	movf	___fladd@aexp^(0+128),w
  4304     014D  0234               	subwf	___fladd@bexp^(0+128),w
  4305     014E  1C03               	skipc
  4306     014F  2951               	goto	u2791
  4307     0150  2952               	goto	u2790
  4308     0151                     u2791:
  4309     0151  292C               	goto	l978
  4310     0152                     u2790:
  4311     0152                     l976:
  4312     0152  1B32               	btfsc	___fladd@signs^(0+128),6
  4313     0153  2955               	goto	u2801
  4314     0154  2956               	goto	u2800
  4315     0155                     u2801:
  4316     0155  2993               	goto	l2905
  4317     0156                     u2800:
  4318     0156                     l2881:
  4319     0156  0834               	movf	___fladd@bexp^(0+128),w
  4320     0157  1D03               	btfss	3,2
  4321     0158  295A               	goto	u2811
  4322     0159  295B               	goto	u2810
  4323     015A                     u2811:
  4324     015A  2965               	goto	l2887
  4325     015B                     u2810:
  4326     015B                     l2883:
  4327     015B  3000               	movlw	0
  4328     015C  0020               	movlb	0	; select bank0
  4329     015D  00D2               	movwf	?___fladd+3
  4330     015E  3000               	movlw	0
  4331     015F  00D1               	movwf	?___fladd+2
  4332     0160  3000               	movlw	0
  4333     0161  00D0               	movwf	?___fladd+1
  4334     0162  3000               	movlw	0
  4335     0163  00CF               	movwf	?___fladd
  4336     0164  2AA8               	goto	l985
  4337     0165                     l2887:
  4338     0165  0020               	movlb	0	; select bank0
  4339     0166  0853               	movf	___fladd@a,w
  4340     0167  07CF               	addwf	___fladd@b,f
  4341     0168  0854               	movf	___fladd@a+1,w
  4342     0169  3DD0               	addwfc	___fladd@b+1,f
  4343     016A  0855               	movf	___fladd@a+2,w
  4344     016B  3DD1               	addwfc	___fladd@b+2,f
  4345     016C  0856               	movf	___fladd@a+3,w
  4346     016D  3DD2               	addwfc	___fladd@b+3,f
  4347     016E                     l2889:
  4348     016E  1C52               	btfss	___fladd@b+3,0
  4349     016F  2971               	goto	u2821
  4350     0170  2972               	goto	u2820
  4351     0171                     u2821:
  4352     0171  2A29               	goto	l2939
  4353     0172                     u2820:
  4354     0172                     l2891:
  4355     0172  0021               	movlb	1	; select bank1
  4356     0173  1C35               	btfss	___fladd@grs^(0+128),0
  4357     0174  2976               	goto	u2831
  4358     0175  2977               	goto	u2830
  4359     0176                     u2831:
  4360     0176  297B               	goto	l2895
  4361     0177                     u2830:
  4362     0177                     l2893:
  4363     0177  3635               	lsrf	___fladd@grs^(0+128),w
  4364     0178  3801               	iorlw	1
  4365     0179  00B5               	movwf	___fladd@grs^(0+128)
  4366     017A  297D               	goto	l2897
  4367     017B                     l2895:
  4368     017B  1003               	clrc
  4369     017C  0CB5               	rrf	___fladd@grs^(0+128),f
  4370     017D                     l2897:
  4371     017D  0020               	movlb	0	; select bank0
  4372     017E  1C4F               	btfss	___fladd@b,0
  4373     017F  2981               	goto	u2841
  4374     0180  2982               	goto	u2840
  4375     0181                     u2841:
  4376     0181  2984               	goto	l2901
  4377     0182                     u2840:
  4378     0182                     l2899:
  4379     0182  0021               	movlb	1	; select bank1
  4380     0183  17B5               	bsf	___fladd@grs^(0+128),7
  4381     0184                     l2901:
  4382     0184  3001               	movlw	1
  4383     0185  0020               	movlb	0	; select bank0
  4384     0186  00D7               	movwf	??___fladd
  4385     0187                     u2855:
  4386     0187  37D2               	asrf	___fladd@b+3,f
  4387     0188  0CD1               	rrf	___fladd@b+2,f
  4388     0189  0CD0               	rrf	___fladd@b+1,f
  4389     018A  0CCF               	rrf	___fladd@b,f
  4390     018B  0BD7               	decfsz	??___fladd& (0+127),f
  4391     018C  2987               	goto	u2855
  4392     018D                     l2903:
  4393     018D  3001               	movlw	1
  4394     018E  00D7               	movwf	??___fladd
  4395     018F  0857               	movf	??___fladd,w
  4396     0190  0021               	movlb	1	; select bank1
  4397     0191  07B4               	addwf	___fladd@bexp^(0+128),f
  4398     0192  2A29               	goto	l2939
  4399     0193                     l2905:
  4400     0193  0020               	movlb	0	; select bank0
  4401     0194  0852               	movf	___fladd@b+3,w
  4402     0195  3A80               	xorlw	128
  4403     0196  00D7               	movwf	??___fladd
  4404     0197  0856               	movf	___fladd@a+3,w
  4405     0198  3A80               	xorlw	128
  4406     0199  0257               	subwf	??___fladd,w
  4407     019A  1D03               	skipz
  4408     019B  29A6               	goto	u2863
  4409     019C  0855               	movf	___fladd@a+2,w
  4410     019D  0251               	subwf	___fladd@b+2,w
  4411     019E  1D03               	skipz
  4412     019F  29A6               	goto	u2863
  4413     01A0  0854               	movf	___fladd@a+1,w
  4414     01A1  0250               	subwf	___fladd@b+1,w
  4415     01A2  1D03               	skipz
  4416     01A3  29A6               	goto	u2863
  4417     01A4  0853               	movf	___fladd@a,w
  4418     01A5  024F               	subwf	___fladd@b,w
  4419     01A6                     u2863:
  4420     01A6  1803               	skipnc
  4421     01A7  29A9               	goto	u2861
  4422     01A8  29AA               	goto	u2860
  4423     01A9                     u2861:
  4424     01A9  29E4               	goto	l2915
  4425     01AA                     u2860:
  4426     01AA                     l2907:
  4427     01AA  30FF               	movlw	255
  4428     01AB  00D7               	movwf	??___fladd
  4429     01AC  30FF               	movlw	255
  4430     01AD  00D8               	movwf	??___fladd+1
  4431     01AE  30FF               	movlw	255
  4432     01AF  00D9               	movwf	??___fladd+2
  4433     01B0  30FF               	movlw	255
  4434     01B1  00DA               	movwf	??___fladd+3
  4435     01B2  084F               	movf	___fladd@b,w
  4436     01B3  0253               	subwf	___fladd@a,w
  4437     01B4  00DB               	movwf	??___fladd+4
  4438     01B5  0850               	movf	___fladd@b+1,w
  4439     01B6  3B54               	subwfb	___fladd@a+1,w
  4440     01B7  00DC               	movwf	??___fladd+5
  4441     01B8  0851               	movf	___fladd@b+2,w
  4442     01B9  3B55               	subwfb	___fladd@a+2,w
  4443     01BA  00DD               	movwf	??___fladd+6
  4444     01BB  0852               	movf	___fladd@b+3,w
  4445     01BC  3B56               	subwfb	___fladd@a+3,w
  4446     01BD  00DE               	movwf	??___fladd+7
  4447     01BE  085B               	movf	??___fladd+4,w
  4448     01BF  07D7               	addwf	??___fladd,f
  4449     01C0  085C               	movf	??___fladd+5,w
  4450     01C1  3DD8               	addwfc	??___fladd+1,f
  4451     01C2  085D               	movf	??___fladd+6,w
  4452     01C3  3DD9               	addwfc	??___fladd+2,f
  4453     01C4  085E               	movf	??___fladd+7,w
  4454     01C5  3DDA               	addwfc	??___fladd+3,f
  4455     01C6  085A               	movf	??___fladd+3,w
  4456     01C7  00D2               	movwf	___fladd@b+3
  4457     01C8  0859               	movf	??___fladd+2,w
  4458     01C9  00D1               	movwf	___fladd@b+2
  4459     01CA  0858               	movf	??___fladd+1,w
  4460     01CB  00D0               	movwf	___fladd@b+1
  4461     01CC  0857               	movf	??___fladd,w
  4462     01CD  00CF               	movwf	___fladd@b
  4463     01CE                     l2909:
  4464     01CE  3080               	movlw	128
  4465     01CF  00D7               	movwf	??___fladd
  4466     01D0  0857               	movf	??___fladd,w
  4467     01D1  0021               	movlb	1	; select bank1
  4468     01D2  06B2               	xorwf	___fladd@signs^(0+128),f
  4469     01D3  09B5               	comf	___fladd@grs^(0+128),f
  4470     01D4  0AB5               	incf	___fladd@grs^(0+128),f
  4471     01D5                     l2911:
  4472     01D5  0835               	movf	___fladd@grs^(0+128),w
  4473     01D6  1D03               	btfss	3,2
  4474     01D7  29D9               	goto	u2871
  4475     01D8  29DA               	goto	u2870
  4476     01D9                     u2871:
  4477     01D9  29EC               	goto	l993
  4478     01DA                     u2870:
  4479     01DA                     l2913:
  4480     01DA  3001               	movlw	1
  4481     01DB  0020               	movlb	0	; select bank0
  4482     01DC  07CF               	addwf	___fladd@b,f
  4483     01DD  3000               	movlw	0
  4484     01DE  3DD0               	addwfc	___fladd@b+1,f
  4485     01DF  3000               	movlw	0
  4486     01E0  3DD1               	addwfc	___fladd@b+2,f
  4487     01E1  3000               	movlw	0
  4488     01E2  3DD2               	addwfc	___fladd@b+3,f
  4489     01E3  29EC               	goto	l993
  4490     01E4                     l2915:
  4491     01E4  0853               	movf	___fladd@a,w
  4492     01E5  02CF               	subwf	___fladd@b,f
  4493     01E6  0854               	movf	___fladd@a+1,w
  4494     01E7  3BD0               	subwfb	___fladd@b+1,f
  4495     01E8  0855               	movf	___fladd@a+2,w
  4496     01E9  3BD1               	subwfb	___fladd@b+2,f
  4497     01EA  0856               	movf	___fladd@a+3,w
  4498     01EB  3BD2               	subwfb	___fladd@b+3,f
  4499     01EC                     l993:
  4500     01EC  0020               	movlb	0	; select bank0
  4501     01ED  0852               	movf	___fladd@b+3,w
  4502     01EE  0451               	iorwf	___fladd@b+2,w
  4503     01EF  0450               	iorwf	___fladd@b+1,w
  4504     01F0  044F               	iorwf	___fladd@b,w
  4505     01F1  1D03               	skipz
  4506     01F2  29F4               	goto	u2881
  4507     01F3  29F5               	goto	u2880
  4508     01F4                     u2881:
  4509     01F4  2A24               	goto	l2937
  4510     01F5                     u2880:
  4511     01F5                     l2917:
  4512     01F5  0021               	movlb	1	; select bank1
  4513     01F6  0835               	movf	___fladd@grs^(0+128),w
  4514     01F7  1D03               	btfss	3,2
  4515     01F8  29FA               	goto	u2891
  4516     01F9  29FB               	goto	u2890
  4517     01FA                     u2891:
  4518     01FA  2A24               	goto	l2937
  4519     01FB                     u2890:
  4520     01FB                     l2919:
  4521     01FB  3000               	movlw	0
  4522     01FC  0020               	movlb	0	; select bank0
  4523     01FD  00D2               	movwf	?___fladd+3
  4524     01FE  3000               	movlw	0
  4525     01FF  00D1               	movwf	?___fladd+2
  4526     0200  3000               	movlw	0
  4527     0201  00D0               	movwf	?___fladd+1
  4528     0202  3000               	movlw	0
  4529     0203  00CF               	movwf	?___fladd
  4530     0204  2AA8               	goto	l985
  4531     0205                     l2923:
  4532     0205  3001               	movlw	1
  4533     0206                     u2905:
  4534     0206  35CF               	lslf	___fladd@b,f
  4535     0207  0DD0               	rlf	___fladd@b+1,f
  4536     0208  0DD1               	rlf	___fladd@b+2,f
  4537     0209  0DD2               	rlf	___fladd@b+3,f
  4538     020A  0B89               	decfsz	9,f
  4539     020B  2A06               	goto	u2905
  4540     020C                     l2925:
  4541     020C  0021               	movlb	1	; select bank1
  4542     020D  1FB5               	btfss	___fladd@grs^(0+128),7
  4543     020E  2A10               	goto	u2911
  4544     020F  2A11               	goto	u2910
  4545     0210                     u2911:
  4546     0210  2A13               	goto	l997
  4547     0211                     u2910:
  4548     0211                     l2927:
  4549     0211  0020               	movlb	0	; select bank0
  4550     0212  144F               	bsf	___fladd@b,0
  4551     0213                     l997:
  4552     0213  0021               	movlb	1	; select bank1
  4553     0214  1C35               	btfss	___fladd@grs^(0+128),0
  4554     0215  2A17               	goto	u2921
  4555     0216  2A18               	goto	u2920
  4556     0217                     u2921:
  4557     0217  2A1B               	goto	l2931
  4558     0218                     u2920:
  4559     0218                     l2929:
  4560     0218  1403               	setc
  4561     0219  0DB5               	rlf	___fladd@grs^(0+128),f
  4562     021A  2A1D               	goto	l2933
  4563     021B                     l2931:
  4564     021B  1003               	clrc
  4565     021C  0DB5               	rlf	___fladd@grs^(0+128),f
  4566     021D                     l2933:
  4567     021D  0834               	movf	___fladd@bexp^(0+128),w
  4568     021E  1903               	btfsc	3,2
  4569     021F  2A21               	goto	u2931
  4570     0220  2A22               	goto	u2930
  4571     0221                     u2931:
  4572     0221  2A24               	goto	l2937
  4573     0222                     u2930:
  4574     0222                     l2935:
  4575     0222  3001               	movlw	1
  4576     0223  02B4               	subwf	___fladd@bexp^(0+128),f
  4577     0224                     l2937:
  4578     0224  0020               	movlb	0	; select bank0
  4579     0225  1FD1               	btfss	___fladd@b+2,7
  4580     0226  2A28               	goto	u2941
  4581     0227  2A29               	goto	u2940
  4582     0228                     u2941:
  4583     0228  2A05               	goto	l2923
  4584     0229                     u2940:
  4585     0229                     l2939:
  4586     0229  0021               	movlb	1	; select bank1
  4587     022A  01B3               	clrf	___fladd@aexp^(0+128)
  4588     022B                     l2941:
  4589     022B  1FB5               	btfss	___fladd@grs^(0+128),7
  4590     022C  2A2E               	goto	u2951
  4591     022D  2A2F               	goto	u2950
  4592     022E                     u2951:
  4593     022E  2A3F               	goto	l2949
  4594     022F                     u2950:
  4595     022F                     l2943:
  4596     022F  0835               	movf	___fladd@grs^(0+128),w
  4597     0230  397F               	andlw	127
  4598     0231  1903               	btfsc	3,2
  4599     0232  2A34               	goto	u2961
  4600     0233  2A35               	goto	u2960
  4601     0234                     u2961:
  4602     0234  2A39               	goto	l1003
  4603     0235                     u2960:
  4604     0235                     l2945:
  4605     0235  0021               	movlb	1	; select bank1
  4606     0236  01B3               	clrf	___fladd@aexp^(0+128)
  4607     0237  0AB3               	incf	___fladd@aexp^(0+128),f
  4608     0238  2A3F               	goto	l2949
  4609     0239                     l1003:
  4610     0239  0020               	movlb	0	; select bank0
  4611     023A  1C4F               	btfss	___fladd@b,0
  4612     023B  2A3D               	goto	u2971
  4613     023C  2A3E               	goto	u2970
  4614     023D                     u2971:
  4615     023D  2A3F               	goto	l2949
  4616     023E                     u2970:
  4617     023E  2A35               	goto	l2945
  4618     023F                     l2949:
  4619     023F  0021               	movlb	1	; select bank1
  4620     0240  0833               	movf	___fladd@aexp^(0+128),w
  4621     0241  1903               	btfsc	3,2
  4622     0242  2A44               	goto	u2981
  4623     0243  2A45               	goto	u2980
  4624     0244                     u2981:
  4625     0244  2A76               	goto	l1006
  4626     0245                     u2980:
  4627     0245                     l2951:
  4628     0245  3001               	movlw	1
  4629     0246  0020               	movlb	0	; select bank0
  4630     0247  07CF               	addwf	___fladd@b,f
  4631     0248  3000               	movlw	0
  4632     0249  3DD0               	addwfc	___fladd@b+1,f
  4633     024A  3000               	movlw	0
  4634     024B  3DD1               	addwfc	___fladd@b+2,f
  4635     024C  3000               	movlw	0
  4636     024D  3DD2               	addwfc	___fladd@b+3,f
  4637     024E                     l2953:
  4638     024E  1C52               	btfss	___fladd@b+3,0
  4639     024F  2A51               	goto	u2991
  4640     0250  2A52               	goto	u2990
  4641     0251                     u2991:
  4642     0251  2A76               	goto	l1006
  4643     0252                     u2990:
  4644     0252                     l2955:
  4645     0252  084F               	movf	___fladd@b,w
  4646     0253  00D7               	movwf	??___fladd
  4647     0254  0850               	movf	___fladd@b+1,w
  4648     0255  00D8               	movwf	??___fladd+1
  4649     0256  0851               	movf	___fladd@b+2,w
  4650     0257  00D9               	movwf	??___fladd+2
  4651     0258  0852               	movf	___fladd@b+3,w
  4652     0259  00DA               	movwf	??___fladd+3
  4653     025A  3001               	movlw	1
  4654     025B  00DB               	movwf	??___fladd+4
  4655     025C                     u3005:
  4656     025C  37DA               	asrf	??___fladd+3,f
  4657     025D  0CD9               	rrf	??___fladd+2,f
  4658     025E  0CD8               	rrf	??___fladd+1,f
  4659     025F  0CD7               	rrf	??___fladd,f
  4660     0260                     u3000:
  4661     0260  0BDB               	decfsz	??___fladd+4,f
  4662     0261  2A5C               	goto	u3005
  4663     0262  085A               	movf	??___fladd+3,w
  4664     0263  00D2               	movwf	___fladd@b+3
  4665     0264  0859               	movf	??___fladd+2,w
  4666     0265  00D1               	movwf	___fladd@b+2
  4667     0266  0858               	movf	??___fladd+1,w
  4668     0267  00D0               	movwf	___fladd@b+1
  4669     0268  0857               	movf	??___fladd,w
  4670     0269  00CF               	movwf	___fladd@b
  4671     026A  0021               	movlb	1	; select bank1
  4672     026B  0A34               	incf	___fladd@bexp^(0+128),w
  4673     026C  1903               	btfsc	3,2
  4674     026D  2A6F               	goto	u3011
  4675     026E  2A70               	goto	u3010
  4676     026F                     u3011:
  4677     026F  2A76               	goto	l1006
  4678     0270                     u3010:
  4679     0270                     l2957:
  4680     0270  3001               	movlw	1
  4681     0271  0020               	movlb	0	; select bank0
  4682     0272  00D7               	movwf	??___fladd
  4683     0273  0857               	movf	??___fladd,w
  4684     0274  0021               	movlb	1	; select bank1
  4685     0275  07B4               	addwf	___fladd@bexp^(0+128),f
  4686     0276                     l1006:
  4687     0276  0021               	movlb	1	; select bank1
  4688     0277  0A34               	incf	___fladd@bexp^(0+128),w
  4689     0278  1903               	btfsc	3,2
  4690     0279  2A7B               	goto	u3021
  4691     027A  2A7C               	goto	u3020
  4692     027B                     u3021:
  4693     027B  2A81               	goto	l2961
  4694     027C                     u3020:
  4695     027C                     l2959:
  4696     027C  0834               	movf	___fladd@bexp^(0+128),w
  4697     027D  1D03               	btfss	3,2
  4698     027E  2A80               	goto	u3031
  4699     027F  2A81               	goto	u3030
  4700     0280                     u3031:
  4701     0280  2A91               	goto	l2967
  4702     0281                     u3030:
  4703     0281                     l2961:
  4704     0281  3000               	movlw	0
  4705     0282  0020               	movlb	0	; select bank0
  4706     0283  00D2               	movwf	___fladd@b+3
  4707     0284  3000               	movlw	0
  4708     0285  00D1               	movwf	___fladd@b+2
  4709     0286  3000               	movlw	0
  4710     0287  00D0               	movwf	___fladd@b+1
  4711     0288  3000               	movlw	0
  4712     0289  00CF               	movwf	___fladd@b
  4713     028A                     l2963:
  4714     028A  0021               	movlb	1	; select bank1
  4715     028B  0834               	movf	___fladd@bexp^(0+128),w
  4716     028C  1D03               	btfss	3,2
  4717     028D  2A8F               	goto	u3041
  4718     028E  2A90               	goto	u3040
  4719     028F                     u3041:
  4720     028F  2A91               	goto	l2967
  4721     0290                     u3040:
  4722     0290                     l2965:
  4723     0290  01B2               	clrf	___fladd@signs^(0+128)
  4724     0291                     l2967:
  4725     0291  1C34               	btfss	___fladd@bexp^(0+128),0
  4726     0292  2A94               	goto	u3051
  4727     0293  2A95               	goto	u3050
  4728     0294                     u3051:
  4729     0294  2A98               	goto	l2971
  4730     0295                     u3050:
  4731     0295                     l2969:
  4732     0295  0020               	movlb	0	; select bank0
  4733     0296  17D1               	bsf	___fladd@b+2,7
  4734     0297  2A9D               	goto	l1014
  4735     0298                     l2971:
  4736     0298  307F               	movlw	127
  4737     0299  0020               	movlb	0	; select bank0
  4738     029A  00D7               	movwf	??___fladd
  4739     029B  0857               	movf	??___fladd,w
  4740     029C  05D1               	andwf	___fladd@b+2,f
  4741     029D                     l1014:
  4742     029D  0021               	movlb	1	; select bank1
  4743     029E  3634               	lsrf	___fladd@bexp^(0+128),w
  4744     029F  0020               	movlb	0	; select bank0
  4745     02A0  00D2               	movwf	___fladd@b+3
  4746     02A1                     l2973:
  4747     02A1  0021               	movlb	1	; select bank1
  4748     02A2  1FB2               	btfss	___fladd@signs^(0+128),7
  4749     02A3  2AA5               	goto	u3061
  4750     02A4  2AA6               	goto	u3060
  4751     02A5                     u3061:
  4752     02A5  2AA8               	goto	l1015
  4753     02A6                     u3060:
  4754     02A6                     l2975:
  4755     02A6  0020               	movlb	0	; select bank0
  4756     02A7  17D2               	bsf	___fladd@b+3,7
  4757     02A8                     l1015:
  4758     02A8                     l985:
  4759     02A8  0008               	return
  4760     02A9                     __end_of___fladd:
  4761                           
  4762                           	psect	text6
  4763     0FA2                     __ptext6:	
  4764 ;; *************** function _SYSTEM_Initialize *****************
  4765 ;; Defined at:
  4766 ;;		line 50 in file "mcc_generated_files/mcc.c"
  4767 ;; Parameters:    Size  Location     Type
  4768 ;;		None
  4769 ;; Auto vars:     Size  Location     Type
  4770 ;;		None
  4771 ;; Return value:  Size  Location     Type
  4772 ;;                  1    wreg      void 
  4773 ;; Registers used:
  4774 ;;		wreg, status,2, status,0, pclath, cstack
  4775 ;; Tracked objects:
  4776 ;;		On entry : 0/0
  4777 ;;		On exit  : 0/0
  4778 ;;		Unchanged: 0/0
  4779 ;; Data sizes:     COMMON   BANK0   BANK1   BANK2   BANK3   BANK4
  4780 ;;      Params:         0       0       0       0       0       0
  4781 ;;      Locals:         0       0       0       0       0       0
  4782 ;;      Temps:          0       0       0       0       0       0
  4783 ;;      Totals:         0       0       0       0       0       0
  4784 ;;Total ram usage:        0 bytes
  4785 ;; Hardware stack levels used: 1
  4786 ;; Hardware stack levels required when called: 8
  4787 ;; This function calls:
  4788 ;;		_ADC_Initialize
  4789 ;;		_EPWM1_Initialize
  4790 ;;		_EUSART_Initialize
  4791 ;;		_OSCILLATOR_Initialize
  4792 ;;		_PIN_MANAGER_Initialize
  4793 ;;		_TMR1_Initialize
  4794 ;;		_TMR2_Initialize
  4795 ;;		_TMR4_Initialize
  4796 ;;		_WDT_Initialize
  4797 ;; This function is called by:
  4798 ;;		_main
  4799 ;; This function uses a non-reentrant model
  4800 ;;
  4801                           
  4802     0FA2                     _SYSTEM_Initialize:	
  4803                           ;psect for function _SYSTEM_Initialize
  4804                           
  4805     0FA2                     l2231:	
  4806                           ;incstack = 0
  4807                           ; Regs used in _SYSTEM_Initialize: [wreg+status,2+status,0+pclath+cstack]
  4808                           
  4809                           
  4810                           ;mcc_generated_files/mcc.c: 53:     PIN_MANAGER_Initialize();
  4811     0FA2  3187  27AA  318F   	fcall	_PIN_MANAGER_Initialize
  4812                           
  4813                           ;mcc_generated_files/mcc.c: 54:     OSCILLATOR_Initialize();
  4814     0FA5  318E  2645  318F   	fcall	_OSCILLATOR_Initialize
  4815                           
  4816                           ;mcc_generated_files/mcc.c: 55:     WDT_Initialize();
  4817     0FA8  318E  263B  318F   	fcall	_WDT_Initialize
  4818                           
  4819                           ;mcc_generated_files/mcc.c: 56:     ADC_Initialize();
  4820     0FAB  318E  264C  318F   	fcall	_ADC_Initialize
  4821                           
  4822                           ;mcc_generated_files/mcc.c: 57:     EPWM1_Initialize();
  4823     0FAE  318E  26B2  318F   	fcall	_EPWM1_Initialize
  4824                           
  4825                           ;mcc_generated_files/mcc.c: 58:     TMR4_Initialize();
  4826     0FB1  318F  2713  318F   	fcall	_TMR4_Initialize
  4827                           
  4828                           ;mcc_generated_files/mcc.c: 59:     TMR2_Initialize();
  4829     0FB4  318E  2654  318F   	fcall	_TMR2_Initialize
  4830                           
  4831                           ;mcc_generated_files/mcc.c: 60:     TMR1_Initialize();
  4832     0FB7  318F  2753  318F   	fcall	_TMR1_Initialize
  4833                           
  4834                           ;mcc_generated_files/mcc.c: 61:     EUSART_Initialize();
  4835     0FBA  3187  27D8  318F   	fcall	_EUSART_Initialize
  4836     0FBD                     l29:
  4837     0FBD  0008               	return
  4838     0FBE                     __end_of_SYSTEM_Initialize:
  4839                           
  4840                           	psect	text7
  4841     0E3B                     __ptext7:	
  4842 ;; *************** function _WDT_Initialize *****************
  4843 ;; Defined at:
  4844 ;;		line 74 in file "mcc_generated_files/mcc.c"
  4845 ;; Parameters:    Size  Location     Type
  4846 ;;		None
  4847 ;; Auto vars:     Size  Location     Type
  4848 ;;		None
  4849 ;; Return value:  Size  Location     Type
  4850 ;;                  1    wreg      void 
  4851 ;; Registers used:
  4852 ;;		wreg
  4853 ;; Tracked objects:
  4854 ;;		On entry : 0/0
  4855 ;;		On exit  : 0/0
  4856 ;;		Unchanged: 0/0
  4857 ;; Data sizes:     COMMON   BANK0   BANK1   BANK2   BANK3   BANK4
  4858 ;;      Params:         0       0       0       0       0       0
  4859 ;;      Locals:         0       0       0       0       0       0
  4860 ;;      Temps:          0       0       0       0       0       0
  4861 ;;      Totals:         0       0       0       0       0       0
  4862 ;;Total ram usage:        0 bytes
  4863 ;; Hardware stack levels used: 1
  4864 ;; Hardware stack levels required when called: 6
  4865 ;; This function calls:
  4866 ;;		Nothing
  4867 ;; This function is called by:
  4868 ;;		_SYSTEM_Initialize
  4869 ;; This function uses a non-reentrant model
  4870 ;;
  4871                           
  4872     0E3B                     _WDT_Initialize:	
  4873                           ;psect for function _WDT_Initialize
  4874                           
  4875     0E3B                     l2091:	
  4876                           ;incstack = 0
  4877                           ; Regs used in _WDT_Initialize: [wreg]
  4878                           
  4879                           
  4880                           ;mcc_generated_files/mcc.c: 77:     WDTCON = 0x16;
  4881     0E3B  3016               	movlw	22
  4882     0E3C  0021               	movlb	1	; select bank1
  4883     0E3D  0097               	movwf	23	;volatile
  4884     0E3E                     l35:
  4885     0E3E  0008               	return
  4886     0E3F                     __end_of_WDT_Initialize:
  4887                           
  4888                           	psect	text8
  4889     0F13                     __ptext8:	
  4890 ;; *************** function _TMR4_Initialize *****************
  4891 ;; Defined at:
  4892 ;;		line 64 in file "mcc_generated_files/tmr4.c"
  4893 ;; Parameters:    Size  Location     Type
  4894 ;;		None
  4895 ;; Auto vars:     Size  Location     Type
  4896 ;;		None
  4897 ;; Return value:  Size  Location     Type
  4898 ;;                  1    wreg      void 
  4899 ;; Registers used:
  4900 ;;		wreg, status,2, status,0, pclath, cstack
  4901 ;; Tracked objects:
  4902 ;;		On entry : 0/0
  4903 ;;		On exit  : 0/0
  4904 ;;		Unchanged: 0/0
  4905 ;; Data sizes:     COMMON   BANK0   BANK1   BANK2   BANK3   BANK4
  4906 ;;      Params:         0       0       0       0       0       0
  4907 ;;      Locals:         0       0       0       0       0       0
  4908 ;;      Temps:          0       0       0       0       0       0
  4909 ;;      Totals:         0       0       0       0       0       0
  4910 ;;Total ram usage:        0 bytes
  4911 ;; Hardware stack levels used: 1
  4912 ;; Hardware stack levels required when called: 7
  4913 ;; This function calls:
  4914 ;;		_TMR4_SetInterruptHandler
  4915 ;; This function is called by:
  4916 ;;		_SYSTEM_Initialize
  4917 ;; This function uses a non-reentrant model
  4918 ;;
  4919                           
  4920     0F13                     _TMR4_Initialize:	
  4921                           ;psect for function _TMR4_Initialize
  4922                           
  4923     0F13                     l2111:	
  4924                           ;incstack = 0
  4925                           ; Regs used in _TMR4_Initialize: [wreg+status,2+status,0+pclath+cstack]
  4926                           
  4927                           
  4928                           ;mcc_generated_files/tmr4.c: 69:     PR4 = 0x4A;
  4929     0F13  304A               	movlw	74
  4930     0F14  0028               	movlb	8	; select bank8
  4931     0F15  0096               	movwf	22	;volatile
  4932     0F16                     l2113:
  4933                           
  4934                           ;mcc_generated_files/tmr4.c: 72:     TMR4 = 0x00;
  4935     0F16  0195               	clrf	21	;volatile
  4936     0F17                     l2115:
  4937                           
  4938                           ;mcc_generated_files/tmr4.c: 75:     PIR3bits.TMR4IF = 0;
  4939     0F17  0020               	movlb	0	; select bank0
  4940     0F18  1093               	bcf	19,1	;volatile
  4941     0F19                     l2117:
  4942                           
  4943                           ;mcc_generated_files/tmr4.c: 78:     PIE3bits.TMR4IE = 1;
  4944     0F19  0021               	movlb	1	; select bank1
  4945     0F1A  1493               	bsf	19,1	;volatile
  4946     0F1B                     l2119:
  4947                           
  4948                           ;mcc_generated_files/tmr4.c: 81:     TMR4_SetInterruptHandler(TMR4_DefaultInterruptHandl
      +                          er);
  4949     0F1B  3035               	movlw	low _TMR4_DefaultInterruptHandler
  4950     0F1C  0020               	movlb	0	; select bank0
  4951     0F1D  00A7               	movwf	TMR4_SetInterruptHandler@InterruptHandler
  4952     0F1E  300E               	movlw	high _TMR4_DefaultInterruptHandler
  4953     0F1F  00A8               	movwf	TMR4_SetInterruptHandler@InterruptHandler+1
  4954     0F20  318E  2692  318F   	fcall	_TMR4_SetInterruptHandler
  4955     0F23                     l2121:
  4956                           
  4957                           ;mcc_generated_files/tmr4.c: 84:     T4CON = 0x55;
  4958     0F23  3055               	movlw	85
  4959     0F24  0028               	movlb	8	; select bank8
  4960     0F25  0097               	movwf	23	;volatile
  4961     0F26                     l399:
  4962     0F26  0008               	return
  4963     0F27                     __end_of_TMR4_Initialize:
  4964                           
  4965                           	psect	text9
  4966     0E92                     __ptext9:	
  4967 ;; *************** function _TMR4_SetInterruptHandler *****************
  4968 ;; Defined at:
  4969 ;;		line 140 in file "mcc_generated_files/tmr4.c"
  4970 ;; Parameters:    Size  Location     Type
  4971 ;;  InterruptHan    2    7[BANK0 ] PTR FTN()void 
  4972 ;;		 -> dattaOut(1), TMR4_DefaultInterruptHandler(1), 
  4973 ;; Auto vars:     Size  Location     Type
  4974 ;;		None
  4975 ;; Return value:  Size  Location     Type
  4976 ;;                  1    wreg      void 
  4977 ;; Registers used:
  4978 ;;		wreg
  4979 ;; Tracked objects:
  4980 ;;		On entry : 0/0
  4981 ;;		On exit  : 0/0
  4982 ;;		Unchanged: 0/0
  4983 ;; Data sizes:     COMMON   BANK0   BANK1   BANK2   BANK3   BANK4
  4984 ;;      Params:         0       2       0       0       0       0
  4985 ;;      Locals:         0       0       0       0       0       0
  4986 ;;      Temps:          0       0       0       0       0       0
  4987 ;;      Totals:         0       2       0       0       0       0
  4988 ;;Total ram usage:        2 bytes
  4989 ;; Hardware stack levels used: 1
  4990 ;; Hardware stack levels required when called: 6
  4991 ;; This function calls:
  4992 ;;		Nothing
  4993 ;; This function is called by:
  4994 ;;		_TMR4_Initialize
  4995 ;;		_main
  4996 ;; This function uses a non-reentrant model
  4997 ;;
  4998                           
  4999     0E92                     _TMR4_SetInterruptHandler:	
  5000                           ;psect for function _TMR4_SetInterruptHandler
  5001                           
  5002     0E92                     l2029:	
  5003                           ;incstack = 0
  5004                           ; Regs used in _TMR4_SetInterruptHandler: [wreg]
  5005                           
  5006                           
  5007                           ;mcc_generated_files/tmr4.c: 141:     TMR4_InterruptHandler = InterruptHandler;
  5008     0E92  0020               	movlb	0	; select bank0
  5009     0E93  0828               	movf	TMR4_SetInterruptHandler@InterruptHandler+1,w
  5010     0E94  0021               	movlb	1	; select bank1
  5011     0E95  00A5               	movwf	(_TMR4_InterruptHandler+1)^(0+128)
  5012     0E96  0020               	movlb	0	; select bank0
  5013     0E97  0827               	movf	TMR4_SetInterruptHandler@InterruptHandler,w
  5014     0E98  0021               	movlb	1	; select bank1
  5015     0E99  00A4               	movwf	_TMR4_InterruptHandler^(0+128)
  5016     0E9A                     l424:
  5017     0E9A  0008               	return
  5018     0E9B                     __end_of_TMR4_SetInterruptHandler:
  5019                           
  5020                           	psect	text10
  5021     0E54                     __ptext10:	
  5022 ;; *************** function _TMR2_Initialize *****************
  5023 ;; Defined at:
  5024 ;;		line 62 in file "mcc_generated_files/tmr2.c"
  5025 ;; Parameters:    Size  Location     Type
  5026 ;;		None
  5027 ;; Auto vars:     Size  Location     Type
  5028 ;;		None
  5029 ;; Return value:  Size  Location     Type
  5030 ;;                  1    wreg      void 
  5031 ;; Registers used:
  5032 ;;		wreg, status,2
  5033 ;; Tracked objects:
  5034 ;;		On entry : 0/0
  5035 ;;		On exit  : 0/0
  5036 ;;		Unchanged: 0/0
  5037 ;; Data sizes:     COMMON   BANK0   BANK1   BANK2   BANK3   BANK4
  5038 ;;      Params:         0       0       0       0       0       0
  5039 ;;      Locals:         0       0       0       0       0       0
  5040 ;;      Temps:          0       0       0       0       0       0
  5041 ;;      Totals:         0       0       0       0       0       0
  5042 ;;Total ram usage:        0 bytes
  5043 ;; Hardware stack levels used: 1
  5044 ;; Hardware stack levels required when called: 6
  5045 ;; This function calls:
  5046 ;;		Nothing
  5047 ;; This function is called by:
  5048 ;;		_SYSTEM_Initialize
  5049 ;; This function uses a non-reentrant model
  5050 ;;
  5051                           
  5052     0E54                     _TMR2_Initialize:	
  5053                           ;psect for function _TMR2_Initialize
  5054                           
  5055     0E54                     l2123:	
  5056                           ;incstack = 0
  5057                           ; Regs used in _TMR2_Initialize: [wreg+status,2]
  5058                           
  5059                           
  5060                           ;mcc_generated_files/tmr2.c: 67:     PR2 = 0xFF;
  5061     0E54  30FF               	movlw	255
  5062     0E55  0020               	movlb	0	; select bank0
  5063     0E56  009B               	movwf	27	;volatile
  5064     0E57                     l2125:
  5065                           
  5066                           ;mcc_generated_files/tmr2.c: 70:     TMR2 = 0x00;
  5067     0E57  019A               	clrf	26	;volatile
  5068     0E58                     l2127:
  5069                           
  5070                           ;mcc_generated_files/tmr2.c: 73:     PIR1bits.TMR2IF = 0;
  5071     0E58  1091               	bcf	17,1	;volatile
  5072     0E59                     l2129:
  5073                           
  5074                           ;mcc_generated_files/tmr2.c: 76:     T2CON = 0x04;
  5075     0E59  3004               	movlw	4
  5076     0E5A  009C               	movwf	28	;volatile
  5077     0E5B                     l269:
  5078     0E5B  0008               	return
  5079     0E5C                     __end_of_TMR2_Initialize:
  5080                           
  5081                           	psect	text11
  5082     0F53                     __ptext11:	
  5083 ;; *************** function _TMR1_Initialize *****************
  5084 ;; Defined at:
  5085 ;;		line 64 in file "mcc_generated_files/tmr1.c"
  5086 ;; Parameters:    Size  Location     Type
  5087 ;;		None
  5088 ;; Auto vars:     Size  Location     Type
  5089 ;;		None
  5090 ;; Return value:  Size  Location     Type
  5091 ;;                  1    wreg      void 
  5092 ;; Registers used:
  5093 ;;		wreg, status,2, status,0, pclath, cstack
  5094 ;; Tracked objects:
  5095 ;;		On entry : 0/0
  5096 ;;		On exit  : 0/0
  5097 ;;		Unchanged: 0/0
  5098 ;; Data sizes:     COMMON   BANK0   BANK1   BANK2   BANK3   BANK4
  5099 ;;      Params:         0       0       0       0       0       0
  5100 ;;      Locals:         0       0       0       0       0       0
  5101 ;;      Temps:          0       0       0       0       0       0
  5102 ;;      Totals:         0       0       0       0       0       0
  5103 ;;Total ram usage:        0 bytes
  5104 ;; Hardware stack levels used: 1
  5105 ;; Hardware stack levels required when called: 7
  5106 ;; This function calls:
  5107 ;;		_TMR1_SetInterruptHandler
  5108 ;; This function is called by:
  5109 ;;		_SYSTEM_Initialize
  5110 ;; This function uses a non-reentrant model
  5111 ;;
  5112                           
  5113     0F53                     _TMR1_Initialize:	
  5114                           ;psect for function _TMR1_Initialize
  5115                           
  5116     0F53                     l2131:	
  5117                           ;incstack = 0
  5118                           ; Regs used in _TMR1_Initialize: [wreg+status,2+status,0+pclath+cstack]
  5119                           
  5120                           
  5121                           ;mcc_generated_files/tmr1.c: 69:     T1GCON = 0x00;
  5122     0F53  0020               	movlb	0	; select bank0
  5123     0F54  0199               	clrf	25	;volatile
  5124     0F55                     l2133:
  5125                           
  5126                           ;mcc_generated_files/tmr1.c: 72:     TMR1H = 0x0B;
  5127     0F55  300B               	movlw	11
  5128     0F56  0097               	movwf	23	;volatile
  5129     0F57                     l2135:
  5130                           
  5131                           ;mcc_generated_files/tmr1.c: 75:     TMR1L = 0xDC;
  5132     0F57  30DC               	movlw	220
  5133     0F58  0096               	movwf	22	;volatile
  5134     0F59                     l2137:
  5135                           
  5136                           ;mcc_generated_files/tmr1.c: 78:     PIR1bits.TMR1IF = 0;
  5137     0F59  1011               	bcf	17,0	;volatile
  5138     0F5A                     l2139:
  5139                           
  5140                           ;mcc_generated_files/tmr1.c: 81:     timer1ReloadVal=(uint16_t)((TMR1H << 8) | TMR1L);
  5141     0F5A  0817               	movf	23,w	;volatile
  5142     0F5B  00E4               	movwf	_timer1ReloadVal+1	;volatile
  5143     0F5C  0816               	movf	22,w	;volatile
  5144     0F5D  00E3               	movwf	_timer1ReloadVal	;volatile
  5145     0F5E                     l2141:
  5146                           
  5147                           ;mcc_generated_files/tmr1.c: 84:     PIE1bits.TMR1IE = 1;
  5148     0F5E  0021               	movlb	1	; select bank1
  5149     0F5F  1411               	bsf	17,0	;volatile
  5150     0F60                     l2143:
  5151                           
  5152                           ;mcc_generated_files/tmr1.c: 87:     TMR1_SetInterruptHandler(TMR1_DefaultInterruptHandl
      +                          er);
  5153     0F60  3034               	movlw	low _TMR1_DefaultInterruptHandler
  5154     0F61  0020               	movlb	0	; select bank0
  5155     0F62  00A7               	movwf	TMR1_SetInterruptHandler@InterruptHandler
  5156     0F63  300E               	movlw	high _TMR1_DefaultInterruptHandler
  5157     0F64  00A8               	movwf	TMR1_SetInterruptHandler@InterruptHandler+1
  5158     0F65  318E  2689  318F   	fcall	_TMR1_SetInterruptHandler
  5159     0F68                     l2145:
  5160                           
  5161                           ;mcc_generated_files/tmr1.c: 90:     T1CON = 0x21;
  5162     0F68  3021               	movlw	33
  5163     0F69  0020               	movlb	0	; select bank0
  5164     0F6A  0098               	movwf	24	;volatile
  5165     0F6B                     l223:
  5166     0F6B  0008               	return
  5167     0F6C                     __end_of_TMR1_Initialize:
  5168                           
  5169                           	psect	text12
  5170     0E89                     __ptext12:	
  5171 ;; *************** function _TMR1_SetInterruptHandler *****************
  5172 ;; Defined at:
  5173 ;;		line 171 in file "mcc_generated_files/tmr1.c"
  5174 ;; Parameters:    Size  Location     Type
  5175 ;;  InterruptHan    2    7[BANK0 ] PTR FTN()void 
  5176 ;;		 -> displayMux(1), TMR1_DefaultInterruptHandler(1), 
  5177 ;; Auto vars:     Size  Location     Type
  5178 ;;		None
  5179 ;; Return value:  Size  Location     Type
  5180 ;;                  1    wreg      void 
  5181 ;; Registers used:
  5182 ;;		wreg
  5183 ;; Tracked objects:
  5184 ;;		On entry : 0/0
  5185 ;;		On exit  : 0/0
  5186 ;;		Unchanged: 0/0
  5187 ;; Data sizes:     COMMON   BANK0   BANK1   BANK2   BANK3   BANK4
  5188 ;;      Params:         0       2       0       0       0       0
  5189 ;;      Locals:         0       0       0       0       0       0
  5190 ;;      Temps:          0       0       0       0       0       0
  5191 ;;      Totals:         0       2       0       0       0       0
  5192 ;;Total ram usage:        2 bytes
  5193 ;; Hardware stack levels used: 1
  5194 ;; Hardware stack levels required when called: 6
  5195 ;; This function calls:
  5196 ;;		Nothing
  5197 ;; This function is called by:
  5198 ;;		_TMR1_Initialize
  5199 ;;		_main
  5200 ;; This function uses a non-reentrant model
  5201 ;;
  5202                           
  5203     0E89                     _TMR1_SetInterruptHandler:	
  5204                           ;psect for function _TMR1_SetInterruptHandler
  5205                           
  5206     0E89                     l2021:	
  5207                           ;incstack = 0
  5208                           ; Regs used in _TMR1_SetInterruptHandler: [wreg]
  5209                           
  5210                           
  5211                           ;mcc_generated_files/tmr1.c: 172:     TMR1_InterruptHandler = InterruptHandler;
  5212     0E89  0020               	movlb	0	; select bank0
  5213     0E8A  0828               	movf	TMR1_SetInterruptHandler@InterruptHandler+1,w
  5214     0E8B  0021               	movlb	1	; select bank1
  5215     0E8C  00AD               	movwf	(_TMR1_InterruptHandler+1)^(0+128)
  5216     0E8D  0020               	movlb	0	; select bank0
  5217     0E8E  0827               	movf	TMR1_SetInterruptHandler@InterruptHandler,w
  5218     0E8F  0021               	movlb	1	; select bank1
  5219     0E90  00AC               	movwf	_TMR1_InterruptHandler^(0+128)
  5220     0E91                     l253:
  5221     0E91  0008               	return
  5222     0E92                     __end_of_TMR1_SetInterruptHandler:
  5223                           
  5224                           	psect	text13
  5225     07AA                     __ptext13:	
  5226 ;; *************** function _PIN_MANAGER_Initialize *****************
  5227 ;; Defined at:
  5228 ;;		line 58 in file "mcc_generated_files/pin_manager.c"
  5229 ;; Parameters:    Size  Location     Type
  5230 ;;		None
  5231 ;; Auto vars:     Size  Location     Type
  5232 ;;		None
  5233 ;; Return value:  Size  Location     Type
  5234 ;;                  1    wreg      void 
  5235 ;; Registers used:
  5236 ;;		wreg, status,2, status,0, pclath, cstack
  5237 ;; Tracked objects:
  5238 ;;		On entry : 0/0
  5239 ;;		On exit  : 0/0
  5240 ;;		Unchanged: 0/0
  5241 ;; Data sizes:     COMMON   BANK0   BANK1   BANK2   BANK3   BANK4
  5242 ;;      Params:         0       0       0       0       0       0
  5243 ;;      Locals:         0       0       0       0       0       0
  5244 ;;      Temps:          0       0       0       0       0       0
  5245 ;;      Totals:         0       0       0       0       0       0
  5246 ;;Total ram usage:        0 bytes
  5247 ;; Hardware stack levels used: 1
  5248 ;; Hardware stack levels required when called: 7
  5249 ;; This function calls:
  5250 ;;		_IOCBF0_SetInterruptHandler
  5251 ;;		_IOCBF3_SetInterruptHandler
  5252 ;; This function is called by:
  5253 ;;		_SYSTEM_Initialize
  5254 ;; This function uses a non-reentrant model
  5255 ;;
  5256                           
  5257     07AA                     _PIN_MANAGER_Initialize:	
  5258                           ;psect for function _PIN_MANAGER_Initialize
  5259                           
  5260     07AA                     l2055:	
  5261                           ;incstack = 0
  5262                           ; Regs used in _PIN_MANAGER_Initialize: [wreg+status,2+status,0+pclath+cstack]
  5263                           
  5264                           
  5265                           ;mcc_generated_files/pin_manager.c: 63:     LATA = 0x00;
  5266     07AA  0022               	movlb	2	; select bank2
  5267     07AB  018C               	clrf	12	;volatile
  5268     07AC                     l2057:
  5269                           
  5270                           ;mcc_generated_files/pin_manager.c: 64:     LATB = 0x09;
  5271     07AC  3009               	movlw	9
  5272     07AD  008D               	movwf	13	;volatile
  5273     07AE                     l2059:
  5274                           
  5275                           ;mcc_generated_files/pin_manager.c: 69:     TRISA = 0x20;
  5276     07AE  3020               	movlw	32
  5277     07AF  0021               	movlb	1	; select bank1
  5278     07B0  008C               	movwf	12	;volatile
  5279     07B1                     l2061:
  5280                           
  5281                           ;mcc_generated_files/pin_manager.c: 70:     TRISB = 0x1F;
  5282     07B1  301F               	movlw	31
  5283     07B2  008D               	movwf	13	;volatile
  5284     07B3                     l2063:
  5285                           
  5286                           ;mcc_generated_files/pin_manager.c: 75:     ANSELB = 0x10;
  5287     07B3  3010               	movlw	16
  5288     07B4  0023               	movlb	3	; select bank3
  5289     07B5  008D               	movwf	13	;volatile
  5290                           
  5291                           ;mcc_generated_files/pin_manager.c: 76:     ANSELA = 0x00;
  5292     07B6  018C               	clrf	12	;volatile
  5293                           
  5294                           ;mcc_generated_files/pin_manager.c: 81:     WPUB = 0x00;
  5295     07B7  0024               	movlb	4	; select bank4
  5296     07B8  018D               	clrf	13	;volatile
  5297                           
  5298                           ;mcc_generated_files/pin_manager.c: 82:     WPUA = 0x00;
  5299     07B9  018C               	clrf	12	;volatile
  5300     07BA                     l2065:
  5301                           
  5302                           ;mcc_generated_files/pin_manager.c: 83:     OPTION_REGbits.nWPUEN = 1;
  5303     07BA  0021               	movlb	1	; select bank1
  5304     07BB  1795               	bsf	21,7	;volatile
  5305                           
  5306                           ;mcc_generated_files/pin_manager.c: 89:     APFCON0 = 0x00;
  5307     07BC  0022               	movlb	2	; select bank2
  5308     07BD  019D               	clrf	29	;volatile
  5309                           
  5310                           ;mcc_generated_files/pin_manager.c: 90:     APFCON1 = 0x00;
  5311     07BE  019E               	clrf	30	;volatile
  5312     07BF                     l2067:
  5313                           
  5314                           ;mcc_generated_files/pin_manager.c: 96:     IOCBFbits.IOCBF0 = 0;
  5315     07BF  0027               	movlb	7	; select bank7
  5316     07C0  1016               	bcf	22,0	;volatile
  5317     07C1                     l2069:
  5318                           
  5319                           ;mcc_generated_files/pin_manager.c: 98:     IOCBFbits.IOCBF3 = 0;
  5320     07C1  1196               	bcf	22,3	;volatile
  5321     07C2                     l2071:
  5322                           
  5323                           ;mcc_generated_files/pin_manager.c: 100:     IOCBNbits.IOCBN0 = 1;
  5324     07C2  1415               	bsf	21,0	;volatile
  5325     07C3                     l2073:
  5326                           
  5327                           ;mcc_generated_files/pin_manager.c: 102:     IOCBNbits.IOCBN3 = 1;
  5328     07C3  1595               	bsf	21,3	;volatile
  5329     07C4                     l2075:
  5330                           
  5331                           ;mcc_generated_files/pin_manager.c: 104:     IOCBPbits.IOCBP0 = 0;
  5332     07C4  1014               	bcf	20,0	;volatile
  5333     07C5                     l2077:
  5334                           
  5335                           ;mcc_generated_files/pin_manager.c: 106:     IOCBPbits.IOCBP3 = 0;
  5336     07C5  1194               	bcf	20,3	;volatile
  5337     07C6                     l2079:
  5338                           
  5339                           ;mcc_generated_files/pin_manager.c: 111:     IOCBF0_SetInterruptHandler(IOCBF0_DefaultIn
      +                          terruptHandler);
  5340     07C6  3032               	movlw	low _IOCBF0_DefaultInterruptHandler
  5341     07C7  0020               	movlb	0	; select bank0
  5342     07C8  00A7               	movwf	IOCBF0_SetInterruptHandler@InterruptHandler
  5343     07C9  300E               	movlw	high _IOCBF0_DefaultInterruptHandler
  5344     07CA  00A8               	movwf	IOCBF0_SetInterruptHandler@InterruptHandler+1
  5345     07CB  318E  2677  3187   	fcall	_IOCBF0_SetInterruptHandler
  5346     07CE                     l2081:
  5347                           
  5348                           ;mcc_generated_files/pin_manager.c: 112:     IOCBF3_SetInterruptHandler(IOCBF3_DefaultIn
      +                          terruptHandler);
  5349     07CE  3033               	movlw	low _IOCBF3_DefaultInterruptHandler
  5350     07CF  0020               	movlb	0	; select bank0
  5351     07D0  00A7               	movwf	IOCBF3_SetInterruptHandler@InterruptHandler
  5352     07D1  300E               	movlw	high _IOCBF3_DefaultInterruptHandler
  5353     07D2  00A8               	movwf	IOCBF3_SetInterruptHandler@InterruptHandler+1
  5354     07D3  318E  2680  3187   	fcall	_IOCBF3_SetInterruptHandler
  5355     07D6                     l2083:
  5356                           
  5357                           ;mcc_generated_files/pin_manager.c: 115:     INTCONbits.IOCIE = 1;
  5358     07D6  158B               	bsf	11,3	;volatile
  5359     07D7                     l113:
  5360     07D7  0008               	return
  5361     07D8                     __end_of_PIN_MANAGER_Initialize:
  5362                           
  5363                           	psect	text14
  5364     0E80                     __ptext14:	
  5365 ;; *************** function _IOCBF3_SetInterruptHandler *****************
  5366 ;; Defined at:
  5367 ;;		line 181 in file "mcc_generated_files/pin_manager.c"
  5368 ;; Parameters:    Size  Location     Type
  5369 ;;  InterruptHan    2    7[BANK0 ] PTR FTN()void 
  5370 ;;		 -> carOut(1), IOCBF3_DefaultInterruptHandler(1), 
  5371 ;; Auto vars:     Size  Location     Type
  5372 ;;		None
  5373 ;; Return value:  Size  Location     Type
  5374 ;;                  1    wreg      void 
  5375 ;; Registers used:
  5376 ;;		wreg
  5377 ;; Tracked objects:
  5378 ;;		On entry : 0/0
  5379 ;;		On exit  : 0/0
  5380 ;;		Unchanged: 0/0
  5381 ;; Data sizes:     COMMON   BANK0   BANK1   BANK2   BANK3   BANK4
  5382 ;;      Params:         0       2       0       0       0       0
  5383 ;;      Locals:         0       0       0       0       0       0
  5384 ;;      Temps:          0       0       0       0       0       0
  5385 ;;      Totals:         0       2       0       0       0       0
  5386 ;;Total ram usage:        2 bytes
  5387 ;; Hardware stack levels used: 1
  5388 ;; Hardware stack levels required when called: 6
  5389 ;; This function calls:
  5390 ;;		Nothing
  5391 ;; This function is called by:
  5392 ;;		_PIN_MANAGER_Initialize
  5393 ;;		_main
  5394 ;; This function uses a non-reentrant model
  5395 ;;
  5396                           
  5397     0E80                     _IOCBF3_SetInterruptHandler:	
  5398                           ;psect for function _IOCBF3_SetInterruptHandler
  5399                           
  5400     0E80                     l2019:	
  5401                           ;incstack = 0
  5402                           ; Regs used in _IOCBF3_SetInterruptHandler: [wreg]
  5403                           
  5404                           
  5405                           ;mcc_generated_files/pin_manager.c: 182:     IOCBF3_InterruptHandler = InterruptHandler;
  5406     0E80  0020               	movlb	0	; select bank0
  5407     0E81  0828               	movf	IOCBF3_SetInterruptHandler@InterruptHandler+1,w
  5408     0E82  0021               	movlb	1	; select bank1
  5409     0E83  00AF               	movwf	(_IOCBF3_InterruptHandler+1)^(0+128)
  5410     0E84  0020               	movlb	0	; select bank0
  5411     0E85  0827               	movf	IOCBF3_SetInterruptHandler@InterruptHandler,w
  5412     0E86  0021               	movlb	1	; select bank1
  5413     0E87  00AE               	movwf	_IOCBF3_InterruptHandler^(0+128)
  5414     0E88                     l135:
  5415     0E88  0008               	return
  5416     0E89                     __end_of_IOCBF3_SetInterruptHandler:
  5417                           
  5418                           	psect	text15
  5419     0E77                     __ptext15:	
  5420 ;; *************** function _IOCBF0_SetInterruptHandler *****************
  5421 ;; Defined at:
  5422 ;;		line 151 in file "mcc_generated_files/pin_manager.c"
  5423 ;; Parameters:    Size  Location     Type
  5424 ;;  InterruptHan    2    7[BANK0 ] PTR FTN()void 
  5425 ;;		 -> carIn(1), IOCBF0_DefaultInterruptHandler(1), 
  5426 ;; Auto vars:     Size  Location     Type
  5427 ;;		None
  5428 ;; Return value:  Size  Location     Type
  5429 ;;                  1    wreg      void 
  5430 ;; Registers used:
  5431 ;;		wreg
  5432 ;; Tracked objects:
  5433 ;;		On entry : 0/0
  5434 ;;		On exit  : 0/0
  5435 ;;		Unchanged: 0/0
  5436 ;; Data sizes:     COMMON   BANK0   BANK1   BANK2   BANK3   BANK4
  5437 ;;      Params:         0       2       0       0       0       0
  5438 ;;      Locals:         0       0       0       0       0       0
  5439 ;;      Temps:          0       0       0       0       0       0
  5440 ;;      Totals:         0       2       0       0       0       0
  5441 ;;Total ram usage:        2 bytes
  5442 ;; Hardware stack levels used: 1
  5443 ;; Hardware stack levels required when called: 6
  5444 ;; This function calls:
  5445 ;;		Nothing
  5446 ;; This function is called by:
  5447 ;;		_PIN_MANAGER_Initialize
  5448 ;;		_main
  5449 ;; This function uses a non-reentrant model
  5450 ;;
  5451                           
  5452     0E77                     _IOCBF0_SetInterruptHandler:	
  5453                           ;psect for function _IOCBF0_SetInterruptHandler
  5454                           
  5455     0E77                     l2017:	
  5456                           ;incstack = 0
  5457                           ; Regs used in _IOCBF0_SetInterruptHandler: [wreg]
  5458                           
  5459                           
  5460                           ;mcc_generated_files/pin_manager.c: 152:     IOCBF0_InterruptHandler = InterruptHandler;
  5461     0E77  0020               	movlb	0	; select bank0
  5462     0E78  0828               	movf	IOCBF0_SetInterruptHandler@InterruptHandler+1,w
  5463     0E79  0021               	movlb	1	; select bank1
  5464     0E7A  00B1               	movwf	(_IOCBF0_InterruptHandler+1)^(0+128)
  5465     0E7B  0020               	movlb	0	; select bank0
  5466     0E7C  0827               	movf	IOCBF0_SetInterruptHandler@InterruptHandler,w
  5467     0E7D  0021               	movlb	1	; select bank1
  5468     0E7E  00B0               	movwf	_IOCBF0_InterruptHandler^(0+128)
  5469     0E7F                     l125:
  5470     0E7F  0008               	return
  5471     0E80                     __end_of_IOCBF0_SetInterruptHandler:
  5472                           
  5473                           	psect	text16
  5474     0E45                     __ptext16:	
  5475 ;; *************** function _OSCILLATOR_Initialize *****************
  5476 ;; Defined at:
  5477 ;;		line 64 in file "mcc_generated_files/mcc.c"
  5478 ;; Parameters:    Size  Location     Type
  5479 ;;		None
  5480 ;; Auto vars:     Size  Location     Type
  5481 ;;		None
  5482 ;; Return value:  Size  Location     Type
  5483 ;;                  1    wreg      void 
  5484 ;; Registers used:
  5485 ;;		wreg, status,2
  5486 ;; Tracked objects:
  5487 ;;		On entry : 0/0
  5488 ;;		On exit  : 0/0
  5489 ;;		Unchanged: 0/0
  5490 ;; Data sizes:     COMMON   BANK0   BANK1   BANK2   BANK3   BANK4
  5491 ;;      Params:         0       0       0       0       0       0
  5492 ;;      Locals:         0       0       0       0       0       0
  5493 ;;      Temps:          0       0       0       0       0       0
  5494 ;;      Totals:         0       0       0       0       0       0
  5495 ;;Total ram usage:        0 bytes
  5496 ;; Hardware stack levels used: 1
  5497 ;; Hardware stack levels required when called: 6
  5498 ;; This function calls:
  5499 ;;		Nothing
  5500 ;; This function is called by:
  5501 ;;		_SYSTEM_Initialize
  5502 ;; This function uses a non-reentrant model
  5503 ;;
  5504                           
  5505     0E45                     _OSCILLATOR_Initialize:	
  5506                           ;psect for function _OSCILLATOR_Initialize
  5507                           
  5508     0E45                     l2085:	
  5509                           ;incstack = 0
  5510                           ; Regs used in _OSCILLATOR_Initialize: [wreg+status,2]
  5511                           
  5512                           
  5513                           ;mcc_generated_files/mcc.c: 67:     OSCCON = 0x60;
  5514     0E45  3060               	movlw	96
  5515     0E46  0021               	movlb	1	; select bank1
  5516     0E47  0099               	movwf	25	;volatile
  5517     0E48                     l2087:
  5518                           
  5519                           ;mcc_generated_files/mcc.c: 69:     OSCTUNE = 0x00;
  5520     0E48  0198               	clrf	24	;volatile
  5521     0E49                     l2089:
  5522                           
  5523                           ;mcc_generated_files/mcc.c: 71:     BORCON = 0x00;
  5524     0E49  0022               	movlb	2	; select bank2
  5525     0E4A  0196               	clrf	22	;volatile
  5526     0E4B                     l32:
  5527     0E4B  0008               	return
  5528     0E4C                     __end_of_OSCILLATOR_Initialize:
  5529                           
  5530                           	psect	text17
  5531     07D8                     __ptext17:	
  5532 ;; *************** function _EUSART_Initialize *****************
  5533 ;; Defined at:
  5534 ;;		line 66 in file "mcc_generated_files/eusart.c"
  5535 ;; Parameters:    Size  Location     Type
  5536 ;;		None
  5537 ;; Auto vars:     Size  Location     Type
  5538 ;;		None
  5539 ;; Return value:  Size  Location     Type
  5540 ;;                  1    wreg      void 
  5541 ;; Registers used:
  5542 ;;		wreg, status,2, status,0, pclath, cstack
  5543 ;; Tracked objects:
  5544 ;;		On entry : 0/0
  5545 ;;		On exit  : 0/0
  5546 ;;		Unchanged: 0/0
  5547 ;; Data sizes:     COMMON   BANK0   BANK1   BANK2   BANK3   BANK4
  5548 ;;      Params:         0       0       0       0       0       0
  5549 ;;      Locals:         0       0       0       0       0       0
  5550 ;;      Temps:          0       0       0       0       0       0
  5551 ;;      Totals:         0       0       0       0       0       0
  5552 ;;Total ram usage:        0 bytes
  5553 ;; Hardware stack levels used: 1
  5554 ;; Hardware stack levels required when called: 7
  5555 ;; This function calls:
  5556 ;;		_EUSART_SetErrorHandler
  5557 ;;		_EUSART_SetFramingErrorHandler
  5558 ;;		_EUSART_SetOverrunErrorHandler
  5559 ;; This function is called by:
  5560 ;;		_SYSTEM_Initialize
  5561 ;; This function uses a non-reentrant model
  5562 ;;
  5563                           
  5564     07D8                     _EUSART_Initialize:	
  5565                           ;psect for function _EUSART_Initialize
  5566                           
  5567     07D8                     l2147:	
  5568                           ;incstack = 0
  5569                           ; Regs used in _EUSART_Initialize: [wreg+status,2+status,0+pclath+cstack]
  5570                           
  5571                           
  5572                           ;mcc_generated_files/eusart.c: 71:     BAUDCON = 0x08;
  5573     07D8  3008               	movlw	8
  5574     07D9  0023               	movlb	3	; select bank3
  5575     07DA  009F               	movwf	31	;volatile
  5576                           
  5577                           ;mcc_generated_files/eusart.c: 74:     RCSTA = 0x90;
  5578     07DB  3090               	movlw	144
  5579     07DC  009D               	movwf	29	;volatile
  5580                           
  5581                           ;mcc_generated_files/eusart.c: 77:     TXSTA = 0x24;
  5582     07DD  3024               	movlw	36
  5583     07DE  009E               	movwf	30	;volatile
  5584                           
  5585                           ;mcc_generated_files/eusart.c: 80:     SPBRGL = 0x33;
  5586     07DF  3033               	movlw	51
  5587     07E0  009B               	movwf	27	;volatile
  5588     07E1                     l2149:
  5589                           
  5590                           ;mcc_generated_files/eusart.c: 83:     SPBRGH = 0x00;
  5591     07E1  019C               	clrf	28	;volatile
  5592     07E2                     l2151:
  5593                           
  5594                           ;mcc_generated_files/eusart.c: 86:     EUSART_SetFramingErrorHandler(EUSART_DefaultFrami
      +                          ngErrorHandler);
  5595     07E2  3000               	movlw	0
  5596     07E3  0020               	movlb	0	; select bank0
  5597     07E4  00A7               	movwf	EUSART_SetFramingErrorHandler@interruptHandler
  5598     07E5  3000               	movlw	0
  5599     07E6  00A8               	movwf	EUSART_SetFramingErrorHandler@interruptHandler+1
  5600     07E7  318E  2665  3187   	fcall	_EUSART_SetFramingErrorHandler
  5601     07EA                     l2153:
  5602                           
  5603                           ;mcc_generated_files/eusart.c: 87:     EUSART_SetOverrunErrorHandler(EUSART_DefaultOverr
      +                          unErrorHandler);
  5604     07EA  3000               	movlw	0
  5605     07EB  0020               	movlb	0	; select bank0
  5606     07EC  00A7               	movwf	EUSART_SetOverrunErrorHandler@interruptHandler
  5607     07ED  3000               	movlw	0
  5608     07EE  00A8               	movwf	EUSART_SetOverrunErrorHandler@interruptHandler+1
  5609     07EF  318E  266E  3187   	fcall	_EUSART_SetOverrunErrorHandler
  5610     07F2                     l2155:
  5611                           
  5612                           ;mcc_generated_files/eusart.c: 88:     EUSART_SetErrorHandler(EUSART_DefaultErrorHandler
      +                          );
  5613     07F2  3000               	movlw	0
  5614     07F3  0020               	movlb	0	; select bank0
  5615     07F4  00A7               	movwf	EUSART_SetErrorHandler@interruptHandler
  5616     07F5  3000               	movlw	0
  5617     07F6  00A8               	movwf	EUSART_SetErrorHandler@interruptHandler+1
  5618     07F7  318E  265C  3187   	fcall	_EUSART_SetErrorHandler
  5619     07FA                     l2157:
  5620                           
  5621                           ;mcc_generated_files/eusart.c: 90:     eusartRxLastError.status = 0;
  5622     07FA  0020               	movlb	0	; select bank0
  5623     07FB  01E5               	clrf	_eusartRxLastError	;volatile
  5624     07FC                     l331:
  5625     07FC  0008               	return
  5626     07FD                     __end_of_EUSART_Initialize:
  5627                           
  5628                           	psect	text18
  5629     0E6E                     __ptext18:	
  5630 ;; *************** function _EUSART_SetOverrunErrorHandler *****************
  5631 ;; Defined at:
  5632 ;;		line 161 in file "mcc_generated_files/eusart.c"
  5633 ;; Parameters:    Size  Location     Type
  5634 ;;  interruptHan    2    7[BANK0 ] PTR FTN()void 
  5635 ;;		 -> EUSART_DefaultOverrunErrorHandler(1), 
  5636 ;; Auto vars:     Size  Location     Type
  5637 ;;		None
  5638 ;; Return value:  Size  Location     Type
  5639 ;;                  1    wreg      void 
  5640 ;; Registers used:
  5641 ;;		wreg
  5642 ;; Tracked objects:
  5643 ;;		On entry : 0/0
  5644 ;;		On exit  : 0/0
  5645 ;;		Unchanged: 0/0
  5646 ;; Data sizes:     COMMON   BANK0   BANK1   BANK2   BANK3   BANK4
  5647 ;;      Params:         0       2       0       0       0       0
  5648 ;;      Locals:         0       0       0       0       0       0
  5649 ;;      Temps:          0       0       0       0       0       0
  5650 ;;      Totals:         0       2       0       0       0       0
  5651 ;;Total ram usage:        2 bytes
  5652 ;; Hardware stack levels used: 1
  5653 ;; Hardware stack levels required when called: 6
  5654 ;; This function calls:
  5655 ;;		Nothing
  5656 ;; This function is called by:
  5657 ;;		_EUSART_Initialize
  5658 ;; This function uses a non-reentrant model
  5659 ;;
  5660                           
  5661     0E6E                     _EUSART_SetOverrunErrorHandler:	
  5662                           ;psect for function _EUSART_SetOverrunErrorHandler
  5663                           
  5664     0E6E                     l2025:	
  5665                           ;incstack = 0
  5666                           ; Regs used in _EUSART_SetOverrunErrorHandler: [wreg]
  5667                           
  5668                           
  5669                           ;mcc_generated_files/eusart.c: 162:     EUSART_OverrunErrorHandler = interruptHandler;
  5670     0E6E  0020               	movlb	0	; select bank0
  5671     0E6F  0828               	movf	EUSART_SetOverrunErrorHandler@interruptHandler+1,w
  5672     0E70  0021               	movlb	1	; select bank1
  5673     0E71  00A9               	movwf	(_EUSART_OverrunErrorHandler+1)^(0+128)
  5674     0E72  0020               	movlb	0	; select bank0
  5675     0E73  0827               	movf	EUSART_SetOverrunErrorHandler@interruptHandler,w
  5676     0E74  0021               	movlb	1	; select bank1
  5677     0E75  00A8               	movwf	_EUSART_OverrunErrorHandler^(0+128)
  5678     0E76                     l373:
  5679     0E76  0008               	return
  5680     0E77                     __end_of_EUSART_SetOverrunErrorHandler:
  5681                           
  5682                           	psect	text19
  5683     0E65                     __ptext19:	
  5684 ;; *************** function _EUSART_SetFramingErrorHandler *****************
  5685 ;; Defined at:
  5686 ;;		line 157 in file "mcc_generated_files/eusart.c"
  5687 ;; Parameters:    Size  Location     Type
  5688 ;;  interruptHan    2    7[BANK0 ] PTR FTN()void 
  5689 ;;		 -> EUSART_DefaultFramingErrorHandler(1), 
  5690 ;; Auto vars:     Size  Location     Type
  5691 ;;		None
  5692 ;; Return value:  Size  Location     Type
  5693 ;;                  1    wreg      void 
  5694 ;; Registers used:
  5695 ;;		wreg
  5696 ;; Tracked objects:
  5697 ;;		On entry : 0/0
  5698 ;;		On exit  : 0/0
  5699 ;;		Unchanged: 0/0
  5700 ;; Data sizes:     COMMON   BANK0   BANK1   BANK2   BANK3   BANK4
  5701 ;;      Params:         0       2       0       0       0       0
  5702 ;;      Locals:         0       0       0       0       0       0
  5703 ;;      Temps:          0       0       0       0       0       0
  5704 ;;      Totals:         0       2       0       0       0       0
  5705 ;;Total ram usage:        2 bytes
  5706 ;; Hardware stack levels used: 1
  5707 ;; Hardware stack levels required when called: 6
  5708 ;; This function calls:
  5709 ;;		Nothing
  5710 ;; This function is called by:
  5711 ;;		_EUSART_Initialize
  5712 ;; This function uses a non-reentrant model
  5713 ;;
  5714                           
  5715     0E65                     _EUSART_SetFramingErrorHandler:	
  5716                           ;psect for function _EUSART_SetFramingErrorHandler
  5717                           
  5718     0E65                     l2023:	
  5719                           ;incstack = 0
  5720                           ; Regs used in _EUSART_SetFramingErrorHandler: [wreg]
  5721                           
  5722                           
  5723                           ;mcc_generated_files/eusart.c: 158:     EUSART_FramingErrorHandler = interruptHandler;
  5724     0E65  0020               	movlb	0	; select bank0
  5725     0E66  0828               	movf	EUSART_SetFramingErrorHandler@interruptHandler+1,w
  5726     0E67  0021               	movlb	1	; select bank1
  5727     0E68  00AB               	movwf	(_EUSART_FramingErrorHandler+1)^(0+128)
  5728     0E69  0020               	movlb	0	; select bank0
  5729     0E6A  0827               	movf	EUSART_SetFramingErrorHandler@interruptHandler,w
  5730     0E6B  0021               	movlb	1	; select bank1
  5731     0E6C  00AA               	movwf	_EUSART_FramingErrorHandler^(0+128)
  5732     0E6D                     l370:
  5733     0E6D  0008               	return
  5734     0E6E                     __end_of_EUSART_SetFramingErrorHandler:
  5735                           
  5736                           	psect	text20
  5737     0E5C                     __ptext20:	
  5738 ;; *************** function _EUSART_SetErrorHandler *****************
  5739 ;; Defined at:
  5740 ;;		line 165 in file "mcc_generated_files/eusart.c"
  5741 ;; Parameters:    Size  Location     Type
  5742 ;;  interruptHan    2    7[BANK0 ] PTR FTN()void 
  5743 ;;		 -> EUSART_DefaultErrorHandler(1), 
  5744 ;; Auto vars:     Size  Location     Type
  5745 ;;		None
  5746 ;; Return value:  Size  Location     Type
  5747 ;;                  1    wreg      void 
  5748 ;; Registers used:
  5749 ;;		wreg
  5750 ;; Tracked objects:
  5751 ;;		On entry : 0/0
  5752 ;;		On exit  : 0/0
  5753 ;;		Unchanged: 0/0
  5754 ;; Data sizes:     COMMON   BANK0   BANK1   BANK2   BANK3   BANK4
  5755 ;;      Params:         0       2       0       0       0       0
  5756 ;;      Locals:         0       0       0       0       0       0
  5757 ;;      Temps:          0       0       0       0       0       0
  5758 ;;      Totals:         0       2       0       0       0       0
  5759 ;;Total ram usage:        2 bytes
  5760 ;; Hardware stack levels used: 1
  5761 ;; Hardware stack levels required when called: 6
  5762 ;; This function calls:
  5763 ;;		Nothing
  5764 ;; This function is called by:
  5765 ;;		_EUSART_Initialize
  5766 ;; This function uses a non-reentrant model
  5767 ;;
  5768                           
  5769     0E5C                     _EUSART_SetErrorHandler:	
  5770                           ;psect for function _EUSART_SetErrorHandler
  5771                           
  5772     0E5C                     l2027:	
  5773                           ;incstack = 0
  5774                           ; Regs used in _EUSART_SetErrorHandler: [wreg]
  5775                           
  5776                           
  5777                           ;mcc_generated_files/eusart.c: 166:     EUSART_ErrorHandler = interruptHandler;
  5778     0E5C  0020               	movlb	0	; select bank0
  5779     0E5D  0828               	movf	EUSART_SetErrorHandler@interruptHandler+1,w
  5780     0E5E  0021               	movlb	1	; select bank1
  5781     0E5F  00A7               	movwf	(_EUSART_ErrorHandler+1)^(0+128)
  5782     0E60  0020               	movlb	0	; select bank0
  5783     0E61  0827               	movf	EUSART_SetErrorHandler@interruptHandler,w
  5784     0E62  0021               	movlb	1	; select bank1
  5785     0E63  00A6               	movwf	_EUSART_ErrorHandler^(0+128)
  5786     0E64                     l376:
  5787     0E64  0008               	return
  5788     0E65                     __end_of_EUSART_SetErrorHandler:
  5789                           
  5790                           	psect	text21
  5791     0EB2                     __ptext21:	
  5792 ;; *************** function _EPWM1_Initialize *****************
  5793 ;; Defined at:
  5794 ;;		line 64 in file "mcc_generated_files/epwm1.c"
  5795 ;; Parameters:    Size  Location     Type
  5796 ;;		None
  5797 ;; Auto vars:     Size  Location     Type
  5798 ;;		None
  5799 ;; Return value:  Size  Location     Type
  5800 ;;                  1    wreg      void 
  5801 ;; Registers used:
  5802 ;;		wreg, status,2, status,0
  5803 ;; Tracked objects:
  5804 ;;		On entry : 0/0
  5805 ;;		On exit  : 0/0
  5806 ;;		Unchanged: 0/0
  5807 ;; Data sizes:     COMMON   BANK0   BANK1   BANK2   BANK3   BANK4
  5808 ;;      Params:         0       0       0       0       0       0
  5809 ;;      Locals:         0       0       0       0       0       0
  5810 ;;      Temps:          0       0       0       0       0       0
  5811 ;;      Totals:         0       0       0       0       0       0
  5812 ;;Total ram usage:        0 bytes
  5813 ;; Hardware stack levels used: 1
  5814 ;; Hardware stack levels required when called: 6
  5815 ;; This function calls:
  5816 ;;		Nothing
  5817 ;; This function is called by:
  5818 ;;		_SYSTEM_Initialize
  5819 ;; This function uses a non-reentrant model
  5820 ;;
  5821                           
  5822     0EB2                     _EPWM1_Initialize:	
  5823                           ;psect for function _EPWM1_Initialize
  5824                           
  5825     0EB2                     l2099:	
  5826                           ;incstack = 0
  5827                           ; Regs used in _EPWM1_Initialize: [wreg+status,2+status,0]
  5828                           
  5829                           
  5830                           ;mcc_generated_files/epwm1.c: 69:  CCP1CON = 0x3C;
  5831     0EB2  303C               	movlw	60
  5832     0EB3  0025               	movlb	5	; select bank5
  5833     0EB4  0093               	movwf	19	;volatile
  5834     0EB5                     l2101:
  5835                           
  5836                           ;mcc_generated_files/epwm1.c: 72:  ECCP1AS = 0x00;
  5837     0EB5  0195               	clrf	21	;volatile
  5838     0EB6                     l2103:
  5839                           
  5840                           ;mcc_generated_files/epwm1.c: 75:  PWM1CON = 0x80;
  5841     0EB6  3080               	movlw	128
  5842     0EB7  0094               	movwf	20	;volatile
  5843     0EB8                     l2105:
  5844                           
  5845                           ;mcc_generated_files/epwm1.c: 78:  PSTR1CON = 0x0E;
  5846     0EB8  300E               	movlw	14
  5847     0EB9  0096               	movwf	22	;volatile
  5848     0EBA                     l2107:
  5849                           
  5850                           ;mcc_generated_files/epwm1.c: 81:  CCPR1H = 0x00;
  5851     0EBA  0192               	clrf	18	;volatile
  5852                           
  5853                           ;mcc_generated_files/epwm1.c: 84:  CCPR1L = 0x7F;
  5854     0EBB  307F               	movlw	127
  5855     0EBC  0091               	movwf	17	;volatile
  5856     0EBD                     l2109:
  5857                           
  5858                           ;mcc_generated_files/epwm1.c: 87:  CCPTMRS0bits.C1TSEL = 0x0;
  5859     0EBD  30FC               	movlw	-4
  5860     0EBE  059E               	andwf	30,f	;volatile
  5861     0EBF                     l193:
  5862     0EBF  0008               	return
  5863     0EC0                     __end_of_EPWM1_Initialize:
  5864                           
  5865                           	psect	text22
  5866     0E4C                     __ptext22:	
  5867 ;; *************** function _ADC_Initialize *****************
  5868 ;; Defined at:
  5869 ;;		line 67 in file "mcc_generated_files/adc.c"
  5870 ;; Parameters:    Size  Location     Type
  5871 ;;		None
  5872 ;; Auto vars:     Size  Location     Type
  5873 ;;		None
  5874 ;; Return value:  Size  Location     Type
  5875 ;;                  1    wreg      void 
  5876 ;; Registers used:
  5877 ;;		wreg, status,2
  5878 ;; Tracked objects:
  5879 ;;		On entry : 0/0
  5880 ;;		On exit  : 0/0
  5881 ;;		Unchanged: 0/0
  5882 ;; Data sizes:     COMMON   BANK0   BANK1   BANK2   BANK3   BANK4
  5883 ;;      Params:         0       0       0       0       0       0
  5884 ;;      Locals:         0       0       0       0       0       0
  5885 ;;      Temps:          0       0       0       0       0       0
  5886 ;;      Totals:         0       0       0       0       0       0
  5887 ;;Total ram usage:        0 bytes
  5888 ;; Hardware stack levels used: 1
  5889 ;; Hardware stack levels required when called: 6
  5890 ;; This function calls:
  5891 ;;		Nothing
  5892 ;; This function is called by:
  5893 ;;		_SYSTEM_Initialize
  5894 ;; This function uses a non-reentrant model
  5895 ;;
  5896                           
  5897     0E4C                     _ADC_Initialize:	
  5898                           ;psect for function _ADC_Initialize
  5899                           
  5900     0E4C                     l2093:	
  5901                           ;incstack = 0
  5902                           ; Regs used in _ADC_Initialize: [wreg+status,2]
  5903                           
  5904                           
  5905                           ;mcc_generated_files/adc.c: 72:     ADCON1 = 0x80;
  5906     0E4C  3080               	movlw	128
  5907     0E4D  0021               	movlb	1	; select bank1
  5908     0E4E  009E               	movwf	30	;volatile
  5909     0E4F                     l2095:
  5910                           
  5911                           ;mcc_generated_files/adc.c: 75:     ADRESL = 0x00;
  5912     0E4F  019B               	clrf	27	;volatile
  5913     0E50                     l2097:
  5914                           
  5915                           ;mcc_generated_files/adc.c: 78:     ADRESH = 0x00;
  5916     0E50  019C               	clrf	28	;volatile
  5917                           
  5918                           ;mcc_generated_files/adc.c: 81:     ADCON0 = 0x01;
  5919     0E51  3001               	movlw	1
  5920     0E52  009D               	movwf	29	;volatile
  5921     0E53                     l155:
  5922     0E53  0008               	return
  5923     0E54                     __end_of_ADC_Initialize:
  5924                           
  5925                           	psect	text23
  5926     0F86                     __ptext23:	
  5927 ;; *************** function _EPWM1_LoadDutyValue *****************
  5928 ;; Defined at:
  5929 ;;		line 90 in file "mcc_generated_files/epwm1.c"
  5930 ;; Parameters:    Size  Location     Type
  5931 ;;  dutyValue       2    7[BANK0 ] unsigned short 
  5932 ;; Auto vars:     Size  Location     Type
  5933 ;;		None
  5934 ;; Return value:  Size  Location     Type
  5935 ;;                  1    wreg      void 
  5936 ;; Registers used:
  5937 ;;		wreg, status,2, status,0
  5938 ;; Tracked objects:
  5939 ;;		On entry : 0/0
  5940 ;;		On exit  : 0/0
  5941 ;;		Unchanged: 0/0
  5942 ;; Data sizes:     COMMON   BANK0   BANK1   BANK2   BANK3   BANK4
  5943 ;;      Params:         0       2       0       0       0       0
  5944 ;;      Locals:         0       0       0       0       0       0
  5945 ;;      Temps:          0       2       0       0       0       0
  5946 ;;      Totals:         0       4       0       0       0       0
  5947 ;;Total ram usage:        4 bytes
  5948 ;; Hardware stack levels used: 1
  5949 ;; Hardware stack levels required when called: 6
  5950 ;; This function calls:
  5951 ;;		Nothing
  5952 ;; This function is called by:
  5953 ;;		_main
  5954 ;; This function uses a non-reentrant model
  5955 ;;
  5956                           
  5957     0F86                     _EPWM1_LoadDutyValue:	
  5958                           ;psect for function _EPWM1_LoadDutyValue
  5959                           
  5960     0F86                     l2265:	
  5961                           ;incstack = 0
  5962                           ; Regs used in _EPWM1_LoadDutyValue: [wreg+status,2+status,0]
  5963                           
  5964                           
  5965                           ;mcc_generated_files/epwm1.c: 90: void EPWM1_LoadDutyValue(uint16_t dutyValue);mcc_gener
      +                          ated_files/epwm1.c: 91: {;mcc_generated_files/epwm1.c: 93:     CCPR1L = ((dutyValue & 0x
      +                          03FC)>>2);
  5966     0F86  0020               	movlb	0	; select bank0
  5967     0F87  0828               	movf	EPWM1_LoadDutyValue@dutyValue+1,w
  5968     0F88  00AA               	movwf	??_EPWM1_LoadDutyValue+1
  5969     0F89  0827               	movf	EPWM1_LoadDutyValue@dutyValue,w
  5970     0F8A  00A9               	movwf	??_EPWM1_LoadDutyValue
  5971     0F8B  36AA               	lsrf	??_EPWM1_LoadDutyValue+1,f
  5972     0F8C  0CA9               	rrf	??_EPWM1_LoadDutyValue,f
  5973     0F8D  36AA               	lsrf	??_EPWM1_LoadDutyValue+1,f
  5974     0F8E  0CA9               	rrf	??_EPWM1_LoadDutyValue,f
  5975     0F8F  0829               	movf	??_EPWM1_LoadDutyValue,w
  5976     0F90  0025               	movlb	5	; select bank5
  5977     0F91  0091               	movwf	17	;volatile
  5978                           
  5979                           ;mcc_generated_files/epwm1.c: 96:     CCP1CON = ((uint8_t)(CCP1CON & 0xCF) | ((dutyValue
      +                           & 0x0003)<<4));
  5980     0F92  0020               	movlb	0	; select bank0
  5981     0F93  0827               	movf	EPWM1_LoadDutyValue@dutyValue,w
  5982     0F94  3903               	andlw	3
  5983     0F95  00A9               	movwf	??_EPWM1_LoadDutyValue
  5984     0F96  3004               	movlw	4
  5985     0F97                     u1515:
  5986     0F97  35A9               	lslf	??_EPWM1_LoadDutyValue,f
  5987     0F98  0B89               	decfsz	9,f
  5988     0F99  2F97               	goto	u1515
  5989     0F9A  0025               	movlb	5	; select bank5
  5990     0F9B  0813               	movf	19,w	;volatile
  5991     0F9C  39CF               	andlw	207
  5992     0F9D  0020               	movlb	0	; select bank0
  5993     0F9E  0429               	iorwf	??_EPWM1_LoadDutyValue,w
  5994     0F9F  0025               	movlb	5	; select bank5
  5995     0FA0  0093               	movwf	19	;volatile
  5996     0FA1                     l196:
  5997     0FA1  0008               	return
  5998     0FA2                     __end_of_EPWM1_LoadDutyValue:
  5999                           
  6000                           	psect	text24
  6001     0FBE                     __ptext24:	
  6002 ;; *************** function _ADC_GetConversion *****************
  6003 ;; Defined at:
  6004 ;;		line 112 in file "mcc_generated_files/adc.c"
  6005 ;; Parameters:    Size  Location     Type
  6006 ;;  channel         1    wreg     enum E2495
  6007 ;; Auto vars:     Size  Location     Type
  6008 ;;  channel         1   10[BANK0 ] enum E2495
  6009 ;; Return value:  Size  Location     Type
  6010 ;;                  2    7[BANK0 ] unsigned short 
  6011 ;; Registers used:
  6012 ;;		wreg, status,2, status,0
  6013 ;; Tracked objects:
  6014 ;;		On entry : 0/0
  6015 ;;		On exit  : 0/0
  6016 ;;		Unchanged: 0/0
  6017 ;; Data sizes:     COMMON   BANK0   BANK1   BANK2   BANK3   BANK4
  6018 ;;      Params:         0       2       0       0       0       0
  6019 ;;      Locals:         0       1       0       0       0       0
  6020 ;;      Temps:          0       1       0       0       0       0
  6021 ;;      Totals:         0       4       0       0       0       0
  6022 ;;Total ram usage:        4 bytes
  6023 ;; Hardware stack levels used: 1
  6024 ;; Hardware stack levels required when called: 6
  6025 ;; This function calls:
  6026 ;;		Nothing
  6027 ;; This function is called by:
  6028 ;;		_main
  6029 ;; This function uses a non-reentrant model
  6030 ;;
  6031                           
  6032     0FBE                     _ADC_GetConversion:	
  6033                           ;psect for function _ADC_GetConversion
  6034                           
  6035                           
  6036                           ;incstack = 0
  6037                           ; Regs used in _ADC_GetConversion: [wreg+status,2+status,0]
  6038                           ;ADC_GetConversion@channel stored from wreg
  6039     0FBE  0020               	movlb	0	; select bank0
  6040     0FBF  00AA               	movwf	ADC_GetConversion@channel
  6041     0FC0                     l2253:
  6042                           
  6043                           ;mcc_generated_files/adc.c: 112: adc_result_t ADC_GetConversion(adc_channel_t channel);m
      +                          cc_generated_files/adc.c: 113: {;mcc_generated_files/adc.c: 115:     ADCON0bits.CHS = ch
      +                          annel;
  6044     0FC0  082A               	movf	ADC_GetConversion@channel,w
  6045     0FC1  00A9               	movwf	??_ADC_GetConversion
  6046     0FC2  0DA9               	rlf	??_ADC_GetConversion,f
  6047     0FC3  0DA9               	rlf	??_ADC_GetConversion,f
  6048     0FC4  0021               	movlb	1	; select bank1
  6049     0FC5  081D               	movf	29,w	;volatile
  6050     0FC6  0020               	movlb	0	; select bank0
  6051     0FC7  0629               	xorwf	??_ADC_GetConversion,w
  6052     0FC8  3983               	andlw	-125
  6053     0FC9  0629               	xorwf	??_ADC_GetConversion,w
  6054     0FCA  0021               	movlb	1	; select bank1
  6055     0FCB  009D               	movwf	29	;volatile
  6056     0FCC                     l2255:
  6057                           
  6058                           ;mcc_generated_files/adc.c: 118:     ADCON0bits.ADON = 1;
  6059     0FCC  141D               	bsf	29,0	;volatile
  6060     0FCD                     l2257:
  6061                           
  6062                           ;mcc_generated_files/adc.c: 121:     _delay((unsigned long)((5)*(2000000/4000000.0)));
  6063     0FCD  3200               	nop2	;2 cycle nop
  6064     0FCE                     l2259:
  6065                           
  6066                           ;mcc_generated_files/adc.c: 124:     ADCON0bits.GO_nDONE = 1;
  6067     0FCE  0021               	movlb	1	; select bank1
  6068     0FCF  149D               	bsf	29,1	;volatile
  6069     0FD0                     l170:	
  6070                           ;mcc_generated_files/adc.c: 128:     {;mcc_generated_files/adc.c: 129:     }
  6071                           
  6072                           
  6073                           ;mcc_generated_files/adc.c: 127:     while (ADCON0bits.GO_nDONE)
  6074     0FD0  189D               	btfsc	29,1	;volatile
  6075     0FD1  2FD3               	goto	u1501
  6076     0FD2  2FD4               	goto	u1500
  6077     0FD3                     u1501:
  6078     0FD3  2FD0               	goto	l170
  6079     0FD4                     u1500:
  6080     0FD4                     l2261:
  6081                           
  6082                           ;mcc_generated_files/adc.c: 132:     return ((adc_result_t)((ADRESH << 8) + ADRESL));
  6083     0FD4  081C               	movf	28,w	;volatile
  6084     0FD5  0020               	movlb	0	; select bank0
  6085     0FD6  00A8               	movwf	?_ADC_GetConversion+1
  6086     0FD7  0021               	movlb	1	; select bank1
  6087     0FD8  081B               	movf	27,w	;volatile
  6088     0FD9  0020               	movlb	0	; select bank0
  6089     0FDA  00A7               	movwf	?_ADC_GetConversion
  6090     0FDB                     l173:
  6091     0FDB  0008               	return
  6092     0FDC                     __end_of_ADC_GetConversion:
  6093                           
  6094                           	psect	intentry
  6095     0004                     __pintentry:	
  6096 ;; *************** function _INTERRUPT_InterruptManager *****************
  6097 ;; Defined at:
  6098 ;;		line 52 in file "mcc_generated_files/interrupt_manager.c"
  6099 ;; Parameters:    Size  Location     Type
  6100 ;;		None
  6101 ;; Auto vars:     Size  Location     Type
  6102 ;;		None
  6103 ;; Return value:  Size  Location     Type
  6104 ;;                  1    wreg      void 
  6105 ;; Registers used:
  6106 ;;		wreg, fsr0l, fsr0h, fsr1l, fsr1h, status,2, status,0, pclath, cstack
  6107 ;; Tracked objects:
  6108 ;;		On entry : 0/0
  6109 ;;		On exit  : 0/0
  6110 ;;		Unchanged: 0/0
  6111 ;; Data sizes:     COMMON   BANK0   BANK1   BANK2   BANK3   BANK4
  6112 ;;      Params:         0       0       0       0       0       0
  6113 ;;      Locals:         0       0       0       0       0       0
  6114 ;;      Temps:          0       0       0       0       0       0
  6115 ;;      Totals:         0       0       0       0       0       0
  6116 ;;Total ram usage:        0 bytes
  6117 ;; Hardware stack levels used: 1
  6118 ;; Hardware stack levels required when called: 5
  6119 ;; This function calls:
  6120 ;;		_PIN_MANAGER_IOC
  6121 ;;		_TMR1_ISR
  6122 ;;		_TMR4_ISR
  6123 ;; This function is called by:
  6124 ;;		Interrupt level 1
  6125 ;; This function uses a non-reentrant model
  6126 ;;
  6127                           
  6128     0004                     _INTERRUPT_InterruptManager:
  6129                           
  6130                           ;incstack = 0
  6131     0004  147E               	bsf	int$flags,0	;set compiler interrupt flag (level 1)
  6132                           
  6133                           ; Regs used in _INTERRUPT_InterruptManager: [wreg-fsr1h+status,2+status,0+pclath+cstack]
  6134     0005  3180               	pagesel	$
  6135     0006                     i1l2681:
  6136                           
  6137                           ;mcc_generated_files/interrupt_manager.c: 55:     if(INTCONbits.IOCIE == 1 && INTCONbits
      +                          .IOCIF == 1)
  6138     0006  1D8B               	btfss	11,3	;volatile
  6139     0007  2809               	goto	u245_21
  6140     0008  280A               	goto	u245_20
  6141     0009                     u245_21:
  6142     0009  2812               	goto	i1l56
  6143     000A                     u245_20:
  6144     000A                     i1l2683:
  6145     000A  1C0B               	btfss	11,0	;volatile
  6146     000B  280D               	goto	u246_21
  6147     000C  280E               	goto	u246_20
  6148     000D                     u246_21:
  6149     000D  2812               	goto	i1l56
  6150     000E                     u246_20:
  6151     000E                     i1l2685:
  6152                           
  6153                           ;mcc_generated_files/interrupt_manager.c: 56:     {;mcc_generated_files/interrupt_manage
      +                          r.c: 57:         PIN_MANAGER_IOC();
  6154     000E  318E  26DE  3180   	fcall	_PIN_MANAGER_IOC
  6155                           
  6156                           ;mcc_generated_files/interrupt_manager.c: 58:     }
  6157     0011  2832               	goto	i1l64
  6158     0012                     i1l56:	
  6159                           ;mcc_generated_files/interrupt_manager.c: 59:     else if(INTCONbits.PEIE == 1)
  6160                           
  6161     0012  1F0B               	btfss	11,6	;volatile
  6162     0013  2815               	goto	u247_21
  6163     0014  2816               	goto	u247_20
  6164     0015                     u247_21:
  6165     0015  2832               	goto	i1l64
  6166     0016                     u247_20:
  6167     0016                     i1l2687:
  6168                           
  6169                           ;mcc_generated_files/interrupt_manager.c: 60:     {;mcc_generated_files/interrupt_manage
      +                          r.c: 61:         if(PIE3bits.TMR4IE == 1 && PIR3bits.TMR4IF == 1)
  6170     0016  0021               	movlb	1	; select bank1
  6171     0017  1C93               	btfss	19,1	;volatile
  6172     0018  281A               	goto	u248_21
  6173     0019  281B               	goto	u248_20
  6174     001A                     u248_21:
  6175     001A  2824               	goto	i1l59
  6176     001B                     u248_20:
  6177     001B                     i1l2689:
  6178     001B  0020               	movlb	0	; select bank0
  6179     001C  1C93               	btfss	19,1	;volatile
  6180     001D  281F               	goto	u249_21
  6181     001E  2820               	goto	u249_20
  6182     001F                     u249_21:
  6183     001F  2824               	goto	i1l59
  6184     0020                     u249_20:
  6185     0020                     i1l2691:
  6186                           
  6187                           ;mcc_generated_files/interrupt_manager.c: 62:         {;mcc_generated_files/interrupt_ma
      +                          nager.c: 63:             TMR4_ISR();
  6188     0020  318E  263F  3180   	fcall	_TMR4_ISR
  6189                           
  6190                           ;mcc_generated_files/interrupt_manager.c: 64:         }
  6191     0023  2832               	goto	i1l64
  6192     0024                     i1l59:	
  6193                           ;mcc_generated_files/interrupt_manager.c: 65:         else if(PIE1bits.TMR1IE == 1 && PI
      +                          R1bits.TMR1IF == 1)
  6194                           
  6195     0024  0021               	movlb	1	; select bank1
  6196     0025  1C11               	btfss	17,0	;volatile
  6197     0026  2828               	goto	u250_21
  6198     0027  2829               	goto	u250_20
  6199     0028                     u250_21:
  6200     0028  2832               	goto	i1l63
  6201     0029                     u250_20:
  6202     0029                     i1l2693:
  6203     0029  0020               	movlb	0	; select bank0
  6204     002A  1C11               	btfss	17,0	;volatile
  6205     002B  282D               	goto	u251_21
  6206     002C  282E               	goto	u251_20
  6207     002D                     u251_21:
  6208     002D  2832               	goto	i1l63
  6209     002E                     u251_20:
  6210     002E                     i1l2695:
  6211                           
  6212                           ;mcc_generated_files/interrupt_manager.c: 66:         {;mcc_generated_files/interrupt_ma
      +                          nager.c: 67:             TMR1_ISR();
  6213     002E  318F  273D  3180   	fcall	_TMR1_ISR
  6214                           
  6215                           ;mcc_generated_files/interrupt_manager.c: 68:         }
  6216     0031  2832               	goto	i1l64
  6217     0032                     i1l63:	
  6218                           ;mcc_generated_files/interrupt_manager.c: 75:     {;mcc_generated_files/interrupt_manage
      +                          r.c: 77:     }
  6219                           
  6220     0032                     i1l64:
  6221     0032  107E               	bcf	int$flags,0	;clear compiler interrupt flag (level 1)
  6222     0033  0009               	retfie
  6223     0034                     __end_of_INTERRUPT_InterruptManager:
  6224                           
  6225                           	psect	text26
  6226     0E3F                     __ptext26:	
  6227 ;; *************** function _TMR4_ISR *****************
  6228 ;; Defined at:
  6229 ;;		line 119 in file "mcc_generated_files/tmr4.c"
  6230 ;; Parameters:    Size  Location     Type
  6231 ;;		None
  6232 ;; Auto vars:     Size  Location     Type
  6233 ;;		None
  6234 ;; Return value:  Size  Location     Type
  6235 ;;                  1    wreg      void 
  6236 ;; Registers used:
  6237 ;;		wreg, fsr1l, fsr1h, status,2, status,0, pclath, cstack
  6238 ;; Tracked objects:
  6239 ;;		On entry : 0/0
  6240 ;;		On exit  : 0/0
  6241 ;;		Unchanged: 0/0
  6242 ;; Data sizes:     COMMON   BANK0   BANK1   BANK2   BANK3   BANK4
  6243 ;;      Params:         0       0       0       0       0       0
  6244 ;;      Locals:         0       0       0       0       0       0
  6245 ;;      Temps:          0       0       0       0       0       0
  6246 ;;      Totals:         0       0       0       0       0       0
  6247 ;;Total ram usage:        0 bytes
  6248 ;; Hardware stack levels used: 1
  6249 ;; Hardware stack levels required when called: 4
  6250 ;; This function calls:
  6251 ;;		_TMR4_CallBack
  6252 ;; This function is called by:
  6253 ;;		_INTERRUPT_InterruptManager
  6254 ;; This function uses a non-reentrant model
  6255 ;;
  6256                           
  6257     0E3F                     _TMR4_ISR:	
  6258                           ;psect for function _TMR4_ISR
  6259                           
  6260     0E3F                     i1l2241:	
  6261                           ;incstack = 0
  6262                           ; Regs used in _TMR4_ISR: [wreg+fsr1l+fsr1h+status,2+status,0+pclath+cstack]
  6263                           
  6264                           
  6265                           ;mcc_generated_files/tmr4.c: 123:     PIR3bits.TMR4IF = 0;
  6266     0E3F  0020               	movlb	0	; select bank0
  6267     0E40  1093               	bcf	19,1	;volatile
  6268     0E41                     i1l2243:
  6269                           
  6270                           ;mcc_generated_files/tmr4.c: 127:     TMR4_CallBack();
  6271     0E41  318E  26A5  318E   	fcall	_TMR4_CallBack
  6272     0E44                     i1l417:
  6273     0E44  0008               	return
  6274     0E45                     __end_of_TMR4_ISR:
  6275                           
  6276                           	psect	text27
  6277     0EA5                     __ptext27:	
  6278 ;; *************** function _TMR4_CallBack *****************
  6279 ;; Defined at:
  6280 ;;		line 130 in file "mcc_generated_files/tmr4.c"
  6281 ;; Parameters:    Size  Location     Type
  6282 ;;		None
  6283 ;; Auto vars:     Size  Location     Type
  6284 ;;		None
  6285 ;; Return value:  Size  Location     Type
  6286 ;;                  1    wreg      void 
  6287 ;; Registers used:
  6288 ;;		wreg, fsr1l, fsr1h, status,2, status,0, pclath, cstack
  6289 ;; Tracked objects:
  6290 ;;		On entry : 0/0
  6291 ;;		On exit  : 0/0
  6292 ;;		Unchanged: 0/0
  6293 ;; Data sizes:     COMMON   BANK0   BANK1   BANK2   BANK3   BANK4
  6294 ;;      Params:         0       0       0       0       0       0
  6295 ;;      Locals:         0       0       0       0       0       0
  6296 ;;      Temps:          0       0       0       0       0       0
  6297 ;;      Totals:         0       0       0       0       0       0
  6298 ;;Total ram usage:        0 bytes
  6299 ;; Hardware stack levels used: 1
  6300 ;; Hardware stack levels required when called: 3
  6301 ;; This function calls:
  6302 ;;		NULL
  6303 ;;		_TMR4_DefaultInterruptHandler
  6304 ;;		_dattaOut
  6305 ;; This function is called by:
  6306 ;;		_TMR4_ISR
  6307 ;; This function uses a non-reentrant model
  6308 ;;
  6309                           
  6310     0EA5                     _TMR4_CallBack:	
  6311                           ;psect for function _TMR4_CallBack
  6312                           
  6313     0EA5                     i1l2185:	
  6314                           ;incstack = 0
  6315                           ; Regs used in _TMR4_CallBack: [wreg+fsr1l+fsr1h+status,2+status,0+pclath+cstack]
  6316                           
  6317                           
  6318                           ;mcc_generated_files/tmr4.c: 134:     if(TMR4_InterruptHandler)
  6319     0EA5  0021               	movlb	1	; select bank1
  6320     0EA6  0824               	movf	_TMR4_InterruptHandler^(0+128),w
  6321     0EA7  0425               	iorwf	(_TMR4_InterruptHandler+1)^(0+128),w
  6322     0EA8  1903               	btfsc	3,2
  6323     0EA9  2EAB               	goto	u143_21
  6324     0EAA  2EAC               	goto	u143_20
  6325     0EAB                     u143_21:
  6326     0EAB  2EB1               	goto	i1l421
  6327     0EAC                     u143_20:
  6328     0EAC                     i1l2187:
  6329                           
  6330                           ;mcc_generated_files/tmr4.c: 135:     {;mcc_generated_files/tmr4.c: 136:         TMR4_In
      +                          terruptHandler();
  6331     0EAC  0825               	movf	(_TMR4_InterruptHandler+1)^(0+128),w
  6332     0EAD  008A               	movwf	10
  6333     0EAE  0824               	movf	_TMR4_InterruptHandler^(0+128),w
  6334     0EAF  000A               	callw
  6335     0EB0  318E               	pagesel	$
  6336     0EB1                     i1l421:
  6337     0EB1  0008               	return
  6338     0EB2                     __end_of_TMR4_CallBack:
  6339                           
  6340                           	psect	text28
  6341     0E35                     __ptext28:	
  6342 ;; *************** function _TMR4_DefaultInterruptHandler *****************
  6343 ;; Defined at:
  6344 ;;		line 144 in file "mcc_generated_files/tmr4.c"
  6345 ;; Parameters:    Size  Location     Type
  6346 ;;		None
  6347 ;; Auto vars:     Size  Location     Type
  6348 ;;		None
  6349 ;; Return value:  Size  Location     Type
  6350 ;;                  1    wreg      void 
  6351 ;; Registers used:
  6352 ;;		None
  6353 ;; Tracked objects:
  6354 ;;		On entry : 0/0
  6355 ;;		On exit  : 0/0
  6356 ;;		Unchanged: 0/0
  6357 ;; Data sizes:     COMMON   BANK0   BANK1   BANK2   BANK3   BANK4
  6358 ;;      Params:         0       0       0       0       0       0
  6359 ;;      Locals:         0       0       0       0       0       0
  6360 ;;      Temps:          0       0       0       0       0       0
  6361 ;;      Totals:         0       0       0       0       0       0
  6362 ;;Total ram usage:        0 bytes
  6363 ;; Hardware stack levels used: 1
  6364 ;; This function calls:
  6365 ;;		Nothing
  6366 ;; This function is called by:
  6367 ;;		_TMR4_Initialize
  6368 ;;		_TMR4_CallBack
  6369 ;; This function uses a non-reentrant model
  6370 ;;
  6371                           
  6372     0E35                     _TMR4_DefaultInterruptHandler:	
  6373                           ;psect for function _TMR4_DefaultInterruptHandler
  6374                           
  6375     0E35                     i1l427:	
  6376                           ;incstack = 0
  6377                           ; Regs used in _TMR4_DefaultInterruptHandler: []
  6378                           
  6379     0E35  0008               	return
  6380     0E36                     __end_of_TMR4_DefaultInterruptHandler:
  6381                           
  6382                           	psect	text29
  6383     0779                     __ptext29:	
  6384 ;; *************** function _dattaOut *****************
  6385 ;; Defined at:
  6386 ;;		line 109 in file "main.c"
  6387 ;; Parameters:    Size  Location     Type
  6388 ;;		None
  6389 ;; Auto vars:     Size  Location     Type
  6390 ;;		None
  6391 ;; Return value:  Size  Location     Type
  6392 ;;                  1    wreg      void 
  6393 ;; Registers used:
  6394 ;;		wreg, fsr1l, fsr1h, status,2, status,0, pclath, cstack
  6395 ;; Tracked objects:
  6396 ;;		On entry : 0/0
  6397 ;;		On exit  : 0/0
  6398 ;;		Unchanged: 0/0
  6399 ;; Data sizes:     COMMON   BANK0   BANK1   BANK2   BANK3   BANK4
  6400 ;;      Params:         0       0       0       0       0       0
  6401 ;;      Locals:         0       0       0       0       0       0
  6402 ;;      Temps:          0       0       0       0       0       0
  6403 ;;      Totals:         0       0       0       0       0       0
  6404 ;;Total ram usage:        0 bytes
  6405 ;; Hardware stack levels used: 1
  6406 ;; Hardware stack levels required when called: 2
  6407 ;; This function calls:
  6408 ;;		_EUSART_Write
  6409 ;;		_bin2bcd
  6410 ;;		_uint2ASCII
  6411 ;; This function is called by:
  6412 ;;		_main
  6413 ;;		_TMR4_CallBack
  6414 ;; This function uses a non-reentrant model
  6415 ;;
  6416                           
  6417     0779                     _dattaOut:	
  6418                           ;psect for function _dattaOut
  6419                           
  6420     0779                     i1l2031:	
  6421                           ;incstack = 0
  6422                           ; Regs used in _dattaOut: [wreg+fsr1l+fsr1h+status,2+status,0+pclath+cstack]
  6423                           
  6424                           
  6425                           ;main.c: 111:     park_bcd.all = bin2bcd(park_uint);
  6426     0779  0020               	movlb	0	; select bank0
  6427     077A  0867               	movf	_park_uint+1,w
  6428     077B  00F8               	movwf	bin2bcd@binVal+1
  6429     077C  0866               	movf	_park_uint,w
  6430     077D  00F7               	movwf	bin2bcd@binVal
  6431     077E  3185  258F  3187   	fcall	_bin2bcd
  6432     0781  0878               	movf	?_bin2bcd+1,w
  6433     0782  0020               	movlb	0	; select bank0
  6434     0783  00E2               	movwf	_park_bcd+1
  6435     0784  0877               	movf	?_bin2bcd,w
  6436     0785  00E1               	movwf	_park_bcd
  6437     0786                     i1l2033:
  6438                           
  6439                           ;main.c: 113:     EUSART_Write(0x24);
  6440     0786  3024               	movlw	36
  6441     0787  318E  269B  3187   	fcall	_EUSART_Write
  6442     078A                     i1l2035:
  6443                           
  6444                           ;main.c: 114:     EUSART_Write(uint2ASCII(park_bcd.dig3));
  6445     078A  0020               	movlb	0	; select bank0
  6446     078B  0862               	movf	_park_bcd+1,w
  6447     078C  390F               	andlw	15
  6448     078D  318E  2637  3187   	fcall	_uint2ASCII
  6449     0790  318E  269B  3187   	fcall	_EUSART_Write
  6450     0793                     i1l2037:
  6451                           
  6452                           ;main.c: 115:     EUSART_Write(uint2ASCII(park_bcd.dig2));
  6453     0793  0020               	movlb	0	; select bank0
  6454     0794  0E61               	swapf	_park_bcd,w
  6455     0795  390F               	andlw	15
  6456     0796  318E  2637  3187   	fcall	_uint2ASCII
  6457     0799  318E  269B  3187   	fcall	_EUSART_Write
  6458     079C                     i1l2039:
  6459                           
  6460                           ;main.c: 116:     EUSART_Write(uint2ASCII(park_bcd.dig1));
  6461     079C  0020               	movlb	0	; select bank0
  6462     079D  0861               	movf	_park_bcd,w
  6463     079E  390F               	andlw	15
  6464     079F  318E  2637  3187   	fcall	_uint2ASCII
  6465     07A2  318E  269B  3187   	fcall	_EUSART_Write
  6466     07A5                     i1l2041:
  6467                           
  6468                           ;main.c: 117:     EUSART_Write(0x0D);
  6469     07A5  300D               	movlw	13
  6470     07A6  318E  269B  3187   	fcall	_EUSART_Write
  6471     07A9                     i1l493:
  6472     07A9  0008               	return
  6473     07AA                     __end_of_dattaOut:
  6474                           
  6475                           	psect	text30
  6476     0E37                     __ptext30:	
  6477 ;; *************** function _uint2ASCII *****************
  6478 ;; Defined at:
  6479 ;;		line 130 in file "main.c"
  6480 ;; Parameters:    Size  Location     Type
  6481 ;;  num             1    wreg     unsigned char 
  6482 ;; Auto vars:     Size  Location     Type
  6483 ;;  num             1    0[COMMON] unsigned char 
  6484 ;; Return value:  Size  Location     Type
  6485 ;;                  1    wreg      unsigned char 
  6486 ;; Registers used:
  6487 ;;		wreg, status,2, status,0
  6488 ;; Tracked objects:
  6489 ;;		On entry : 0/0
  6490 ;;		On exit  : 0/0
  6491 ;;		Unchanged: 0/0
  6492 ;; Data sizes:     COMMON   BANK0   BANK1   BANK2   BANK3   BANK4
  6493 ;;      Params:         0       0       0       0       0       0
  6494 ;;      Locals:         1       0       0       0       0       0
  6495 ;;      Temps:          0       0       0       0       0       0
  6496 ;;      Totals:         1       0       0       0       0       0
  6497 ;;Total ram usage:        1 bytes
  6498 ;; Hardware stack levels used: 1
  6499 ;; This function calls:
  6500 ;;		Nothing
  6501 ;; This function is called by:
  6502 ;;		_dattaOut
  6503 ;; This function uses a non-reentrant model
  6504 ;;
  6505                           
  6506     0E37                     _uint2ASCII:	
  6507                           ;psect for function _uint2ASCII
  6508                           
  6509                           
  6510                           ;incstack = 0
  6511                           ; Regs used in _uint2ASCII: [wreg+status,2+status,0]
  6512                           ;uint2ASCII@num stored from wreg
  6513     0E37  00F0               	movwf	uint2ASCII@num
  6514     0E38                     i1l2013:
  6515                           
  6516                           ;main.c: 130: uint8_t uint2ASCII(uint8_t num);main.c: 131: {;main.c: 132:     return num
      +                           + 0x30;
  6517     0E38  0870               	movf	uint2ASCII@num,w
  6518     0E39  3E30               	addlw	48
  6519     0E3A                     i1l510:
  6520     0E3A  0008               	return
  6521     0E3B                     __end_of_uint2ASCII:
  6522                           
  6523                           	psect	text31
  6524     0E9B                     __ptext31:	
  6525 ;; *************** function _EUSART_Write *****************
  6526 ;; Defined at:
  6527 ;;		line 132 in file "mcc_generated_files/eusart.c"
  6528 ;; Parameters:    Size  Location     Type
  6529 ;;  txData          1    wreg     unsigned char 
  6530 ;; Auto vars:     Size  Location     Type
  6531 ;;  txData          1    0[COMMON] unsigned char 
  6532 ;; Return value:  Size  Location     Type
  6533 ;;                  1    wreg      void 
  6534 ;; Registers used:
  6535 ;;		wreg
  6536 ;; Tracked objects:
  6537 ;;		On entry : 0/0
  6538 ;;		On exit  : 0/0
  6539 ;;		Unchanged: 0/0
  6540 ;; Data sizes:     COMMON   BANK0   BANK1   BANK2   BANK3   BANK4
  6541 ;;      Params:         0       0       0       0       0       0
  6542 ;;      Locals:         1       0       0       0       0       0
  6543 ;;      Temps:          0       0       0       0       0       0
  6544 ;;      Totals:         1       0       0       0       0       0
  6545 ;;Total ram usage:        1 bytes
  6546 ;; Hardware stack levels used: 1
  6547 ;; This function calls:
  6548 ;;		Nothing
  6549 ;; This function is called by:
  6550 ;;		_dattaOut
  6551 ;; This function uses a non-reentrant model
  6552 ;;
  6553                           
  6554     0E9B                     _EUSART_Write:	
  6555                           ;psect for function _EUSART_Write
  6556                           
  6557                           
  6558                           ;incstack = 0
  6559                           ; Regs used in _EUSART_Write: [wreg]
  6560                           ;EUSART_Write@txData stored from wreg
  6561     0E9B  00F0               	movwf	EUSART_Write@txData
  6562     0E9C                     i1l1983:
  6563     0E9C                     i1l355:	
  6564                           ;mcc_generated_files/eusart.c: 135:     {;mcc_generated_files/eusart.c: 136:     }
  6565                           
  6566                           
  6567                           ;mcc_generated_files/eusart.c: 134:     while(0 == PIR1bits.TXIF)
  6568     0E9C  0020               	movlb	0	; select bank0
  6569     0E9D  1E11               	btfss	17,4	;volatile
  6570     0E9E  2EA0               	goto	u130_21
  6571     0E9F  2EA1               	goto	u130_20
  6572     0EA0                     u130_21:
  6573     0EA0  2E9C               	goto	i1l355
  6574     0EA1                     u130_20:
  6575     0EA1                     i1l1985:
  6576                           
  6577                           ;mcc_generated_files/eusart.c: 138:     TXREG = txData;
  6578     0EA1  0870               	movf	EUSART_Write@txData,w
  6579     0EA2  0023               	movlb	3	; select bank3
  6580     0EA3  009A               	movwf	26	;volatile
  6581     0EA4                     i1l358:
  6582     0EA4  0008               	return
  6583     0EA5                     __end_of_EUSART_Write:
  6584                           
  6585                           	psect	text32
  6586     0F3D                     __ptext32:	
  6587 ;; *************** function _TMR1_ISR *****************
  6588 ;; Defined at:
  6589 ;;		line 157 in file "mcc_generated_files/tmr1.c"
  6590 ;; Parameters:    Size  Location     Type
  6591 ;;		None
  6592 ;; Auto vars:     Size  Location     Type
  6593 ;;		None
  6594 ;; Return value:  Size  Location     Type
  6595 ;;                  1    wreg      void 
  6596 ;; Registers used:
  6597 ;;		wreg, fsr0l, fsr0h, fsr1l, fsr1h, status,2, status,0, pclath, cstack
  6598 ;; Tracked objects:
  6599 ;;		On entry : 0/0
  6600 ;;		On exit  : 0/0
  6601 ;;		Unchanged: 0/0
  6602 ;; Data sizes:     COMMON   BANK0   BANK1   BANK2   BANK3   BANK4
  6603 ;;      Params:         0       0       0       0       0       0
  6604 ;;      Locals:         0       0       0       0       0       0
  6605 ;;      Temps:          0       0       0       0       0       0
  6606 ;;      Totals:         0       0       0       0       0       0
  6607 ;;Total ram usage:        0 bytes
  6608 ;; Hardware stack levels used: 1
  6609 ;; Hardware stack levels required when called: 3
  6610 ;; This function calls:
  6611 ;;		NULL
  6612 ;;		_TMR1_DefaultInterruptHandler
  6613 ;;		_TMR1_WriteTimer
  6614 ;;		_displayMux
  6615 ;; This function is called by:
  6616 ;;		_INTERRUPT_InterruptManager
  6617 ;; This function uses a non-reentrant model
  6618 ;;
  6619                           
  6620     0F3D                     _TMR1_ISR:	
  6621                           ;psect for function _TMR1_ISR
  6622                           
  6623     0F3D                     i1l2245:	
  6624                           ;incstack = 0
  6625                           ; Regs used in _TMR1_ISR: [wreg-fsr1h+status,2+status,0+pclath+cstack]
  6626                           
  6627                           
  6628                           ;mcc_generated_files/tmr1.c: 161:     PIR1bits.TMR1IF = 0;
  6629     0F3D  0020               	movlb	0	; select bank0
  6630     0F3E  1011               	bcf	17,0	;volatile
  6631     0F3F                     i1l2247:
  6632                           
  6633                           ;mcc_generated_files/tmr1.c: 162:     TMR1_WriteTimer(timer1ReloadVal);
  6634     0F3F  0864               	movf	_timer1ReloadVal+1,w	;volatile
  6635     0F40  00F1               	movwf	TMR1_WriteTimer@timerVal+1
  6636     0F41  0863               	movf	_timer1ReloadVal,w	;volatile
  6637     0F42  00F0               	movwf	TMR1_WriteTimer@timerVal
  6638     0F43  318E  26EF  318F   	fcall	_TMR1_WriteTimer
  6639     0F46                     i1l2249:
  6640                           
  6641                           ;mcc_generated_files/tmr1.c: 164:     if(TMR1_InterruptHandler)
  6642     0F46  0021               	movlb	1	; select bank1
  6643     0F47  082C               	movf	_TMR1_InterruptHandler^(0+128),w
  6644     0F48  042D               	iorwf	(_TMR1_InterruptHandler+1)^(0+128),w
  6645     0F49  1903               	btfsc	3,2
  6646     0F4A  2F4C               	goto	u149_21
  6647     0F4B  2F4D               	goto	u149_20
  6648     0F4C                     u149_21:
  6649     0F4C  2F52               	goto	i1l250
  6650     0F4D                     u149_20:
  6651     0F4D                     i1l2251:
  6652                           
  6653                           ;mcc_generated_files/tmr1.c: 165:     {;mcc_generated_files/tmr1.c: 166:         TMR1_In
      +                          terruptHandler();
  6654     0F4D  082D               	movf	(_TMR1_InterruptHandler+1)^(0+128),w
  6655     0F4E  008A               	movwf	10
  6656     0F4F  082C               	movf	_TMR1_InterruptHandler^(0+128),w
  6657     0F50  000A               	callw
  6658     0F51  318F               	pagesel	$
  6659     0F52                     i1l250:
  6660     0F52  0008               	return
  6661     0F53                     __end_of_TMR1_ISR:
  6662                           
  6663                           	psect	text33
  6664     0E34                     __ptext33:	
  6665 ;; *************** function _TMR1_DefaultInterruptHandler *****************
  6666 ;; Defined at:
  6667 ;;		line 175 in file "mcc_generated_files/tmr1.c"
  6668 ;; Parameters:    Size  Location     Type
  6669 ;;		None
  6670 ;; Auto vars:     Size  Location     Type
  6671 ;;		None
  6672 ;; Return value:  Size  Location     Type
  6673 ;;                  1    wreg      void 
  6674 ;; Registers used:
  6675 ;;		None
  6676 ;; Tracked objects:
  6677 ;;		On entry : 0/0
  6678 ;;		On exit  : 0/0
  6679 ;;		Unchanged: 0/0
  6680 ;; Data sizes:     COMMON   BANK0   BANK1   BANK2   BANK3   BANK4
  6681 ;;      Params:         0       0       0       0       0       0
  6682 ;;      Locals:         0       0       0       0       0       0
  6683 ;;      Temps:          0       0       0       0       0       0
  6684 ;;      Totals:         0       0       0       0       0       0
  6685 ;;Total ram usage:        0 bytes
  6686 ;; Hardware stack levels used: 1
  6687 ;; This function calls:
  6688 ;;		Nothing
  6689 ;; This function is called by:
  6690 ;;		_TMR1_Initialize
  6691 ;;		_TMR1_ISR
  6692 ;; This function uses a non-reentrant model
  6693 ;;
  6694                           
  6695     0E34                     _TMR1_DefaultInterruptHandler:	
  6696                           ;psect for function _TMR1_DefaultInterruptHandler
  6697                           
  6698     0E34                     i1l256:	
  6699                           ;incstack = 0
  6700                           ; Regs used in _TMR1_DefaultInterruptHandler: []
  6701                           
  6702     0E34  0008               	return
  6703     0E35                     __end_of_TMR1_DefaultInterruptHandler:
  6704                           
  6705                           	psect	text34
  6706     0728                     __ptext34:	
  6707 ;; *************** function _displayMux *****************
  6708 ;; Defined at:
  6709 ;;		line 84 in file "main.c"
  6710 ;; Parameters:    Size  Location     Type
  6711 ;;		None
  6712 ;; Auto vars:     Size  Location     Type
  6713 ;;		None
  6714 ;; Return value:  Size  Location     Type
  6715 ;;                  1    wreg      void 
  6716 ;; Registers used:
  6717 ;;		wreg, fsr0l, fsr0h, fsr1l, fsr1h, status,2, status,0, pclath, cstack
  6718 ;; Tracked objects:
  6719 ;;		On entry : 0/0
  6720 ;;		On exit  : 0/0
  6721 ;;		Unchanged: 0/0
  6722 ;; Data sizes:     COMMON   BANK0   BANK1   BANK2   BANK3   BANK4
  6723 ;;      Params:         0       0       0       0       0       0
  6724 ;;      Locals:         0       0       0       0       0       0
  6725 ;;      Temps:          0       2       0       0       0       0
  6726 ;;      Totals:         0       2       0       0       0       0
  6727 ;;Total ram usage:        2 bytes
  6728 ;; Hardware stack levels used: 1
  6729 ;; Hardware stack levels required when called: 2
  6730 ;; This function calls:
  6731 ;;		_bin2bcd
  6732 ;; This function is called by:
  6733 ;;		_main
  6734 ;;		_TMR1_ISR
  6735 ;; This function uses a non-reentrant model
  6736 ;;
  6737                           
  6738     0728                     _displayMux:	
  6739                           ;psect for function _displayMux
  6740                           
  6741     0728                     i1l2189:	
  6742                           ;incstack = 0
  6743                           ; Regs used in _displayMux: [wreg-fsr1h+status,2+status,0+pclath+cstack]
  6744                           
  6745                           
  6746                           ;main.c: 86:     park_bcd.all = bin2bcd(park_uint);
  6747     0728  0020               	movlb	0	; select bank0
  6748     0729  0867               	movf	_park_uint+1,w
  6749     072A  00F8               	movwf	bin2bcd@binVal+1
  6750     072B  0866               	movf	_park_uint,w
  6751     072C  00F7               	movwf	bin2bcd@binVal
  6752     072D  3185  258F  3187   	fcall	_bin2bcd
  6753     0730  0878               	movf	?_bin2bcd+1,w
  6754     0731  0020               	movlb	0	; select bank0
  6755     0732  00E2               	movwf	_park_bcd+1
  6756     0733  0877               	movf	?_bin2bcd,w
  6757     0734  00E1               	movwf	_park_bcd
  6758                           
  6759                           ;main.c: 87:     switch(cat)
  6760     0735  2F60               	goto	i1l2207
  6761     0736                     i1l2191:
  6762                           
  6763                           ;main.c: 90:             cat = 0b10100000;
  6764     0736  30A0               	movlw	160
  6765     0737  00FD               	movwf	_cat
  6766     0738                     i1l2193:
  6767                           
  6768                           ;main.c: 91:             PORTA = segVal[park_bcd.dig3];
  6769     0738  0862               	movf	_park_bcd+1,w
  6770     0739  390F               	andlw	15
  6771     073A  3EFD               	addlw	low (_segVal| (0+32768))
  6772     073B  0084               	movwf	4
  6773     073C  3087               	movlw	high (_segVal| (0+32768))
  6774     073D  1803               	skipnc
  6775     073E  3E01               	addlw	1
  6776     073F  0085               	movwf	5
  6777     0740  0800               	movf	0,w	;code access
  6778     0741  008C               	movwf	12	;volatile
  6779                           
  6780                           ;main.c: 92:             break;
  6781     0742  2F73               	goto	i1l2209
  6782     0743                     i1l2195:
  6783                           
  6784                           ;main.c: 94:             cat = 0b11000000;
  6785     0743  30C0               	movlw	192
  6786     0744  00FD               	movwf	_cat
  6787     0745                     i1l2197:
  6788                           
  6789                           ;main.c: 95:             PORTA = segVal[park_bcd.dig2];
  6790     0745  0E61               	swapf	_park_bcd,w
  6791     0746  390F               	andlw	15
  6792     0747  3EFD               	addlw	low (_segVal| (0+32768))
  6793     0748  0084               	movwf	4
  6794     0749  3087               	movlw	high (_segVal| (0+32768))
  6795     074A  1803               	skipnc
  6796     074B  3E01               	addlw	1
  6797     074C  0085               	movwf	5
  6798     074D  0800               	movf	0,w	;code access
  6799     074E  008C               	movwf	12	;volatile
  6800                           
  6801                           ;main.c: 96:             break;
  6802     074F  2F73               	goto	i1l2209
  6803     0750                     i1l2199:
  6804                           
  6805                           ;main.c: 98:             cat = 0b01100000;
  6806     0750  3060               	movlw	96
  6807     0751  00FD               	movwf	_cat
  6808     0752                     i1l2201:
  6809                           
  6810                           ;main.c: 99:             PORTA = segVal[park_bcd.dig1];
  6811     0752  0861               	movf	_park_bcd,w
  6812     0753  390F               	andlw	15
  6813     0754  3EFD               	addlw	low (_segVal| (0+32768))
  6814     0755  0084               	movwf	4
  6815     0756  3087               	movlw	high (_segVal| (0+32768))
  6816     0757  1803               	skipnc
  6817     0758  3E01               	addlw	1
  6818     0759  0085               	movwf	5
  6819     075A  0800               	movf	0,w	;code access
  6820     075B  008C               	movwf	12	;volatile
  6821                           
  6822                           ;main.c: 100:             break;
  6823     075C  2F73               	goto	i1l2209
  6824     075D                     i1l2203:
  6825                           
  6826                           ;main.c: 102:             cat = 0b01100000;
  6827     075D  3060               	movlw	96
  6828     075E  00FD               	movwf	_cat
  6829                           
  6830                           ;main.c: 103:             break;
  6831     075F  2F73               	goto	i1l2209
  6832     0760                     i1l2207:
  6833     0760  087D               	movf	_cat,w
  6834     0761  00A5               	movwf	??_displayMux
  6835     0762  01A6               	clrf	??_displayMux+1
  6836                           
  6837                           ; Switch on 2 bytes has been partitioned into a top level switch of size 1, and 1 sub-sw
      +                          itches
  6838                           ; Switch size 1, requested type "simple"
  6839                           ; Number of cases is 1, Range of values is 0 to 0
  6840                           ; switch strategies available:
  6841                           ; Name         Instructions Cycles
  6842                           ; simple_byte            4     3 (average)
  6843                           ; direct_byte            8     6 (fixed)
  6844                           ; jumptable            260     6 (fixed)
  6845                           ;	Chosen strategy is simple_byte
  6846     0763  0826               	movf	??_displayMux+1,w
  6847     0764  3A00               	xorlw	0	; case 0
  6848     0765  1903               	skipnz
  6849     0766  2F68               	goto	i1l3013
  6850     0767  2F5D               	goto	i1l2203
  6851     0768                     i1l3013:
  6852                           
  6853                           ; Switch size 1, requested type "simple"
  6854                           ; Number of cases is 3, Range of values is 96 to 192
  6855                           ; switch strategies available:
  6856                           ; Name         Instructions Cycles
  6857                           ; simple_byte           10     6 (average)
  6858                           ; direct_byte          203     9 (fixed)
  6859                           ; jumptable            263     9 (fixed)
  6860                           ;	Chosen strategy is simple_byte
  6861     0768  0825               	movf	??_displayMux,w
  6862     0769  3A60               	xorlw	96	; case 96
  6863     076A  1903               	skipnz
  6864     076B  2F36               	goto	i1l2191
  6865     076C  3AC0               	xorlw	192	; case 160
  6866     076D  1903               	skipnz
  6867     076E  2F43               	goto	i1l2195
  6868     076F  3A60               	xorlw	96	; case 192
  6869     0770  1903               	skipnz
  6870     0771  2F50               	goto	i1l2199
  6871     0772  2F5D               	goto	i1l2203
  6872     0773                     i1l2209:
  6873                           
  6874                           ;main.c: 106:     TRISB = (TRISB & 0b00011111) | cat;
  6875     0773  0021               	movlb	1	; select bank1
  6876     0774  080D               	movf	13,w	;volatile
  6877     0775  391F               	andlw	31
  6878     0776  047D               	iorwf	_cat,w
  6879     0777  008D               	movwf	13	;volatile
  6880     0778                     i1l490:
  6881     0778  0008               	return
  6882     0779                     __end_of_displayMux:
  6883                           
  6884                           	psect	text35
  6885     058F                     __ptext35:	
  6886 ;; *************** function _bin2bcd *****************
  6887 ;; Defined at:
  6888 ;;		line 10 in file "bin2bcd.c"
  6889 ;; Parameters:    Size  Location     Type
  6890 ;;  binVal          2    7[COMMON] unsigned short 
  6891 ;; Auto vars:     Size  Location     Type
  6892 ;;  i               1    0[BANK0 ] unsigned char 
  6893 ;;  dataU           4    1[BANK0 ] struct .
  6894 ;; Return value:  Size  Location     Type
  6895 ;;                  2    7[COMMON] unsigned short 
  6896 ;; Registers used:
  6897 ;;		wreg, fsr1l, fsr1h, status,2, status,0, pclath, cstack
  6898 ;; Tracked objects:
  6899 ;;		On entry : 0/0
  6900 ;;		On exit  : 0/0
  6901 ;;		Unchanged: 0/0
  6902 ;; Data sizes:     COMMON   BANK0   BANK1   BANK2   BANK3   BANK4
  6903 ;;      Params:         2       0       0       0       0       0
  6904 ;;      Locals:         0       5       0       0       0       0
  6905 ;;      Temps:          4       0       0       0       0       0
  6906 ;;      Totals:         6       5       0       0       0       0
  6907 ;;Total ram usage:       11 bytes
  6908 ;; Hardware stack levels used: 1
  6909 ;; Hardware stack levels required when called: 1
  6910 ;; This function calls:
  6911 ;;		_memset
  6912 ;; This function is called by:
  6913 ;;		_displayMux
  6914 ;;		_dattaOut
  6915 ;; This function uses a non-reentrant model
  6916 ;;
  6917                           
  6918     058F                     _bin2bcd:	
  6919                           ;psect for function _bin2bcd
  6920                           
  6921     058F                     i1l1987:	
  6922                           ;incstack = 0
  6923                           ; Regs used in _bin2bcd: [wreg+fsr1l+fsr1h+status,2+status,0+pclath+cstack]
  6924                           
  6925                           
  6926                           ;bin2bcd.c: 22:     }dataU;;bin2bcd.c: 23:     memset(&dataU,0,4);
  6927     058F  3000               	movlw	0
  6928     0590  00F0               	movwf	memset@c
  6929     0591  00F1               	movwf	memset@c+1
  6930     0592  3004               	movlw	4
  6931     0593  00F2               	movwf	memset@n
  6932     0594  3000               	movlw	0
  6933     0595  00F3               	movwf	memset@n+1
  6934     0596  3021               	movlw	(low (bin2bcd@dataU| 0))& (0+255)
  6935     0597  318F  276C  3185   	fcall	_memset
  6936     059A                     i1l1989:
  6937                           
  6938                           ;bin2bcd.c: 24:     dataU.shift = (uint32_t)binVal;
  6939     059A  0877               	movf	bin2bcd@binVal,w
  6940     059B  0020               	movlb	0	; select bank0
  6941     059C  00A1               	movwf	bin2bcd@dataU
  6942     059D  0878               	movf	bin2bcd@binVal+1,w
  6943     059E  00A2               	movwf	bin2bcd@dataU+1
  6944     059F  01A3               	clrf	bin2bcd@dataU+2
  6945     05A0  01A4               	clrf	bin2bcd@dataU+3
  6946     05A1                     i1l1991:
  6947                           
  6948                           ;bin2bcd.c: 25:     for(uint8_t i=0;i<12;i++){
  6949     05A1  01A0               	clrf	bin2bcd@i
  6950     05A2                     i1l1997:
  6951                           
  6952                           ;bin2bcd.c: 26:    if(dataU.dat.d0>=5){
  6953     05A2  0824               	movf	bin2bcd@dataU+3,w
  6954     05A3  390F               	andlw	15
  6955     05A4  00F9               	movwf	??_bin2bcd
  6956     05A5  3005               	movlw	5
  6957     05A6  0279               	subwf	??_bin2bcd,w
  6958     05A7  1C03               	skipc
  6959     05A8  2DAA               	goto	u131_21
  6960     05A9  2DAB               	goto	u131_20
  6961     05AA                     u131_21:
  6962     05AA  2DB4               	goto	i1l517
  6963     05AB                     u131_20:
  6964     05AB                     i1l1999:
  6965                           
  6966                           ;bin2bcd.c: 27:     dataU.dat.d0 = dataU.dat.d0 + 3;
  6967     05AB  0824               	movf	bin2bcd@dataU+3,w
  6968     05AC  390F               	andlw	15
  6969     05AD  3E03               	addlw	3
  6970     05AE  00F9               	movwf	??_bin2bcd
  6971     05AF  0824               	movf	bin2bcd@dataU+3,w
  6972     05B0  0679               	xorwf	??_bin2bcd,w
  6973     05B1  39F0               	andlw	-16
  6974     05B2  0679               	xorwf	??_bin2bcd,w
  6975     05B3  00A4               	movwf	bin2bcd@dataU+3
  6976     05B4                     i1l517:	
  6977                           ;bin2bcd.c: 28:    }
  6978                           
  6979                           
  6980                           ;bin2bcd.c: 29:    if(dataU.dat.d1>=5){
  6981     05B4  0E23               	swapf	bin2bcd@dataU+2,w
  6982     05B5  390F               	andlw	15
  6983     05B6  00F9               	movwf	??_bin2bcd
  6984     05B7  3005               	movlw	5
  6985     05B8  0279               	subwf	??_bin2bcd,w
  6986     05B9  1C03               	skipc
  6987     05BA  2DBC               	goto	u132_21
  6988     05BB  2DBD               	goto	u132_20
  6989     05BC                     u132_21:
  6990     05BC  2DC7               	goto	i1l518
  6991     05BD                     u132_20:
  6992     05BD                     i1l2001:
  6993                           
  6994                           ;bin2bcd.c: 30:     dataU.dat.d1 = dataU.dat.d1 + 3;
  6995     05BD  0E23               	swapf	bin2bcd@dataU+2,w
  6996     05BE  390F               	andlw	15
  6997     05BF  3E03               	addlw	3
  6998     05C0  00F9               	movwf	??_bin2bcd
  6999     05C1  0EF9               	swapf	??_bin2bcd,f
  7000     05C2  0823               	movf	bin2bcd@dataU+2,w
  7001     05C3  0679               	xorwf	??_bin2bcd,w
  7002     05C4  390F               	andlw	-241
  7003     05C5  0679               	xorwf	??_bin2bcd,w
  7004     05C6  00A3               	movwf	bin2bcd@dataU+2
  7005     05C7                     i1l518:	
  7006                           ;bin2bcd.c: 31:    }
  7007                           
  7008                           
  7009                           ;bin2bcd.c: 32:             if(dataU.dat.d2>=5){
  7010     05C7  0823               	movf	bin2bcd@dataU+2,w
  7011     05C8  390F               	andlw	15
  7012     05C9  00F9               	movwf	??_bin2bcd
  7013     05CA  3005               	movlw	5
  7014     05CB  0279               	subwf	??_bin2bcd,w
  7015     05CC  1C03               	skipc
  7016     05CD  2DCF               	goto	u133_21
  7017     05CE  2DD0               	goto	u133_20
  7018     05CF                     u133_21:
  7019     05CF  2DD9               	goto	i1l519
  7020     05D0                     u133_20:
  7021     05D0                     i1l2003:
  7022                           
  7023                           ;bin2bcd.c: 33:     dataU.dat.d2 = dataU.dat.d2 + 3;
  7024     05D0  0823               	movf	bin2bcd@dataU+2,w
  7025     05D1  390F               	andlw	15
  7026     05D2  3E03               	addlw	3
  7027     05D3  00F9               	movwf	??_bin2bcd
  7028     05D4  0823               	movf	bin2bcd@dataU+2,w
  7029     05D5  0679               	xorwf	??_bin2bcd,w
  7030     05D6  39F0               	andlw	-16
  7031     05D7  0679               	xorwf	??_bin2bcd,w
  7032     05D8  00A3               	movwf	bin2bcd@dataU+2
  7033     05D9                     i1l519:	
  7034                           ;bin2bcd.c: 34:    }
  7035                           
  7036                           
  7037                           ;bin2bcd.c: 35:             if(dataU.dat.d3>=5){
  7038     05D9  0E22               	swapf	bin2bcd@dataU+1,w
  7039     05DA  390F               	andlw	15
  7040     05DB  00F9               	movwf	??_bin2bcd
  7041     05DC  3005               	movlw	5
  7042     05DD  0279               	subwf	??_bin2bcd,w
  7043     05DE  1C03               	skipc
  7044     05DF  2DE1               	goto	u134_21
  7045     05E0  2DE2               	goto	u134_20
  7046     05E1                     u134_21:
  7047     05E1  2DEC               	goto	i1l520
  7048     05E2                     u134_20:
  7049     05E2                     i1l2005:
  7050                           
  7051                           ;bin2bcd.c: 36:     dataU.dat.d3 = dataU.dat.d3 + 3;
  7052     05E2  0E22               	swapf	bin2bcd@dataU+1,w
  7053     05E3  390F               	andlw	15
  7054     05E4  3E03               	addlw	3
  7055     05E5  00F9               	movwf	??_bin2bcd
  7056     05E6  0EF9               	swapf	??_bin2bcd,f
  7057     05E7  0822               	movf	bin2bcd@dataU+1,w
  7058     05E8  0679               	xorwf	??_bin2bcd,w
  7059     05E9  390F               	andlw	-241
  7060     05EA  0679               	xorwf	??_bin2bcd,w
  7061     05EB  00A2               	movwf	bin2bcd@dataU+1
  7062     05EC                     i1l520:	
  7063                           ;bin2bcd.c: 37:    }
  7064                           
  7065                           
  7066                           ;bin2bcd.c: 38:    dataU.shift = dataU.shift<<1;
  7067     05EC  0821               	movf	bin2bcd@dataU,w
  7068     05ED  00F9               	movwf	??_bin2bcd
  7069     05EE  0822               	movf	bin2bcd@dataU+1,w
  7070     05EF  00FA               	movwf	??_bin2bcd+1
  7071     05F0  0823               	movf	bin2bcd@dataU+2,w
  7072     05F1  00FB               	movwf	??_bin2bcd+2
  7073     05F2  0824               	movf	bin2bcd@dataU+3,w
  7074     05F3  00FC               	movwf	??_bin2bcd+3
  7075     05F4  3001               	movlw	1
  7076     05F5                     u135_25:
  7077     05F5  35F9               	lslf	??_bin2bcd,f
  7078     05F6  0DFA               	rlf	??_bin2bcd+1,f
  7079     05F7  0DFB               	rlf	??_bin2bcd+2,f
  7080     05F8  0DFC               	rlf	??_bin2bcd+3,f
  7081     05F9                     u135_20:
  7082     05F9  0B89               	decfsz	9,f
  7083     05FA  2DF5               	goto	u135_25
  7084     05FB  087C               	movf	??_bin2bcd+3,w
  7085     05FC  00A4               	movwf	bin2bcd@dataU+3
  7086     05FD  087B               	movf	??_bin2bcd+2,w
  7087     05FE  00A3               	movwf	bin2bcd@dataU+2
  7088     05FF  087A               	movf	??_bin2bcd+1,w
  7089     0600  00A2               	movwf	bin2bcd@dataU+1
  7090     0601  0879               	movf	??_bin2bcd,w
  7091     0602  00A1               	movwf	bin2bcd@dataU
  7092                           
  7093                           ;bin2bcd.c: 39:     }
  7094     0603  3001               	movlw	1
  7095     0604  00F9               	movwf	??_bin2bcd
  7096     0605  0879               	movf	??_bin2bcd,w
  7097     0606  07A0               	addwf	bin2bcd@i,f
  7098     0607                     i1l2007:
  7099     0607  300C               	movlw	12
  7100     0608  0220               	subwf	bin2bcd@i,w
  7101     0609  1C03               	skipc
  7102     060A  2E0C               	goto	u136_21
  7103     060B  2E0D               	goto	u136_20
  7104     060C                     u136_21:
  7105     060C  2DA2               	goto	i1l1997
  7106     060D                     u136_20:
  7107     060D                     i1l2009:
  7108                           
  7109                           ;bin2bcd.c: 40:     return (uint16_t)(dataU.shift>>12);
  7110     060D  0821               	movf	bin2bcd@dataU,w
  7111     060E  00F9               	movwf	??_bin2bcd
  7112     060F  0822               	movf	bin2bcd@dataU+1,w
  7113     0610  00FA               	movwf	??_bin2bcd+1
  7114     0611  0823               	movf	bin2bcd@dataU+2,w
  7115     0612  00FB               	movwf	??_bin2bcd+2
  7116     0613  0824               	movf	bin2bcd@dataU+3,w
  7117     0614  00FC               	movwf	??_bin2bcd+3
  7118     0615  300C               	movlw	12
  7119     0616                     u137_25:
  7120     0616  36FC               	lsrf	??_bin2bcd+3,f
  7121     0617  0CFB               	rrf	??_bin2bcd+2,f
  7122     0618  0CFA               	rrf	??_bin2bcd+1,f
  7123     0619  0CF9               	rrf	??_bin2bcd,f
  7124     061A                     u137_20:
  7125     061A  0B89               	decfsz	9,f
  7126     061B  2E16               	goto	u137_25
  7127     061C  087A               	movf	??_bin2bcd+1,w
  7128     061D  00F8               	movwf	?_bin2bcd+1
  7129     061E  0879               	movf	??_bin2bcd,w
  7130     061F  00F7               	movwf	?_bin2bcd
  7131     0620                     i1l521:
  7132     0620  0008               	return
  7133     0621                     __end_of_bin2bcd:
  7134                           
  7135                           	psect	text36
  7136     0F6C                     __ptext36:	
  7137 ;; *************** function _memset *****************
  7138 ;; Defined at:
  7139 ;;		line 3 in file "C:\Program Files\Microchip\xc8\v2.45\pic\sources\c99\common\memset.c"
  7140 ;; Parameters:    Size  Location     Type
  7141 ;;  dest            1    wreg     PTR void 
  7142 ;;		 -> bin2bcd@dataU(4), 
  7143 ;;  c               2    0[COMMON] int 
  7144 ;;  n               2    2[COMMON] unsigned int 
  7145 ;; Auto vars:     Size  Location     Type
  7146 ;;  dest            1    5[COMMON] PTR void 
  7147 ;;		 -> bin2bcd@dataU(4), 
  7148 ;;  p               1    6[COMMON] PTR unsigned char 
  7149 ;;		 -> bin2bcd@dataU(4), 
  7150 ;; Return value:  Size  Location     Type
  7151 ;;                  1    wreg      PTR void 
  7152 ;; Registers used:
  7153 ;;		wreg, fsr1l, fsr1h, status,2, status,0
  7154 ;; Tracked objects:
  7155 ;;		On entry : 0/0
  7156 ;;		On exit  : 0/0
  7157 ;;		Unchanged: 0/0
  7158 ;; Data sizes:     COMMON   BANK0   BANK1   BANK2   BANK3   BANK4
  7159 ;;      Params:         4       0       0       0       0       0
  7160 ;;      Locals:         2       0       0       0       0       0
  7161 ;;      Temps:          1       0       0       0       0       0
  7162 ;;      Totals:         7       0       0       0       0       0
  7163 ;;Total ram usage:        7 bytes
  7164 ;; Hardware stack levels used: 1
  7165 ;; This function calls:
  7166 ;;		Nothing
  7167 ;; This function is called by:
  7168 ;;		_bin2bcd
  7169 ;; This function uses a non-reentrant model
  7170 ;;
  7171                           
  7172     0F6C                     _memset:	
  7173                           ;psect for function _memset
  7174                           
  7175                           
  7176                           ;incstack = 0
  7177                           ; Regs used in _memset: [wreg+fsr1l+fsr1h+status,2+status,0]
  7178                           ;memset@dest stored from wreg
  7179     0F6C  00F5               	movwf	memset@dest
  7180     0F6D                     i1l1975:
  7181     0F6D  0875               	movf	memset@dest,w
  7182     0F6E  00F6               	movwf	memset@p
  7183     0F6F  2F79               	goto	i1l1981
  7184     0F70                     i1l1977:
  7185     0F70  0876               	movf	memset@p,w
  7186     0F71  0086               	movwf	6
  7187     0F72  0187               	clrf	7
  7188     0F73  0870               	movf	memset@c,w
  7189     0F74  0081               	movwf	1
  7190     0F75                     i1l1979:
  7191     0F75  3001               	movlw	1
  7192     0F76  00F4               	movwf	??_memset
  7193     0F77  0874               	movf	??_memset,w
  7194     0F78  07F6               	addwf	memset@p,f
  7195     0F79                     i1l1981:
  7196     0F79  3001               	movlw	1
  7197     0F7A  02F2               	subwf	memset@n,f
  7198     0F7B  3000               	movlw	0
  7199     0F7C  3BF3               	subwfb	memset@n+1,f
  7200     0F7D  0A72               	incf	memset@n,w
  7201     0F7E  1D03               	skipz
  7202     0F7F  2F84               	goto	u129_21
  7203     0F80  0A73               	incf	memset@n+1,w
  7204     0F81  1D03               	btfss	3,2
  7205     0F82  2F84               	goto	u129_21
  7206     0F83  2F85               	goto	u129_20
  7207     0F84                     u129_21:
  7208     0F84  2F70               	goto	i1l1977
  7209     0F85                     u129_20:
  7210     0F85                     i1l1133:
  7211     0F85  0008               	return
  7212     0F86                     __end_of_memset:
  7213                           
  7214                           	psect	text37
  7215     0EEF                     __ptext37:	
  7216 ;; *************** function _TMR1_WriteTimer *****************
  7217 ;; Defined at:
  7218 ;;		line 120 in file "mcc_generated_files/tmr1.c"
  7219 ;; Parameters:    Size  Location     Type
  7220 ;;  timerVal        2    0[COMMON] unsigned short 
  7221 ;; Auto vars:     Size  Location     Type
  7222 ;;		None
  7223 ;; Return value:  Size  Location     Type
  7224 ;;                  1    wreg      void 
  7225 ;; Registers used:
  7226 ;;		wreg, status,2
  7227 ;; Tracked objects:
  7228 ;;		On entry : 0/0
  7229 ;;		On exit  : 0/0
  7230 ;;		Unchanged: 0/0
  7231 ;; Data sizes:     COMMON   BANK0   BANK1   BANK2   BANK3   BANK4
  7232 ;;      Params:         2       0       0       0       0       0
  7233 ;;      Locals:         0       0       0       0       0       0
  7234 ;;      Temps:          0       0       0       0       0       0
  7235 ;;      Totals:         2       0       0       0       0       0
  7236 ;;Total ram usage:        2 bytes
  7237 ;; Hardware stack levels used: 1
  7238 ;; This function calls:
  7239 ;;		Nothing
  7240 ;; This function is called by:
  7241 ;;		_TMR1_ISR
  7242 ;;		_TMR1_Reload
  7243 ;; This function uses a non-reentrant model
  7244 ;;
  7245                           
  7246     0EEF                     _TMR1_WriteTimer:	
  7247                           ;psect for function _TMR1_WriteTimer
  7248                           
  7249     0EEF                     i1l2171:	
  7250                           ;incstack = 0
  7251                           ; Regs used in _TMR1_WriteTimer: [wreg+status,2]
  7252                           
  7253                           
  7254                           ;mcc_generated_files/tmr1.c: 120: void TMR1_WriteTimer(uint16_t timerVal);mcc_generated_
      +                          files/tmr1.c: 121: {;mcc_generated_files/tmr1.c: 122:     if (T1CONbits.nT1SYNC == 1)
  7255     0EEF  0020               	movlb	0	; select bank0
  7256     0EF0  1D18               	btfss	24,2	;volatile
  7257     0EF1  2EF3               	goto	u142_21
  7258     0EF2  2EF4               	goto	u142_20
  7259     0EF3                     u142_21:
  7260     0EF3  2EFB               	goto	i1l2181
  7261     0EF4                     u142_20:
  7262     0EF4                     i1l2173:
  7263                           
  7264                           ;mcc_generated_files/tmr1.c: 123:     {;mcc_generated_files/tmr1.c: 125:         T1CONbi
      +                          ts.TMR1ON = 0;
  7265     0EF4  1018               	bcf	24,0	;volatile
  7266     0EF5                     i1l2175:
  7267                           
  7268                           ;mcc_generated_files/tmr1.c: 128:         TMR1H = (uint8_t)(timerVal >> 8);
  7269     0EF5  0871               	movf	TMR1_WriteTimer@timerVal+1,w
  7270     0EF6  0097               	movwf	23	;volatile
  7271     0EF7                     i1l2177:
  7272                           
  7273                           ;mcc_generated_files/tmr1.c: 129:         TMR1L = (uint8_t)timerVal;
  7274     0EF7  0870               	movf	TMR1_WriteTimer@timerVal,w
  7275     0EF8  0096               	movwf	22	;volatile
  7276     0EF9                     i1l2179:
  7277                           
  7278                           ;mcc_generated_files/tmr1.c: 132:         T1CONbits.TMR1ON =1;
  7279     0EF9  1418               	bsf	24,0	;volatile
  7280                           
  7281                           ;mcc_generated_files/tmr1.c: 133:     }
  7282     0EFA  2EFF               	goto	i1l237
  7283     0EFB                     i1l2181:
  7284                           
  7285                           ;mcc_generated_files/tmr1.c: 135:     {;mcc_generated_files/tmr1.c: 137:         TMR1H =
      +                           (uint8_t)(timerVal >> 8);
  7286     0EFB  0871               	movf	TMR1_WriteTimer@timerVal+1,w
  7287     0EFC  0097               	movwf	23	;volatile
  7288     0EFD                     i1l2183:
  7289                           
  7290                           ;mcc_generated_files/tmr1.c: 138:         TMR1L = (uint8_t)timerVal;
  7291     0EFD  0870               	movf	TMR1_WriteTimer@timerVal,w
  7292     0EFE  0096               	movwf	22	;volatile
  7293     0EFF                     i1l237:
  7294     0EFF  0008               	return
  7295     0F00                     __end_of_TMR1_WriteTimer:
  7296                           
  7297                           	psect	text38
  7298     0EDE                     __ptext38:	
  7299 ;; *************** function _PIN_MANAGER_IOC *****************
  7300 ;; Defined at:
  7301 ;;		line 119 in file "mcc_generated_files/pin_manager.c"
  7302 ;; Parameters:    Size  Location     Type
  7303 ;;		None
  7304 ;; Auto vars:     Size  Location     Type
  7305 ;;		None
  7306 ;; Return value:  Size  Location     Type
  7307 ;;                  1    wreg      void 
  7308 ;; Registers used:
  7309 ;;		wreg, status,2, status,0, pclath, cstack
  7310 ;; Tracked objects:
  7311 ;;		On entry : 0/0
  7312 ;;		On exit  : 0/0
  7313 ;;		Unchanged: 0/0
  7314 ;; Data sizes:     COMMON   BANK0   BANK1   BANK2   BANK3   BANK4
  7315 ;;      Params:         0       0       0       0       0       0
  7316 ;;      Locals:         0       0       0       0       0       0
  7317 ;;      Temps:          0       0       0       0       0       0
  7318 ;;      Totals:         0       0       0       0       0       0
  7319 ;;Total ram usage:        0 bytes
  7320 ;; Hardware stack levels used: 1
  7321 ;; Hardware stack levels required when called: 2
  7322 ;; This function calls:
  7323 ;;		_IOCBF0_ISR
  7324 ;;		_IOCBF3_ISR
  7325 ;; This function is called by:
  7326 ;;		_INTERRUPT_InterruptManager
  7327 ;; This function uses a non-reentrant model
  7328 ;;
  7329                           
  7330     0EDE                     _PIN_MANAGER_IOC:	
  7331                           ;psect for function _PIN_MANAGER_IOC
  7332                           
  7333     0EDE                     i1l2233:	
  7334                           ;incstack = 0
  7335                           ; Regs used in _PIN_MANAGER_IOC: [wreg+status,2+status,0+pclath+cstack]
  7336                           
  7337                           
  7338                           ;mcc_generated_files/pin_manager.c: 122:     if(IOCBFbits.IOCBF0 == 1)
  7339     0EDE  0027               	movlb	7	; select bank7
  7340     0EDF  1C16               	btfss	22,0	;volatile
  7341     0EE0  2EE2               	goto	u147_21
  7342     0EE1  2EE3               	goto	u147_20
  7343     0EE2                     u147_21:
  7344     0EE2  2EE6               	goto	i1l2237
  7345     0EE3                     u147_20:
  7346     0EE3                     i1l2235:
  7347                           
  7348                           ;mcc_generated_files/pin_manager.c: 123:     {;mcc_generated_files/pin_manager.c: 124:  
      +                                 IOCBF0_ISR();
  7349     0EE3  318E  26C0  318E   	fcall	_IOCBF0_ISR
  7350     0EE6                     i1l2237:
  7351                           
  7352                           ;mcc_generated_files/pin_manager.c: 127:     if(IOCBFbits.IOCBF3 == 1)
  7353     0EE6  0027               	movlb	7	; select bank7
  7354     0EE7  1D96               	btfss	22,3	;volatile
  7355     0EE8  2EEA               	goto	u148_21
  7356     0EE9  2EEB               	goto	u148_20
  7357     0EEA                     u148_21:
  7358     0EEA  2EEE               	goto	i1l118
  7359     0EEB                     u148_20:
  7360     0EEB                     i1l2239:
  7361                           
  7362                           ;mcc_generated_files/pin_manager.c: 128:     {;mcc_generated_files/pin_manager.c: 129:  
      +                                 IOCBF3_ISR();
  7363     0EEB  318E  26CF  318E   	fcall	_IOCBF3_ISR
  7364     0EEE                     i1l118:
  7365     0EEE  0008               	return
  7366     0EEF                     __end_of_PIN_MANAGER_IOC:
  7367                           
  7368                           	psect	text39
  7369     0ECF                     __ptext39:	
  7370 ;; *************** function _IOCBF3_ISR *****************
  7371 ;; Defined at:
  7372 ;;		line 166 in file "mcc_generated_files/pin_manager.c"
  7373 ;; Parameters:    Size  Location     Type
  7374 ;;		None
  7375 ;; Auto vars:     Size  Location     Type
  7376 ;;		None
  7377 ;; Return value:  Size  Location     Type
  7378 ;;                  1    wreg      void 
  7379 ;; Registers used:
  7380 ;;		wreg, status,2, status,0, pclath, cstack
  7381 ;; Tracked objects:
  7382 ;;		On entry : 0/0
  7383 ;;		On exit  : 0/0
  7384 ;;		Unchanged: 0/0
  7385 ;; Data sizes:     COMMON   BANK0   BANK1   BANK2   BANK3   BANK4
  7386 ;;      Params:         0       0       0       0       0       0
  7387 ;;      Locals:         0       0       0       0       0       0
  7388 ;;      Temps:          0       0       0       0       0       0
  7389 ;;      Totals:         0       0       0       0       0       0
  7390 ;;Total ram usage:        0 bytes
  7391 ;; Hardware stack levels used: 1
  7392 ;; Hardware stack levels required when called: 1
  7393 ;; This function calls:
  7394 ;;		NULL
  7395 ;;		_IOCBF3_DefaultInterruptHandler
  7396 ;;		_carOut
  7397 ;; This function is called by:
  7398 ;;		_PIN_MANAGER_IOC
  7399 ;; This function uses a non-reentrant model
  7400 ;;
  7401                           
  7402     0ECF                     _IOCBF3_ISR:	
  7403                           ;psect for function _IOCBF3_ISR
  7404                           
  7405     0ECF                     i1l2165:	
  7406                           ;incstack = 0
  7407                           ; Regs used in _IOCBF3_ISR: [wreg+status,2+status,0+pclath+cstack]
  7408                           
  7409                           
  7410                           ;mcc_generated_files/pin_manager.c: 171:     if(IOCBF3_InterruptHandler)
  7411     0ECF  0021               	movlb	1	; select bank1
  7412     0ED0  082E               	movf	_IOCBF3_InterruptHandler^(0+128),w
  7413     0ED1  042F               	iorwf	(_IOCBF3_InterruptHandler+1)^(0+128),w
  7414     0ED2  1903               	btfsc	3,2
  7415     0ED3  2ED5               	goto	u141_21
  7416     0ED4  2ED6               	goto	u141_20
  7417     0ED5                     u141_21:
  7418     0ED5  2EDB               	goto	i1l2169
  7419     0ED6                     u141_20:
  7420     0ED6                     i1l2167:
  7421                           
  7422                           ;mcc_generated_files/pin_manager.c: 172:     {;mcc_generated_files/pin_manager.c: 173:  
      +                                 IOCBF3_InterruptHandler();
  7423     0ED6  082F               	movf	(_IOCBF3_InterruptHandler+1)^(0+128),w
  7424     0ED7  008A               	movwf	10
  7425     0ED8  082E               	movf	_IOCBF3_InterruptHandler^(0+128),w
  7426     0ED9  000A               	callw
  7427     0EDA  318E               	pagesel	$
  7428     0EDB                     i1l2169:
  7429                           
  7430                           ;mcc_generated_files/pin_manager.c: 175:     IOCBFbits.IOCBF3 = 0;
  7431     0EDB  0027               	movlb	7	; select bank7
  7432     0EDC  1196               	bcf	22,3	;volatile
  7433     0EDD                     i1l132:
  7434     0EDD  0008               	return
  7435     0EDE                     __end_of_IOCBF3_ISR:
  7436                           
  7437                           	psect	text40
  7438     0E33                     __ptext40:	
  7439 ;; *************** function _IOCBF3_DefaultInterruptHandler *****************
  7440 ;; Defined at:
  7441 ;;		line 188 in file "mcc_generated_files/pin_manager.c"
  7442 ;; Parameters:    Size  Location     Type
  7443 ;;		None
  7444 ;; Auto vars:     Size  Location     Type
  7445 ;;		None
  7446 ;; Return value:  Size  Location     Type
  7447 ;;                  1    wreg      void 
  7448 ;; Registers used:
  7449 ;;		None
  7450 ;; Tracked objects:
  7451 ;;		On entry : 0/0
  7452 ;;		On exit  : 0/0
  7453 ;;		Unchanged: 0/0
  7454 ;; Data sizes:     COMMON   BANK0   BANK1   BANK2   BANK3   BANK4
  7455 ;;      Params:         0       0       0       0       0       0
  7456 ;;      Locals:         0       0       0       0       0       0
  7457 ;;      Temps:          0       0       0       0       0       0
  7458 ;;      Totals:         0       0       0       0       0       0
  7459 ;;Total ram usage:        0 bytes
  7460 ;; Hardware stack levels used: 1
  7461 ;; This function calls:
  7462 ;;		Nothing
  7463 ;; This function is called by:
  7464 ;;		_PIN_MANAGER_Initialize
  7465 ;;		_IOCBF3_ISR
  7466 ;; This function uses a non-reentrant model
  7467 ;;
  7468                           
  7469     0E33                     _IOCBF3_DefaultInterruptHandler:	
  7470                           ;psect for function _IOCBF3_DefaultInterruptHandler
  7471                           
  7472     0E33                     i1l138:	
  7473                           ;incstack = 0
  7474                           ; Regs used in _IOCBF3_DefaultInterruptHandler: []
  7475                           
  7476     0E33  0008               	return
  7477     0E34                     __end_of_IOCBF3_DefaultInterruptHandler:
  7478                           
  7479                           	psect	text41
  7480     0F27                     __ptext41:	
  7481 ;; *************** function _carOut *****************
  7482 ;; Defined at:
  7483 ;;		line 125 in file "main.c"
  7484 ;; Parameters:    Size  Location     Type
  7485 ;;		None
  7486 ;; Auto vars:     Size  Location     Type
  7487 ;;		None
  7488 ;; Return value:  Size  Location     Type
  7489 ;;                  1    wreg      void 
  7490 ;; Registers used:
  7491 ;;		wreg, status,2, status,0
  7492 ;; Tracked objects:
  7493 ;;		On entry : 0/0
  7494 ;;		On exit  : 0/0
  7495 ;;		Unchanged: 0/0
  7496 ;; Data sizes:     COMMON   BANK0   BANK1   BANK2   BANK3   BANK4
  7497 ;;      Params:         0       0       0       0       0       0
  7498 ;;      Locals:         0       0       0       0       0       0
  7499 ;;      Temps:          0       0       0       0       0       0
  7500 ;;      Totals:         0       0       0       0       0       0
  7501 ;;Total ram usage:        0 bytes
  7502 ;; Hardware stack levels used: 1
  7503 ;; This function calls:
  7504 ;;		Nothing
  7505 ;; This function is called by:
  7506 ;;		_main
  7507 ;;		_IOCBF3_ISR
  7508 ;; This function uses a non-reentrant model
  7509 ;;
  7510                           
  7511     0F27                     _carOut:	
  7512                           ;psect for function _carOut
  7513                           
  7514     0F27                     i1l2049:	
  7515                           ;incstack = 0
  7516                           ; Regs used in _carOut: [wreg+status,2+status,0]
  7517                           
  7518                           
  7519                           ;main.c: 127:    park_uint = (park_uint == 999)? park_uint : park_uint+1;
  7520     0F27  30E7               	movlw	231
  7521     0F28  0020               	movlb	0	; select bank0
  7522     0F29  0666               	xorwf	_park_uint,w
  7523     0F2A  3003               	movlw	3
  7524     0F2B  1903               	skipnz
  7525     0F2C  0667               	xorwf	_park_uint+1,w
  7526     0F2D  1903               	btfsc	3,2
  7527     0F2E  2F30               	goto	u139_21
  7528     0F2F  2F31               	goto	u139_20
  7529     0F30                     u139_21:
  7530     0F30  2F38               	goto	i1l2053
  7531     0F31                     u139_20:
  7532     0F31                     i1l2051:
  7533     0F31  0866               	movf	_park_uint,w
  7534     0F32  3E01               	addlw	1
  7535     0F33  00E6               	movwf	_park_uint
  7536     0F34  3000               	movlw	0
  7537     0F35  3D67               	addwfc	_park_uint+1,w
  7538     0F36  00E7               	movwf	_park_uint+1
  7539     0F37  2F3C               	goto	i1l507
  7540     0F38                     i1l2053:
  7541     0F38  0867               	movf	_park_uint+1,w
  7542     0F39  00E7               	movwf	_park_uint+1
  7543     0F3A  0866               	movf	_park_uint,w
  7544     0F3B  00E6               	movwf	_park_uint
  7545     0F3C                     i1l507:
  7546     0F3C  0008               	return
  7547     0F3D                     __end_of_carOut:
  7548                           
  7549                           	psect	text42
  7550     0EC0                     __ptext42:	
  7551 ;; *************** function _IOCBF0_ISR *****************
  7552 ;; Defined at:
  7553 ;;		line 136 in file "mcc_generated_files/pin_manager.c"
  7554 ;; Parameters:    Size  Location     Type
  7555 ;;		None
  7556 ;; Auto vars:     Size  Location     Type
  7557 ;;		None
  7558 ;; Return value:  Size  Location     Type
  7559 ;;                  1    wreg      void 
  7560 ;; Registers used:
  7561 ;;		wreg, status,2, status,0, pclath, cstack
  7562 ;; Tracked objects:
  7563 ;;		On entry : 0/0
  7564 ;;		On exit  : 0/0
  7565 ;;		Unchanged: 0/0
  7566 ;; Data sizes:     COMMON   BANK0   BANK1   BANK2   BANK3   BANK4
  7567 ;;      Params:         0       0       0       0       0       0
  7568 ;;      Locals:         0       0       0       0       0       0
  7569 ;;      Temps:          0       0       0       0       0       0
  7570 ;;      Totals:         0       0       0       0       0       0
  7571 ;;Total ram usage:        0 bytes
  7572 ;; Hardware stack levels used: 1
  7573 ;; Hardware stack levels required when called: 1
  7574 ;; This function calls:
  7575 ;;		NULL
  7576 ;;		_IOCBF0_DefaultInterruptHandler
  7577 ;;		_carIn
  7578 ;; This function is called by:
  7579 ;;		_PIN_MANAGER_IOC
  7580 ;; This function uses a non-reentrant model
  7581 ;;
  7582                           
  7583     0EC0                     _IOCBF0_ISR:	
  7584                           ;psect for function _IOCBF0_ISR
  7585                           
  7586     0EC0                     i1l2159:	
  7587                           ;incstack = 0
  7588                           ; Regs used in _IOCBF0_ISR: [wreg+status,2+status,0+pclath+cstack]
  7589                           
  7590                           
  7591                           ;mcc_generated_files/pin_manager.c: 141:     if(IOCBF0_InterruptHandler)
  7592     0EC0  0021               	movlb	1	; select bank1
  7593     0EC1  0830               	movf	_IOCBF0_InterruptHandler^(0+128),w
  7594     0EC2  0431               	iorwf	(_IOCBF0_InterruptHandler+1)^(0+128),w
  7595     0EC3  1903               	btfsc	3,2
  7596     0EC4  2EC6               	goto	u140_21
  7597     0EC5  2EC7               	goto	u140_20
  7598     0EC6                     u140_21:
  7599     0EC6  2ECC               	goto	i1l2163
  7600     0EC7                     u140_20:
  7601     0EC7                     i1l2161:
  7602                           
  7603                           ;mcc_generated_files/pin_manager.c: 142:     {;mcc_generated_files/pin_manager.c: 143:  
      +                                 IOCBF0_InterruptHandler();
  7604     0EC7  0831               	movf	(_IOCBF0_InterruptHandler+1)^(0+128),w
  7605     0EC8  008A               	movwf	10
  7606     0EC9  0830               	movf	_IOCBF0_InterruptHandler^(0+128),w
  7607     0ECA  000A               	callw
  7608     0ECB  318E               	pagesel	$
  7609     0ECC                     i1l2163:
  7610                           
  7611                           ;mcc_generated_files/pin_manager.c: 145:     IOCBFbits.IOCBF0 = 0;
  7612     0ECC  0027               	movlb	7	; select bank7
  7613     0ECD  1016               	bcf	22,0	;volatile
  7614     0ECE                     i1l122:
  7615     0ECE  0008               	return
  7616     0ECF                     __end_of_IOCBF0_ISR:
  7617                           
  7618                           	psect	text43
  7619     0E32                     __ptext43:	
  7620 ;; *************** function _IOCBF0_DefaultInterruptHandler *****************
  7621 ;; Defined at:
  7622 ;;		line 158 in file "mcc_generated_files/pin_manager.c"
  7623 ;; Parameters:    Size  Location     Type
  7624 ;;		None
  7625 ;; Auto vars:     Size  Location     Type
  7626 ;;		None
  7627 ;; Return value:  Size  Location     Type
  7628 ;;                  1    wreg      void 
  7629 ;; Registers used:
  7630 ;;		None
  7631 ;; Tracked objects:
  7632 ;;		On entry : 0/0
  7633 ;;		On exit  : 0/0
  7634 ;;		Unchanged: 0/0
  7635 ;; Data sizes:     COMMON   BANK0   BANK1   BANK2   BANK3   BANK4
  7636 ;;      Params:         0       0       0       0       0       0
  7637 ;;      Locals:         0       0       0       0       0       0
  7638 ;;      Temps:          0       0       0       0       0       0
  7639 ;;      Totals:         0       0       0       0       0       0
  7640 ;;Total ram usage:        0 bytes
  7641 ;; Hardware stack levels used: 1
  7642 ;; This function calls:
  7643 ;;		Nothing
  7644 ;; This function is called by:
  7645 ;;		_PIN_MANAGER_Initialize
  7646 ;;		_IOCBF0_ISR
  7647 ;; This function uses a non-reentrant model
  7648 ;;
  7649                           
  7650     0E32                     _IOCBF0_DefaultInterruptHandler:	
  7651                           ;psect for function _IOCBF0_DefaultInterruptHandler
  7652                           
  7653     0E32                     i1l128:	
  7654                           ;incstack = 0
  7655                           ; Regs used in _IOCBF0_DefaultInterruptHandler: []
  7656                           
  7657     0E32  0008               	return
  7658     0E33                     __end_of_IOCBF0_DefaultInterruptHandler:
  7659                           
  7660                           	psect	text44
  7661     0F00                     __ptext44:	
  7662 ;; *************** function _carIn *****************
  7663 ;; Defined at:
  7664 ;;		line 120 in file "main.c"
  7665 ;; Parameters:    Size  Location     Type
  7666 ;;		None
  7667 ;; Auto vars:     Size  Location     Type
  7668 ;;		None
  7669 ;; Return value:  Size  Location     Type
  7670 ;;                  1    wreg      void 
  7671 ;; Registers used:
  7672 ;;		wreg, status,2, status,0
  7673 ;; Tracked objects:
  7674 ;;		On entry : 0/0
  7675 ;;		On exit  : 0/0
  7676 ;;		Unchanged: 0/0
  7677 ;; Data sizes:     COMMON   BANK0   BANK1   BANK2   BANK3   BANK4
  7678 ;;      Params:         0       0       0       0       0       0
  7679 ;;      Locals:         0       0       0       0       0       0
  7680 ;;      Temps:          0       0       0       0       0       0
  7681 ;;      Totals:         0       0       0       0       0       0
  7682 ;;Total ram usage:        0 bytes
  7683 ;; Hardware stack levels used: 1
  7684 ;; This function calls:
  7685 ;;		Nothing
  7686 ;; This function is called by:
  7687 ;;		_main
  7688 ;;		_IOCBF0_ISR
  7689 ;; This function uses a non-reentrant model
  7690 ;;
  7691                           
  7692     0F00                     _carIn:	
  7693                           ;psect for function _carIn
  7694                           
  7695     0F00                     i1l2043:	
  7696                           ;incstack = 0
  7697                           ; Regs used in _carIn: [wreg+status,2+status,0]
  7698                           
  7699                           
  7700                           ;main.c: 122:     park_uint = (park_uint == 0)? park_uint : park_uint-1;
  7701     0F00  0020               	movlb	0	; select bank0
  7702     0F01  0866               	movf	_park_uint,w
  7703     0F02  0467               	iorwf	_park_uint+1,w
  7704     0F03  1903               	btfsc	3,2
  7705     0F04  2F06               	goto	u138_21
  7706     0F05  2F07               	goto	u138_20
  7707     0F06                     u138_21:
  7708     0F06  2F0E               	goto	i1l2047
  7709     0F07                     u138_20:
  7710     0F07                     i1l2045:
  7711     0F07  0866               	movf	_park_uint,w
  7712     0F08  3EFF               	addlw	255
  7713     0F09  00E6               	movwf	_park_uint
  7714     0F0A  30FF               	movlw	255
  7715     0F0B  3D67               	addwfc	_park_uint+1,w
  7716     0F0C  00E7               	movwf	_park_uint+1
  7717     0F0D  2F12               	goto	i1l500
  7718     0F0E                     i1l2047:
  7719     0F0E  0867               	movf	_park_uint+1,w
  7720     0F0F  00E7               	movwf	_park_uint+1
  7721     0F10  0866               	movf	_park_uint,w
  7722     0F11  00E6               	movwf	_park_uint
  7723     0F12                     i1l500:
  7724     0F12  0008               	return
  7725     0F13                     __end_of_carIn:
  7726     007E                     btemp	set	126	;btemp
  7727     007E                     int$flags	set	126
  7728     007E                     wtemp0	set	126
  7729                           
  7730                           	psect	config
  7731                           
  7732                           ;Config register CONFIG1 @ 0x8007
  7733                           ;	Oscillator Selection
  7734                           ;	FOSC = INTOSC, INTOSC oscillator: I/O function on CLKIN pin
  7735                           ;	Watchdog Timer Enable
  7736                           ;	WDTE = OFF, WDT disabled
  7737                           ;	Power-up Timer Enable
  7738                           ;	PWRTE = OFF, PWRT disabled
  7739                           ;	MCLR Pin Function Select
  7740                           ;	MCLRE = ON, MCLR/VPP pin function is MCLR
  7741                           ;	Flash Program Memory Code Protection
  7742                           ;	CP = OFF, Program memory code protection is disabled
  7743                           ;	Data Memory Code Protection
  7744                           ;	CPD = OFF, Data memory code protection is disabled
  7745                           ;	Brown-out Reset Enable
  7746                           ;	BOREN = ON, Brown-out Reset enabled
  7747                           ;	Clock Out Enable
  7748                           ;	CLKOUTEN = OFF, CLKOUT function is disabled. I/O or oscillator function on the CLKOUT 
      +                          pin
  7749                           ;	Internal/External Switchover
  7750                           ;	IESO = ON, Internal/External Switchover mode is enabled
  7751                           ;	Fail-Safe Clock Monitor Enable
  7752                           ;	FCMEN = ON, Fail-Safe Clock Monitor is enabled
  7753     8007                     	org	32775
  7754     8007  3FE4               	dw	16356
  7755                           
  7756                           ;Config register CONFIG2 @ 0x8008
  7757                           ;	Flash Memory Self-Write Protection
  7758                           ;	WRT = OFF, Write protection off
  7759                           ;	PLL Enable
  7760                           ;	PLLEN = OFF, 4x PLL disabled
  7761                           ;	Stack Overflow/Underflow Reset Enable
  7762                           ;	STVREN = ON, Stack Overflow or Underflow will cause a Reset
  7763                           ;	Brown-out Reset Voltage Selection
  7764                           ;	BORV = LO, Brown-out Reset Voltage (Vbor), low trip point selected.
  7765                           ;	In-Circuit Debugger Mode
  7766                           ;	DEBUG = 0x1, unprogrammed default
  7767                           ;	Low-Voltage Programming Enable
  7768                           ;	LVP = ON, Low-voltage programming enabled
  7769     8008                     	org	32776
  7770     8008  3EFF               	dw	16127

Data Sizes:
    Strings     0
    Constant    10
    Data        3
    BSS         7
    Persistent  50
    Stack       0

Auto Spaces:
    Space          Size  Autos    Used
    COMMON           14     13      14
    BANK0            80     65      72
    BANK1            80     12      32
    BANK2            80      0       0
    BANK3            80      0       0
    BANK4            48      0       0

Pointer List with Targets:

    ADC_InterruptHandler	PTR FTN()void  size(2) Largest target is 1
		 -> NULL(), 

    EUSART_ErrorHandler	PTR FTN()void  size(2) Largest target is 1
		 -> EUSART_DefaultErrorHandler(), NULL(), 

    EUSART_FramingErrorHandler	PTR FTN()void  size(2) Largest target is 1
		 -> EUSART_DefaultFramingErrorHandler(), NULL(), 

    EUSART_OverrunErrorHandler	PTR FTN()void  size(2) Largest target is 1
		 -> EUSART_DefaultOverrunErrorHandler(), NULL(), 

    EUSART_SetErrorHandler@interruptHandler	PTR FTN()void  size(2) Largest target is 1
		 -> EUSART_DefaultErrorHandler(), 

    EUSART_SetFramingErrorHandler@interruptHandler	PTR FTN()void  size(2) Largest target is 1
		 -> EUSART_DefaultFramingErrorHandler(), 

    EUSART_SetOverrunErrorHandler@interruptHandler	PTR FTN()void  size(2) Largest target is 1
		 -> EUSART_DefaultOverrunErrorHandler(), 

    IOCBF0_InterruptHandler	PTR FTN()void  size(2) Largest target is 1
		 -> carIn(), IOCBF0_DefaultInterruptHandler(), NULL(), 

    IOCBF0_SetInterruptHandler@InterruptHandler	PTR FTN()void  size(2) Largest target is 1
		 -> carIn(), IOCBF0_DefaultInterruptHandler(), 

    IOCBF3_InterruptHandler	PTR FTN()void  size(2) Largest target is 1
		 -> carOut(), IOCBF3_DefaultInterruptHandler(), NULL(), 

    IOCBF3_SetInterruptHandler@InterruptHandler	PTR FTN()void  size(2) Largest target is 1
		 -> carOut(), IOCBF3_DefaultInterruptHandler(), 

    memset@dest	PTR void  size(1) Largest target is 4
		 -> bin2bcd@dataU(BANK0[4]), 

    memset@p	PTR unsigned char  size(1) Largest target is 4
		 -> bin2bcd@dataU(BANK0[4]), 

    sp__memset	PTR void  size(1) Largest target is 4
		 -> bin2bcd@dataU(BANK0[4]), 

    TMR1_InterruptHandler	PTR FTN()void  size(2) Largest target is 1
		 -> displayMux(), TMR1_DefaultInterruptHandler(), NULL(), 

    TMR1_SetInterruptHandler@InterruptHandler	PTR FTN()void  size(2) Largest target is 1
		 -> displayMux(), TMR1_DefaultInterruptHandler(), 

    TMR4_InterruptHandler	PTR FTN()void  size(2) Largest target is 1
		 -> dattaOut(), TMR4_DefaultInterruptHandler(), NULL(), 

    TMR4_SetInterruptHandler@InterruptHandler	PTR FTN()void  size(2) Largest target is 1
		 -> dattaOut(), TMR4_DefaultInterruptHandler(), 


Critical Paths under _main in COMMON

    None.

Critical Paths under _INTERRUPT_InterruptManager in COMMON

    _dattaOut->_bin2bcd
    _displayMux->_bin2bcd
    _bin2bcd->_memset

Critical Paths under _main in BANK0

    _main->___fltol
    ___fltol->___fladd
    ___flmul->___xxtofl
    ___fladd->___flmul
    _TMR4_Initialize->_TMR4_SetInterruptHandler
    _TMR1_Initialize->_TMR1_SetInterruptHandler
    _PIN_MANAGER_Initialize->_IOCBF0_SetInterruptHandler
    _PIN_MANAGER_Initialize->_IOCBF3_SetInterruptHandler
    _EUSART_Initialize->_EUSART_SetErrorHandler
    _EUSART_Initialize->_EUSART_SetFramingErrorHandler
    _EUSART_Initialize->_EUSART_SetOverrunErrorHandler

Critical Paths under _INTERRUPT_InterruptManager in BANK0

    _dattaOut->_bin2bcd
    _TMR1_ISR->_displayMux
    _displayMux->_bin2bcd

Critical Paths under _main in BANK1

    _main->___fltol
    ___fltol->___fladd

Critical Paths under _INTERRUPT_InterruptManager in BANK1

    None.

Critical Paths under _main in BANK2

    None.

Critical Paths under _INTERRUPT_InterruptManager in BANK2

    None.

Critical Paths under _main in BANK3

    None.

Critical Paths under _INTERRUPT_InterruptManager in BANK3

    None.

Critical Paths under _main in BANK4

    None.

Critical Paths under _INTERRUPT_InterruptManager in BANK4

    None.

Call Graph Tables:

 ---------------------------------------------------------------------------------
 (Depth) Function   	        Calls       Base Space   Used Autos Params    Refs
 ---------------------------------------------------------------------------------
 (0) _main                                                 0     0      0    8332
                  _ADC_GetConversion
                _EPWM1_LoadDutyValue
         _IOCBF0_SetInterruptHandler
         _IOCBF3_SetInterruptHandler
                  _SYSTEM_Initialize
           _TMR1_SetInterruptHandler
           _TMR4_SetInterruptHandler
                            ___fladd
                            ___flmul
                            ___fltol
                           ___xxtofl
 ---------------------------------------------------------------------------------
 (1) ___xxtofl                                            14    10      4     398
                                              7 BANK0     14    10      4
 ---------------------------------------------------------------------------------
 (1) ___fltol                                             10     6      4     427
                                             63 BANK0      2     2      0
                                              4 BANK1      8     4      4
                            ___fladd (ARG)
                            ___flmul (ARG)
                           ___xxtofl (ARG)
 ---------------------------------------------------------------------------------
 (1) ___flmul                                             26    18      8    2417
                                             21 BANK0     26    18      8
                          __Umul8_16
                           ___xxtofl (ARG)
 ---------------------------------------------------------------------------------
 (2) __Umul8_16                                            9     7      2     799
                                              7 BANK0      9     7      2
 ---------------------------------------------------------------------------------
 (1) ___fladd                                             20    12      8    3262
                                             47 BANK0     16     8      8
                                              0 BANK1      4     4      0
                            ___flmul (ARG)
                           ___xxtofl (ARG)
 ---------------------------------------------------------------------------------
 (1) _SYSTEM_Initialize                                    0     0      0     990
                     _ADC_Initialize
                   _EPWM1_Initialize
                  _EUSART_Initialize
              _OSCILLATOR_Initialize
             _PIN_MANAGER_Initialize
                    _TMR1_Initialize
                    _TMR2_Initialize
                    _TMR4_Initialize
                     _WDT_Initialize
 ---------------------------------------------------------------------------------
 (2) _WDT_Initialize                                       0     0      0       0
 ---------------------------------------------------------------------------------
 (2) _TMR4_Initialize                                      0     0      0     174
           _TMR4_SetInterruptHandler
 ---------------------------------------------------------------------------------
 (1) _TMR4_SetInterruptHandler                             2     0      2     174
                                              7 BANK0      2     0      2
 ---------------------------------------------------------------------------------
 (2) _TMR2_Initialize                                      0     0      0       0
 ---------------------------------------------------------------------------------
 (2) _TMR1_Initialize                                      0     0      0     174
           _TMR1_SetInterruptHandler
 ---------------------------------------------------------------------------------
 (1) _TMR1_SetInterruptHandler                             2     0      2     174
                                              7 BANK0      2     0      2
 ---------------------------------------------------------------------------------
 (2) _PIN_MANAGER_Initialize                               0     0      0     348
         _IOCBF0_SetInterruptHandler
         _IOCBF3_SetInterruptHandler
 ---------------------------------------------------------------------------------
 (3) _IOCBF3_SetInterruptHandler                           2     0      2     174
                                              7 BANK0      2     0      2
 ---------------------------------------------------------------------------------
 (3) _IOCBF0_SetInterruptHandler                           2     0      2     174
                                              7 BANK0      2     0      2
 ---------------------------------------------------------------------------------
 (2) _OSCILLATOR_Initialize                                0     0      0       0
 ---------------------------------------------------------------------------------
 (2) _EUSART_Initialize                                    0     0      0     294
             _EUSART_SetErrorHandler
      _EUSART_SetFramingErrorHandler
      _EUSART_SetOverrunErrorHandler
 ---------------------------------------------------------------------------------
 (3) _EUSART_SetOverrunErrorHandler                        2     0      2      98
                                              7 BANK0      2     0      2
 ---------------------------------------------------------------------------------
 (3) _EUSART_SetFramingErrorHandler                        2     0      2      98
                                              7 BANK0      2     0      2
 ---------------------------------------------------------------------------------
 (3) _EUSART_SetErrorHandler                               2     0      2      98
                                              7 BANK0      2     0      2
 ---------------------------------------------------------------------------------
 (2) _EPWM1_Initialize                                     0     0      0       0
 ---------------------------------------------------------------------------------
 (2) _ADC_Initialize                                       0     0      0       0
 ---------------------------------------------------------------------------------
 (1) _EPWM1_LoadDutyValue                                  4     2      2     120
                                              7 BANK0      4     2      2
 ---------------------------------------------------------------------------------
 (1) _ADC_GetConversion                                    4     2      2      22
                                              7 BANK0      4     2      2
 ---------------------------------------------------------------------------------
 Estimated maximum stack depth 3
 ---------------------------------------------------------------------------------
 (Depth) Function   	        Calls       Base Space   Used Autos Params    Refs
 ---------------------------------------------------------------------------------
 (4) _INTERRUPT_InterruptManager                           0     0      0    1978
                    _PIN_MANAGER_IOC
                           _TMR1_ISR
                           _TMR4_ISR
 ---------------------------------------------------------------------------------
 (5) _TMR4_ISR                                             0     0      0     891
                      _TMR4_CallBack
 ---------------------------------------------------------------------------------
 (6) _TMR4_CallBack                                        0     0      0     891
                                NULL *
       _TMR4_DefaultInterruptHandler *
                           _dattaOut *
 ---------------------------------------------------------------------------------
 (7) _dattaOut                                             0     0      0     891
                       _EUSART_Write
                            _bin2bcd
                         _uint2ASCII
 ---------------------------------------------------------------------------------
 (8) _uint2ASCII                                           1     1      0      22
                                              0 COMMON     1     1      0
 ---------------------------------------------------------------------------------
 (8) _EUSART_Write                                         1     1      0      22
                                              0 COMMON     1     1      0
 ---------------------------------------------------------------------------------
 (7) _TMR4_DefaultInterruptHandler                         0     0      0       0
 ---------------------------------------------------------------------------------
 (5) _TMR1_ISR                                             0     0      0    1087
                                NULL *
       _TMR1_DefaultInterruptHandler *
                    _TMR1_WriteTimer
                         _displayMux *
 ---------------------------------------------------------------------------------
 (6) _displayMux                                           2     2      0     847
                                              5 BANK0      2     2      0
                            _bin2bcd
 ---------------------------------------------------------------------------------
 (8) _bin2bcd                                             11     9      2     847
                                              7 COMMON     6     4      2
                                              0 BANK0      5     5      0
                             _memset
 ---------------------------------------------------------------------------------
 (9) _memset                                               7     3      4     281
                                              0 COMMON     7     3      4
 ---------------------------------------------------------------------------------
 (6) _TMR1_WriteTimer                                      2     0      2     240
                                              0 COMMON     2     0      2
 ---------------------------------------------------------------------------------
 (6) _TMR1_DefaultInterruptHandler                         0     0      0       0
 ---------------------------------------------------------------------------------
 (5) _PIN_MANAGER_IOC                                      0     0      0       0
                         _IOCBF0_ISR
                         _IOCBF3_ISR
 ---------------------------------------------------------------------------------
 (6) _IOCBF3_ISR                                           0     0      0       0
                                NULL *
     _IOCBF3_DefaultInterruptHandler *
                             _carOut *
 ---------------------------------------------------------------------------------
 (7) _carOut                                               0     0      0       0
 ---------------------------------------------------------------------------------
 (7) _IOCBF3_DefaultInterruptHandler                       0     0      0       0
 ---------------------------------------------------------------------------------
 (6) _IOCBF0_ISR                                           0     0      0       0
                                NULL *
     _IOCBF0_DefaultInterruptHandler *
                              _carIn *
 ---------------------------------------------------------------------------------
 (7) _carIn                                                0     0      0       0
 ---------------------------------------------------------------------------------
 (7) _IOCBF0_DefaultInterruptHandler                       0     0      0       0
 ---------------------------------------------------------------------------------
 (7) NULL(Fake)                                            0     0      0       0
 ---------------------------------------------------------------------------------
 Estimated maximum stack depth 9
 ---------------------------------------------------------------------------------

 Call Graph Graphs:

 _main (ROOT)
   _ADC_GetConversion
   _EPWM1_LoadDutyValue
   _IOCBF0_SetInterruptHandler
   _IOCBF3_SetInterruptHandler
   _SYSTEM_Initialize
     _ADC_Initialize
     _EPWM1_Initialize
     _EUSART_Initialize
       _EUSART_SetErrorHandler
       _EUSART_SetFramingErrorHandler
       _EUSART_SetOverrunErrorHandler
     _OSCILLATOR_Initialize
     _PIN_MANAGER_Initialize
       _IOCBF0_SetInterruptHandler
       _IOCBF3_SetInterruptHandler
     _TMR1_Initialize
       _TMR1_SetInterruptHandler
     _TMR2_Initialize
     _TMR4_Initialize
       _TMR4_SetInterruptHandler
     _WDT_Initialize
   _TMR1_SetInterruptHandler
   _TMR4_SetInterruptHandler
   ___fladd
     ___flmul (ARG)
       __Umul8_16
       ___xxtofl (ARG)
     ___xxtofl (ARG)
   ___flmul
   ___fltol
     ___fladd (ARG)
     ___flmul (ARG)
     ___xxtofl (ARG)
   ___xxtofl

 _INTERRUPT_InterruptManager (ROOT)
   _PIN_MANAGER_IOC
     _IOCBF0_ISR
       NULL(Fake) *
       _IOCBF0_DefaultInterruptHandler *
       _carIn *
     _IOCBF3_ISR
       NULL(Fake) *
       _IOCBF3_DefaultInterruptHandler *
       _carOut *
   _TMR1_ISR
     NULL(Fake) *
     _TMR1_DefaultInterruptHandler *
     _TMR1_WriteTimer *
     _displayMux *
       _bin2bcd
         _memset
   _TMR4_ISR
     _TMR4_CallBack
       NULL(Fake) *
       _TMR4_DefaultInterruptHandler *
       _dattaOut *
         _EUSART_Write
         _bin2bcd
         _uint2ASCII

 Address spaces:
Name               Size   Autos  Total    Cost      Usage
BIGRAM             170      0       0       0        0.0%
EEDATA             100      0       0       0        0.0%
NULL                 0      0       0       0        0.0%
CODE                 0      0       0       0        0.0%
BITCOMMON            E      0       0       1        0.0%
BITSFR0              0      0       0       1        0.0%
SFR0                 0      0       0       1        0.0%
COMMON               E      D       E       2      100.0%
BITSFR1              0      0       0       2        0.0%
SFR1                 0      0       0       2        0.0%
BITSFR2              0      0       0       3        0.0%
SFR2                 0      0       0       3        0.0%
STACK                0      0       0       3        0.0%
BITSFR3              0      0       0       4        0.0%
SFR3                 0      0       0       4        0.0%
ABS                  0      0      76       4        0.0%
BITBANK0            50      0       0       5        0.0%
BITSFR4              0      0       0       5        0.0%
SFR4                 0      0       0       5        0.0%
BANK0               50     41      48       6       90.0%
BITSFR5              0      0       0       6        0.0%
SFR5                 0      0       0       6        0.0%
BITBANK1            50      0       0       7        0.0%
BITSFR6              0      0       0       7        0.0%
SFR6                 0      0       0       7        0.0%
BANK1               50      C      20       8       40.0%
BITSFR7              0      0       0       8        0.0%
SFR7                 0      0       0       8        0.0%
BITBANK2            50      0       0       9        0.0%
BITSFR8              0      0       0       9        0.0%
SFR8                 0      0       0       9        0.0%
BANK2               50      0       0      10        0.0%
BITSFR9              0      0       0      10        0.0%
SFR9                 0      0       0      10        0.0%
BITBANK3            50      0       0      11        0.0%
BITSFR10             0      0       0      11        0.0%
SFR10                0      0       0      11        0.0%
BANK3               50      0       0      12        0.0%
BITSFR11             0      0       0      12        0.0%
SFR11                0      0       0      12        0.0%
BITBANK4            30      0       0      13        0.0%
BITSFR12             0      0       0      13        0.0%
SFR12                0      0       0      13        0.0%
BANK4               30      0       0      14        0.0%
BITSFR13             0      0       0      14        0.0%
SFR13                0      0       0      14        0.0%
BITSFR14             0      0       0      15        0.0%
SFR14                0      0       0      15        0.0%
DATA                 0      0      76      15        0.0%
BITSFR15             0      0       0      16        0.0%
SFR15                0      0       0      16        0.0%
BITSFR16             0      0       0      17        0.0%
SFR16                0      0       0      17        0.0%
BITSFR17             0      0       0      18        0.0%
SFR17                0      0       0      18        0.0%
BITSFR18             0      0       0      19        0.0%
SFR18                0      0       0      19        0.0%
BITSFR19             0      0       0      20        0.0%
SFR19                0      0       0      20        0.0%
BITSFR20             0      0       0      21        0.0%
SFR20                0      0       0      21        0.0%
BITSFR21             0      0       0      22        0.0%
SFR21                0      0       0      22        0.0%
BITSFR22             0      0       0      23        0.0%
SFR22                0      0       0      23        0.0%
BITSFR23             0      0       0      24        0.0%
SFR23                0      0       0      24        0.0%
BITSFR24             0      0       0      25        0.0%
SFR24                0      0       0      25        0.0%
BITSFR25             0      0       0      26        0.0%
SFR25                0      0       0      26        0.0%
BITSFR26             0      0       0      27        0.0%
SFR26                0      0       0      27        0.0%
BITSFR27             0      0       0      28        0.0%
SFR27                0      0       0      28        0.0%
BITSFR28             0      0       0      29        0.0%
SFR28                0      0       0      29        0.0%
BITSFR29             0      0       0      30        0.0%
SFR29                0      0       0      30        0.0%
BITSFR30             0      0       0      31        0.0%
SFR30                0      0       0      31        0.0%
BITSFR31             0      0       0      32        0.0%
SFR31                0      0       0      32        0.0%


Microchip Technology PIC Macro Assembler V2.45 build 20230818022343 
Symbol Table                                                                                   Fri Dec 22 19:12:35 2023

             ??_IOCBF3_DefaultInterruptHandler 0070                ?_IOCBF3_DefaultInterruptHandler 0070  
                                           l32 0E4B                                             l35 0E3E  
                                           l29 0FBD                            __Umul8_16@word_mpld 002D  
                                          l113 07D7                                            l125 0E7F  
                                          l135 0E88                                            l223 0F6B  
                                          l170 0FD0                                            l155 0E53  
                                          l331 07FC                                            l173 0FDB  
                                          l253 0E91                                            l424 0E9A  
                                          l193 0EBF                                            l370 0E6D  
                                          l196 0FA1                                            l373 0E76  
                                          l269 0E5B                                            l376 0E64  
                                          l478 0646                                            l399 0F26  
                                          l872 0711                                            l865 0727  
                                          l875 0727                                            l972 00B6  
                                          l976 0152                                            l993 01EC  
                                          l985 02A8                                            l978 012C  
                                          l997 0213                                            _PR2 001B  
                                          _PR4 0416                                _timer1ReloadVal 0063  
                                          _cat 007D                                            _lum 00A2  
               ?_EUSART_SetFramingErrorHandler 0027                                _TMR2_Initialize 0E54  
                                          wreg 0009                                   ___flmul@aexp 0047  
                                 ___flmul@bexp 0048                                   ___flmul@sign 0042  
                                 ___flmul@temp 004D                                   ___flmul@prod 0049  
                                 ___fltol@exp1 0060                                           l1003 0239  
                                         l1014 029D                                           l1006 0276  
                                         l1015 02A8                                           l1112 0507  
                                         l1114 058E                                           l2101 0EB5  
                                         l2021 0E89                                           l1125 055A  
                                         l1126 0566                                           l1118 0540  
                                         l2103 0EB6                                           l2023 0E65  
                                         l2111 0F13                                           l1080 04D7  
                                         l2105 0EB8                                           l2025 0E6E  
                                         l2017 0E77                                           l2121 0F23  
                                         l2113 0F16                                           l1074 0463  
                                         l2107 0EBA                                           l2027 0E5C  
                                         l2019 0E80                                           l2131 0F53  
                                         l2123 0E54                                           l2115 0F17  
                                         l1068 04E3                                           l2109 0EBD  
                                         l2061 07B1                                           l2141 0F5E  
                                         l2133 0F55                                           l2125 0E57  
                                         l2029 0E92                                           l2117 0F19  
                                         l2221 0FE7                                           l2151 07E2  
                                         l2071 07C2                                           l2063 07B3  
                                         l2055 07AA                                           l2143 0F60  
                                         l2135 0F57                                           l2127 0E58  
                                         l2119 0F1B                                           l2231 0FA2  
                                         l2223 0FEB                                           l1087 0FEF  
                                         l2153 07EA                                           l2081 07CE  
                                         l2073 07C3                                           l2065 07BA  
                                         l2057 07AC                                           l2145 0F68  
                                         l2137 0F59                                           l2129 0E59  
                                         l1089 0FFF                                           l2225 0FF6  
                                         l2217 0FDE                                           l2155 07F2  
                                         l2147 07D8                                           l2083 07D6  
                                         l2075 07C4                                           l2067 07BF  
                                         l2059 07AE                                           l2139 0F5A  
                                         l2091 0E3B                                           l2227 0FFB  
                                         l2219 0FE0                                           l2261 0FD4  
                                         l2253 0FC0                                           l2093 0E4C  
                                         l2157 07FA                                           l2149 07E1  
                                         l2085 0E45                                           l2077 07C5  
                                         l2069 07C1                                           l2501 02AF  
                                         l2255 0FCC                                           l2095 0E4F  
                                         l2087 0E48                                           l2079 07C6  
                                         l2511 02C6                                           l2503 02B3  
                                         l2257 0FCD                                           l2265 0F86  
                                         l2097 0E50                                           l2089 0E49  
                                         l2601 0460                                           l2521 02DB  
                                         l2513 02C8                                           l2505 02B4  
                                         l2259 0FCE                                           l2099 0EB2  
                                         l2611 0479                                           l2531 02F0  
                                         l2523 02DC                                           l2515 02D0  
                                         l2507 02B9                                           l2621 04BA  
                                         l2613 0491                                           l2605 0468  
                                         l2541 030B                                           l2533 02F8  
                                         l2525 02E1                                           l2517 02D5  
                                         l2509 02BE                                           l2631 04D5  
                                         l2623 04C3                                           l2607 046D  
                                         l2615 0495                                           l2551 0360  
                                         l2543 0316                                           l2535 02FD  
                                         l2527 02E6                                           l2519 02D7  
                                         l2801 0076                                           l2633 04DB  
                                         l2625 04C5                                           l2617 04A2  
                                         l2609 0475                                           l2561 0393  
                                         l2553 036D                                           l2545 0323  
                                         l2537 0302                                           l2529 02EE  
                                         l2641 04EF                                           l2811 008E  
                                         l2803 007F                                           l2627 04D0  
                                         l2619 04AC                                           l2571 03D0  
                                         l2563 039E                                           l2555 037A  
                                         l2547 033B                                           l2651 051B  
                                         l2643 04FF                                           l2901 0184  
                                         l2821 00A9                                           l2813 0093  
                                         l2805 0083                                           l2629 04D4  
                                         l2581 0420                                           l2573 03DB  
                                         l2565 03A5                                           l2557 0381  
                                         l2549 0348                                           l2661 0547  
                                         l2653 0526                                           l2645 050F  
                                         l2637 04E6                                           l2911 01D5  
                                         l2903 018D                                           l2831 00C7  
                                         l2823 00AB                                           l2815 0095  
                                         l2807 0089                                           l2591 043F  
                                         l2583 042C                                           l2575 03ED  
                                         l2567 03B7                                           l2559 038C  
                                         l2671 057C                                           l2663 0550  
                                         l2655 052D                                           l2639 04EB  
                                         l2913 01DA                                           l2905 0193  
                                         l2841 00D4                                           l2833 00C9  
                                         l2817 009B                                           l2825 00AD  
                                         l2809 008A                                           l2585 0433  
                                         l2593 0443                                           l2577 0402  
                                         l2569 03BE                                           l2497 02A9  
                                         l2761 06E1                                           l2753 06C1  
                                         l2673 0581                                           l2665 0554  
                                         l2657 0531                                           l2649 0518  
                                         l2931 021B                                           l2923 0205  
                                         l2907 01AA                                           l2915 01E4  
                                         l2851 00E5                                           l2843 00D8  
                                         l2835 00CB                                           l2827 00BD  
                                         l2819 00A0                                           l2595 0447  
                                         l2587 0437                                           l2579 0419  
                                         l2499 02AD                                           l2763 06E5  
                                         l2771 06FF                                           l2755 06D4  
                                         l2747 06AC                                           l2675 0585  
                                         l2667 055E                                           l2659 0539  
                                         l2941 022B                                           l2933 021D  
                                         l2925 020C                                           l2917 01F5  
                                         l2909 01CE                                           l2853 00E8  
                                         l2845 00DB                                           l2837 00CD  
                                         l2829 00C1                                           l2861 00F6  
                                         l2597 0448                                           l2589 0438  
                                         l2781 071B                                           l2757 06D6  
                                         l2749 06B7                                           l2677 0586  
                                         l2669 0568                                           l2951 0245  
                                         l2943 022F                                           l2935 0222  
                                         l2927 0211                                           l2919 01FB  
                                         l2871 0136                                           l2863 00F8  
                                         l2855 00EC                                           l2847 00DE  
                                         l2839 00D1                                           l2791 005E  
                                         l2783 004E                                           l2599 044C  
                                         l2759 06DE                                           l2961 0281  
                                         l2953 024E                                           l2945 0235  
                                         l2929 0218                                           l2937 0224  
                                         l2881 0156                                           l2873 013B  
                                         l2865 0112                                           l2857 00EF  
                                         l2849 00E2                                           l2793 0064  
                                         l2785 0053                                           l2777 0706  
                                         l2769 06ED                                           l2971 0298  
                                         l2963 028A                                           l2955 0252  
                                         l2891 0172                                           l2939 0229  
                                         l2883 015B                                           l2875 013D  
                                         l2867 0130                                           l2859 00F2  
                                         l2795 0069                                           l2787 0057  
                                         l2779 0716                                           l2973 02A1  
                                         l2965 0290                                           l2957 0270  
                                         l2949 023F                                           l2893 0177  
                                         l2877 0146                                           l2869 0134  
                                         l2797 0072                                           l2789 005C  
                                         l2981 0645                                           l2975 02A6  
                                         l2967 0291                                           l2959 027C  
                                         l2895 017B                                           l2887 0165  
                                         l2879 014B                                           l2799 0074  
                                         l2969 0295                                           l2897 017D  
                                         l2889 016E                                           l2977 0621  
                                         l2899 0182                                           l2979 0644  
                                         u2100 02E6                                           u2101 02E5  
                                         u2110 02FD                                           u2111 02FC  
                                         u3000 0260                                           u2120 0302  
                                         u2121 0301                                           u3010 0270  
                                         u2210 0447                                           u2050 02B3  
                                         u3011 026F                                           u2211 0446  
                                         u2051 02B2                                           u1500 0FD4  
                                         u3020 027C                                           u2300 04D4  
                                         u2220 044C                                           u2060 02B9  
                                         u1501 0FD3                                           u3021 027B  
                                         u3005 025C                                           u2301 04D3  
                                         u2221 044B                                           u2205 0439  
                                         u2061 02B8                                           _LATA 010C  
                                         u3030 0281                                           u2230 0460  
                                         u2150 03F8                                           u2070 02BE  
                                         u2310 04EB                                           _LATB 010D  
                                         u3031 0280                                           u2231 045F  
                                         u2135 037B                                           u2071 02BD  
                                         u2311 04EA                                           u3040 0290  
                                         u1440 0FEB                                           u2240 0467  
                                         u2160 040F                                           u2080 02DB  
                                         u2400 055A                                           u2320 04EF  
                                         u3041 028F                                           u1441 0FEA  
                                         u2241 0466                                           u2145 03A6  
                                         u2081 02DA                                           u2401 0559  
                                         u2321 04EE                                           u3050 0295  
                                         u2250 046D                                           u2090 02E1  
                                         u2410 055E                                           u2330 050F  
                                         u1515 0F97                                           u3051 0294  
                                         u2251 046C                                           u2155 03F4  
                                         u2091 02E0                                           u2411 055D  
                                         u2331 050E                                           u3060 02A6  
                                         u1460 0FFB                                           u2260 0479  
                                         u2420 0572                                           u3061 02A5  
                                         u1461 0FFA                                           u2261 0478  
                                         u2165 040B                                           u2270 0487  
                                         u2190 0437                                           u2430 0581  
                                         u2350 052C                                           u1455 0FF0  
                                         u2191 0436                                           u2175 041A  
                                         u2431 0580                                           u2351 052B  
                                         u2280 04A2                                           u2600 0705  
                                         u2440 0585                                           u2281 04A1  
                                         u2185 042D                                           u2601 0704  
                                         u2441 0584                                           u2425 056E  
                                         u2345 0520                                           u2290 04BA  
                                         u2370 0546                                           u2291 04B9  
                                         u2275 0483                                           u2371 0545  
                                         u2700 00A0                                           u2620 0716  
                                         u2540 06B7                                           u2701 009F  
                                         u2285 049E                                           u2621 0715  
                                         u2541 06B6                                           u2365 053A  
                                         u2710 00BD                                           u2630 071B  
                                         u2550 06CF                                           u2390 0554  
                                         u2711 00BC                                           u2295 04B6  
                                         u2631 071A                                           u2615 0707  
                                         u2391 0553                                           u2800 0156  
                                         u2720 00C1                                           u2640 005C  
                                         u2560 06E5                                           u2801 0155  
                                         u2721 00C0                                           u2641 005B  
                                         u2561 06E4                                           u2385 054A  
                                         u2810 015B                                           u2730 0112  
                                         u2650 0064                                           u2570 06EC  
                                         u2811 015A                                           u2731 0111  
                                         u2651 0063                                           u2571 06EB  
                                         u2555 06CB                                           u2820 0172  
                                         u2740 011C                                           u2660 0069  
                                         u2821 0171                                           u2741 011A  
                                         u2661 0068                                           u2910 0211  
                                         u2830 0177                                           u2750 011D  
                                         u2670 0089                                           u2590 06FE  
                                         u2911 0210                                           u2831 0176  
                                         u2735 010E                                           u2671 0088  
                                         u2591 06FD                                           u2920 0218  
                                         u2840 0182                                           u2760 0130  
                                         u2680 0093                                           u2921 0217  
                                         u2905 0206                                           u2841 0181  
                                         u2761 012F                                           u2681 0092  
                                         u2585 06EE                                           u2930 0222  
                                         u2770 013B                                           u2690 009B  
                                         u2931 0221                                           u2771 013A  
                                         u2691 009A                                           u2940 0229  
                                         u2860 01AA                                           u2941 0228  
                                         u2861 01A9                                           u2950 022F  
                                         u2870 01DA                                           u2790 0152  
                                         u2951 022E                                           u2871 01D9  
                                         u2863 01A6                                           u2855 0187  
                                         u2791 0151                                           u2960 0235  
                                         u2880 01F5                                           u2961 0234  
                                         u2881 01F4                                           u2785 0140  
                                         u2970 023E                                           u2890 01FB  
                                         u2971 023D                                           u2891 01FA  
                                         u2980 0245                                           u2981 0244  
                                         u2990 0252                                           i1l63 0032  
                                         u2991 0251                                           i1l64 0032  
                                         i1l56 0012                                           i1l59 0024  
                                         _TMR2 001A                                           _TMR4 0415  
                                         _WPUA 020C                                           _WPUB 020D  
                                         _main 0621                                           fsr0h 0005  
                                         fsr1h 0007                                           indf0 0000  
                                         fsr0l 0004                                           indf1 0001  
                                         fsr1l 0006                                           btemp 007E  
                                         start 0034                          ??_EPWM1_LoadDutyValue 0029  
                   ??_TMR1_SetInterruptHandler 0029                     ??_TMR4_SetInterruptHandler 0029  
                                ?_EUSART_Write 0070                  __end_of_OSCILLATOR_Initialize 0E4C  
                                ___fltol@sign1 005F                                __end_of___fladd 02A9  
                                        ?_main 0070                                __end_of___flmul 04E4  
                              __end_of___fltol 0728                                          _T1CON 0018  
                                        _T2CON 001C                                __end_of_bin2bcd 0621  
                                        _T4CON 0417                                          i1l122 0ECE  
                                        i1l132 0EDD                                          i1l118 0EEE  
                                        i1l128 0E32                                          i1l138 0E33  
                                        i1l250 0F52                                          i1l500 0F12  
                                        i1l237 0EFF                                          i1l421 0EB1  
                                        i1l510 0E3A                                          i1l520 05EC  
                                        i1l256 0E34                                          i1l521 0620  
                                        i1l417 0E44                                          i1l507 0F3C  
                                        i1l355 0E9C                                          i1l427 0E35  
                                        i1l517 05B4                                          i1l518 05C7  
                                        i1l358 0EA4                                          i1l519 05D9  
                                        i1l490 0778                                          i1l493 07A9  
                                        _RCREG 0199                                          _RCSTA 019D  
                                        _TMR1H 0017                                          _TMR1L 0016  
                                        _PORTA 000C                                          _TRISA 008C  
                                        _TRISB 008D                                          _TXREG 019A  
                                        _TXSTA 019E                                _TMR4_Initialize 0F13  
                             __end_of_TMR1_ISR 0F53                               __end_of_TMR4_ISR 0E45  
                                        _carIn 0F00                        __end_of_PIN_MANAGER_IOC 0EEF  
                               _WDT_Initialize 0E3B                        __end_of_TMR1_Initialize 0F6C  
                                        pclath 000A                                          status 0003  
                                        wtemp0 007E                                _TMR1_WriteTimer 0EEF  
                              __initialization 0036                                   __end_of_main 06AC  
                               ??_EUSART_Write 0070                        __end_of_TMR2_Initialize 0E5C  
                  ?_INTERRUPT_InterruptManager 0070                                         ??_main 0061  
                      _IOCBF0_InterruptHandler 00B0                         __end_of_WDT_Initialize 0E3F  
                                       ?_carIn 0070              _EUSART_DefaultFramingErrorHandler 0000  
                                       _ADCON0 009D                                         _ADCON1 009E  
                   _EUSART_OverrunErrorHandler 00A8                                         _ADRESH 009C  
                                       _ADRESL 009B                                         _CCPR1H 0292  
                                       _CCPR1L 0291                                         _ANSELA 018C  
                                       _ANSELB 018D                                         _BORCON 0116  
                                       _T1GCON 0019                                         i1l2001 05BD  
                      TMR1_WriteTimer@timerVal 0070                                         i1l2003 05D0  
                                       i1l1133 0F85                                         i1l2005 05E2  
                                       i1l2013 0E38                                         i1l2007 0607  
                                       i1l2031 0779                                         i1l2009 060D  
                                       i1l2201 0752                                         i1l2041 07A5  
                                       i1l2033 0786                                         i1l2043 0F00  
                                       i1l2051 0F31                                         i1l2203 075D  
                                       i1l2035 078A                                         i1l2045 0F07  
                                       i1l2053 0F38                                         i1l3013 0768  
                                       i1l2037 0793                                         i1l2047 0F0E  
                                       i1l2207 0760                                         i1l2039 079C  
                                       i1l2161 0EC7                                         i1l2049 0F27  
                                       i1l2233 0EDE                                         i1l2209 0773  
                                       i1l2241 0E3F                                         i1l2163 0ECC  
                                       i1l2235 0EE3                                         i1l2171 0EEF  
                                       i1l2251 0F4D                                         i1l2243 0E41  
                                       i1l2165 0ECF                                         i1l2237 0EE6  
                                       i1l2173 0EF4                                         i1l2181 0EFB  
                                       i1l2245 0F3D                                         i1l2159 0EC0  
                                       i1l2167 0ED6                                         i1l2239 0EEB  
                                       i1l2183 0EFD                                         i1l2175 0EF5  
                                       i1l2191 0736                                         i1l2247 0F3F  
                                       i1l2169 0EDB                                         i1l2177 0EF7  
                                       i1l2193 0738                                         i1l2249 0F46  
                                       i1l2185 0EA5                                         i1l2179 0EF9  
                                       i1l2195 0743                                         i1l2187 0EAC  
                                       i1l2197 0745                                         i1l2189 0728  
                                       i1l2199 0750                                         u130_20 0EA1  
                                       u130_21 0EA0                                         u131_20 05AB  
                                       u131_21 05AA                                         i1l2681 0006  
                                       i1l2691 0020                                         i1l2683 000A  
                                       i1l1981 0F79                                         i1l2693 0029  
                                       i1l2685 000E                                         i1l1975 0F6D  
                                       i1l1991 05A1                                         i1l1983 0E9C  
                                       i1l2695 002E                                         i1l2687 0016  
                                       u140_20 0EC7                                         u132_20 05BD  
                                       u140_21 0EC6                                         i1l1977 0F70  
                                       u132_21 05BC                                         i1l1985 0EA1  
                                       i1l2689 001B                                         i1l1979 0F75  
                                       i1l1987 058F                                         i1l1997 05A2  
                                       i1l1989 059A                                         i1l1999 05AB  
                                       u141_20 0ED6                                         u133_20 05D0  
                                       u141_21 0ED5                                         u133_21 05CF  
                                       u142_20 0EF4                                         u134_20 05E2  
                                       u142_21 0EF3                                         u134_21 05E1  
                                       u135_20 05F9                                         u143_20 0EAC  
                                       u143_21 0EAB                                         u135_25 05F5  
                                       u136_20 060D                                         u136_21 060C  
                                       u129_20 0F85                                         u137_20 061A  
                                       u129_21 0F84                                         u137_25 0616  
                                       u138_20 0F07                                         u250_20 0029  
                                       u138_21 0F06                                         u250_21 0028  
                                       u139_20 0F31                                         u147_20 0EE3  
                                       u251_20 002E                                         u139_21 0F30  
                                       u147_21 0EE2                                         u251_21 002D  
                                       u148_20 0EEB                                         u148_21 0EEA  
                                       u149_20 0F4D                                         u245_20 000A  
                                       u149_21 0F4C                                         u245_21 0009  
                                       u246_20 000E                                         u246_21 000D  
                                       u247_20 0016                                         u247_21 0015  
                                       u248_20 001B                                         u248_21 001A  
                                       u249_20 0020                                         u249_21 001F  
                                       _OSCCON 0099                                         _SPBRGH 019C  
                                       _SPBRGL 019B                                         _WDTCON 0097  
                             __end_of___xxtofl 058F                               __end_of_dattaOut 07AA  
         __end_of_TMR1_DefaultInterruptHandler 0E35                   _TMR1_DefaultInterruptHandler 0E34  
                                 _CCPTMRS0bits 029E                                      ??___fladd 0057  
                                       _carOut 0F27                                      ??___flmul 003D  
                                    ??___fltol 00BA                                      ??_bin2bcd 0079  
                                       _bright 00A0                                         _memset 0F6C  
                      __end_of_TMR4_Initialize 0F27                                         _segVal 07FD  
         __end_of_TMR4_DefaultInterruptHandler 0E36                   _TMR4_DefaultInterruptHandler 0E35  
                                 __pdataCOMMON 007D                                ?_WDT_Initialize 0070  
                     ADC_GetConversion@channel 002A       TMR4_SetInterruptHandler@InterruptHandler 0027  
     TMR1_SetInterruptHandler@InterruptHandler 0027     IOCBF3_SetInterruptHandler@InterruptHandler 0027  
   IOCBF0_SetInterruptHandler@InterruptHandler 0027                               ?_PIN_MANAGER_IOC 0070  
                      __end_of_TMR1_WriteTimer 0F00                                   ??_IOCBF0_ISR 0070  
                                 ??_IOCBF3_ISR 0070                               ?_TMR1_Initialize 0070  
                                 ___xxtofl@arg 0031                                   ___xxtofl@exp 0030  
                            _SYSTEM_Initialize 0FA2                                   ___xxtofl@val 0027  
                      __end_of__initialization 004A                             ?_SYSTEM_Initialize 0070  
                                   ___fltol@f1 00B6                              ?_EPWM1_Initialize 0070  
                               __pcstackCOMMON 0070                          __end_of_TMR4_CallBack 0EB2  
                                 __pidataBANK0 0002                            ??_SYSTEM_Initialize 0029  
                                __end_of_carIn 0F13                                      ?_TMR1_ISR 0070  
                ?_TMR1_DefaultInterruptHandler 0070                                      ?_TMR4_ISR 0070  
                           ??_EPWM1_Initialize 0027         __end_of_IOCBF0_DefaultInterruptHandler 0E33  
               _IOCBF0_DefaultInterruptHandler 0E32                               ?_TMR2_Initialize 0070  
                           __end_of_IOCBF0_ISR 0ECF                             __end_of_IOCBF3_ISR 0EDE  
                                 bin2bcd@dataU 0021                                 _OPTION_REGbits 0095  
                ?_TMR4_DefaultInterruptHandler 0070                ??_EUSART_SetOverrunErrorHandler 0029  
       __end_of_IOCBF3_DefaultInterruptHandler 0E34                 _IOCBF3_DefaultInterruptHandler 0E33  
                                      ??_carIn 0070                      __end_of_SYSTEM_Initialize 0FBE  
                                   __pbssBANK0 0061                                     __pbssBANK1 00BE  
                         __end_of_EUSART_Write 0EA5                          _TMR4_InterruptHandler 00A4  
                            __end_of__Umul8_16 1000                                     __pmaintext 0621  
                                      ?_carOut 0070                                     ??_TMR1_ISR 007D  
                                   ??_TMR4_ISR 007D                                     __pintentry 0004  
                                      _CCP1CON 0293                                        _ECCP1AS 0295  
                                      _BAUDCON 019F                                        ?_memset 0070  
                             ?_TMR4_Initialize 0070                                        _APFCON0 011D  
                                      _APFCON1 011E                                      ?___xxtofl 0027  
                                    ?_dattaOut 0070                                        _OSCTUNE 0098  
                                      _PWM1CON 0294                                     _displayMux 0728  
                     ??_EUSART_SetErrorHandler 0029                               ?_TMR1_WriteTimer 0070  
                  __end_of_EPWM1_LoadDutyValue 0FA2                           _ADC_InterruptHandler 00BE  
                                      ___fladd 004E                                        ___flmul 02A9  
                                      ___fltol 06AC                                        _bin2bcd 058F  
                                      __ptext1 04E4                                        __ptext2 06AC  
                                      __ptext3 02A9                                        __ptext4 0FDC  
                                      __ptext5 004E                                        __ptext6 0FA2  
                                      __ptext7 0E3B                                        __ptext8 0F13  
                                      __ptext9 0E92                 ??_TMR1_DefaultInterruptHandler 0070  
                                    _T1CONbits 0018                          _OSCILLATOR_Initialize 0E45  
                                    _T2CONbits 001C                                     ??___xxtofl 002B  
                                    _T4CONbits 0417                       ??_PIN_MANAGER_Initialize 0029  
                    ?_TMR1_SetInterruptHandler 0027                                      _IOCBFbits 0396  
                    ?_TMR4_SetInterruptHandler 0027                                     ??_dattaOut 007D  
                                    _IOCBNbits 0395                                      _IOCBPbits 0394  
                         end_of_initialization 004A                 ??_TMR4_DefaultInterruptHandler 0070  
        __end_of_EUSART_SetOverrunErrorHandler 0E77                  _EUSART_SetOverrunErrorHandler 0E6E  
                                      memset@c 0070                                        memset@n 0072  
                                      memset@p 0076                              _EUSART_Initialize 07D8  
                                   _uint2ASCII 0E37                             ?_EUSART_Initialize 0070  
                                    _RCSTAbits 019D                            ??_EUSART_Initialize 0029  
                             ??_WDT_Initialize 0027                                    ___fladd@grs 00B5  
                                ___xxtofl@sign 002F                   ??_IOCBF0_SetInterruptHandler 0029  
                                  ?_displayMux 0070                   ??_IOCBF3_SetInterruptHandler 0029  
                                  ___flmul@grs 0043                      __end_of_EUSART_Initialize 07FD  
                                    _TXSTAbits 019E                     _EUSART_DefaultErrorHandler 0000  
                               __end_of_carOut 0F3D                                  __pidataCOMMON 0E36  
                                 _EUSART_Write 0E9B                                 _ADC_Initialize 0E4C  
                       ?_OSCILLATOR_Initialize 0070                                 __end_of_memset 0F86  
                               __end_of_segVal 0807                            start_initialization 0036  
                 EPWM1_LoadDutyValue@dutyValue 0027                                  bin2bcd@binVal 0077  
                                  ?_uint2ASCII 0070                 ?_EUSART_SetOverrunErrorHandler 0027  
                   _EUSART_FramingErrorHandler 00AA                                       ??_carOut 0070  
                       _EUSART_SetErrorHandler 0E5C                         __end_of_ADC_Initialize 0E54  
                                    __Umul8_16 0FDC                                    __pdataBANK0 0066  
                                     ??_memset 0074                                     memset@dest 0075  
                                    ___fladd@a 0053                                      ___fladd@b 004F  
                                    ___flmul@a 0039                                      ___flmul@b 0035  
                                    ___latbits 0001                                  __pcstackBANK0 0020  
                                __pcstackBANK1 00B2                                      __pnvBANK1 00A0  
                      _IOCBF3_InterruptHandler 00AE                         _PIN_MANAGER_Initialize 07AA  
                                uint2ASCII@num 0070               __end_of_TMR1_SetInterruptHandler 0E92  
                                     ?___fladd 004F               __end_of_TMR4_SetInterruptHandler 0E9B  
                                     ?___flmul 0035                                       ?___fltol 00B6  
                                     ?_bin2bcd 0077                                     ?__Umul8_16 0027  
                              ?_ADC_Initialize 0070                   ??_INTERRUPT_InterruptManager 007D  
           __end_of_IOCBF0_SetInterruptHandler 0E80                     _IOCBF0_SetInterruptHandler 0E77  
           __end_of_IOCBF3_SetInterruptHandler 0E89                     _IOCBF3_SetInterruptHandler 0E80  
                                    _park_uint 0066         EUSART_SetErrorHandler@interruptHandler 0027  
                                     _PIE1bits 0091                                       _PIE3bits 0093  
                            _eusartRxLastError 0065                                       _PIR1bits 0011  
              ??_EUSART_SetFramingErrorHandler 0029                                       _PIR3bits 0013  
            _EUSART_DefaultOverrunErrorHandler 0000                                       _TMR1_ISR 0F3D  
                                     _TMR4_ISR 0E3F                                  _TMR4_CallBack 0EA5  
                                     _PSTR1CON 0296                              ??_PIN_MANAGER_IOC 0070  
                            ??_TMR1_Initialize 0029                                     _ADCON0bits 009D  
                             _EPWM1_Initialize 0EB2                                   ??_displayMux 0025  
                            ??_TMR2_Initialize 0027                              _ADC_GetConversion 0FBE  
                               ?_TMR4_CallBack 0070                        ??_OSCILLATOR_Initialize 0027  
                                  ??__Umul8_16 0029                            _EUSART_ErrorHandler 00A6  
                           ?_ADC_GetConversion 0027                             __end_of_displayMux 0779  
                     _TMR1_SetInterruptHandler 0E89                       _TMR4_SetInterruptHandler 0E92  
                        _TMR1_InterruptHandler 00AC                            ??_ADC_GetConversion 0029  
                                     ___xxtofl 04E4                                       bin2bcd@i 0020  
                                     _dattaOut 0779                                       __ptext10 0E54  
                                     __ptext11 0F53                                       __ptext20 0E5C  
                                     __ptext12 0E89                                       __ptext21 0EB2  
                                     __ptext13 07AA                                     _T1GCONbits 0019  
                                     __ptext30 0E37                                       __ptext22 0E4C  
                                     __ptext14 0E80                                       __ptext31 0E9B  
                                     __ptext23 0F86                                       __ptext15 0E77  
                                     __ptext40 0E33                                       __ptext32 0F3D  
                                     __ptext24 0FBE                                       __ptext16 0E45  
                                     __ptext41 0F27                                       __ptext33 0E34  
                                     __ptext17 07D8                                       __ptext42 0EC0  
                                     __ptext34 0728                                       __ptext26 0E3F  
                                     __ptext18 0E6E                                       __ptext43 0E32  
                                     __ptext35 058F                                       __ptext27 0EA5  
                                     __ptext19 0E65                                       __ptext44 0F00  
                                     __ptext36 0F6C                                       __ptext28 0E35  
                                     __ptext37 0EEF                                       __ptext29 0779  
                                     __ptext38 0EDE                                       __ptext39 0ECF  
                                   _IOCBF0_ISR 0EC0                                     _IOCBF3_ISR 0ECF  
                            ??_TMR4_Initialize 0029                                       _park_bcd 0061  
                    __end_of_ADC_GetConversion 0FDC                                   ??_uint2ASCII 0070  
                      ?_EUSART_SetErrorHandler 0027  EUSART_SetOverrunErrorHandler@interruptHandler 0027  
                                     int$flags 007E             __end_of_INTERRUPT_InterruptManager 0034  
                   _INTERRUPT_InterruptManager 0004          __end_of_EUSART_SetFramingErrorHandler 0E6E  
                _EUSART_SetFramingErrorHandler 0E65                              ??_TMR1_WriteTimer 0072  
                                   _INTCONbits 000B                             __end_of_uint2ASCII 0E3B  
                                     intlevel1 0000                        ?_PIN_MANAGER_Initialize 0070  
               __end_of_EUSART_SetErrorHandler 0E65                               ??_ADC_Initialize 0027  
                              ??_TMR4_CallBack 007D  EUSART_SetFramingErrorHandler@interruptHandler 0027  
                                __pstringtext1 07FD                         __Umul8_16@multiplicand 0027  
                  ?_IOCBF0_SetInterruptHandler 0027                            _EPWM1_LoadDutyValue 0F86  
                  ?_IOCBF3_SetInterruptHandler 0027                                  ___fladd@signs 00B2  
                                  ?_IOCBF0_ISR 0070                             EUSART_Write@txData 0070  
                                  ?_IOCBF3_ISR 0070                 __end_of_PIN_MANAGER_Initialize 07D8  
             ??_IOCBF0_DefaultInterruptHandler 0070                ?_IOCBF0_DefaultInterruptHandler 0070  
                                 ___fladd@aexp 00B3                                   ___fladd@bexp 00B4  
                              _PIN_MANAGER_IOC 0EDE                           __Umul8_16@multiplier 002F  
                              _TMR1_Initialize 0F53                       __end_of_EPWM1_Initialize 0EC0  
                         ?_EPWM1_LoadDutyValue 0027                              __Umul8_16@product 002B  
