

Microchip MPLAB XC8 Assembler V2.45 build 20230818022343 
                                                                                               Thu Oct 26 00:11:27 2023

Microchip MPLAB XC8 C Compiler v2.45 (Free license) build 20230818022343 Og1 
     1                           	processor	16F1827
     2                           	pagewidth 120
     3                           	opt	flic
     4                           	psect	cinit,global,class=CODE,merge=1,delta=2
     5                           	psect	bssCOMMON,global,class=COMMON,space=1,delta=1,noexec
     6                           	psect	bssBANK0,global,class=BANK0,space=1,delta=1,noexec
     7                           	psect	cstackCOMMON,global,class=COMMON,space=1,delta=1,noexec
     8                           	psect	cstackBANK0,global,class=BANK0,space=1,delta=1,noexec
     9                           	psect	maintext,global,class=CODE,merge=1,split=1,delta=2
    10                           	psect	text1,local,class=CODE,merge=1,delta=2
    11                           	psect	text2,local,class=CODE,merge=1,delta=2
    12                           	psect	text3,local,class=CODE,merge=1,delta=2
    13                           	psect	text4,local,class=CODE,merge=1,delta=2
    14                           	psect	text5,local,class=CODE,merge=1,delta=2
    15                           	psect	text6,local,class=CODE,merge=1,delta=2
    16                           	psect	text7,local,class=CODE,merge=1,delta=2
    17                           	psect	text8,local,class=CODE,merge=1,delta=2
    18                           	psect	text9,local,class=CODE,merge=1,delta=2
    19                           	psect	text10,local,class=CODE,merge=1,delta=2
    20                           	psect	text11,local,class=CODE,merge=1,delta=2
    21                           	psect	intentry,global,class=CODE,delta=2
    22                           	psect	text13,local,class=CODE,merge=1,delta=2
    23                           	psect	text14,local,class=CODE,merge=1,delta=2
    24                           	psect	text15,local,class=CODE,merge=1,delta=2
    25                           	psect	text16,local,class=CODE,merge=1,delta=2
    26                           	psect	text17,local,class=CODE,merge=1,delta=2
    27                           	psect	config,global,abs,ovrld,class=CONFIG,space=4,delta=2,noexec
    28                           	dabs	1,0x7E,2
    29     0000                     
    30                           ; Generated 06/07/2023 GMT
    31                           ; 
    32                           ; Copyright © 2023, Microchip Technology Inc. and its subsidiaries ("Microchip")
    33                           ; All rights reserved.
    34                           ; 
    35                           ; This software is developed by Microchip Technology Inc. and its subsidiaries ("Microch
      +                          ip").
    36                           ; 
    37                           ; Redistribution and use in source and binary forms, with or without modification, are
    38                           ; permitted provided that the following conditions are met:
    39                           ; 
    40                           ;     1. Redistributions of source code must retain the above copyright notice, this lis
      +                          t of
    41                           ;        conditions and the following disclaimer.
    42                           ; 
    43                           ;     2. Redistributions in binary form must reproduce the above copyright notice, this 
      +                          list
    44                           ;        of conditions and the following disclaimer in the documentation and/or other
    45                           ;        materials provided with the distribution. Publication is not required when
    46                           ;        this file is used in an embedded application.
    47                           ; 
    48                           ;     3. Microchip's name may not be used to endorse or promote products derived from th
      +                          is
    49                           ;        software without specific prior written permission.
    50                           ; 
    51                           ; THIS SOFTWARE IS PROVIDED BY MICROCHIP "AS IS" AND ANY EXPRESS OR IMPLIED WARRANTIES,
    52                           ; INCLUDING, BUT NOT LIMITED TO, THE IMPLIED WARRANTIES OF MERCHANTABILITY AND FITNESS F
      +                          OR
    53                           ; PURPOSE ARE DISCLAIMED.  IN NO EVENT SHALL MICROCHIP BE LIABLE FOR ANY DIRECT, INDIREC
      +                          T,
    54                           ; INCIDENTAL, SPECIAL, EXEMPLARY, OR CONSEQUENTIAL DAMAGES (INCLUDING BUT NOT LIMITED TO
    55                           ; PROCUREMENT OF SUBSTITUTE GOODS OR SERVICES; LOSS OF USE, DATA OR PROFITS; OR BUSINESS
    56                           ; INTERRUPTION) HOWSOEVER CAUSED AND ON ANY THEORY OF LIABILITY, WHETHER IN CONTRACT, ST
      +                          RICT
    57                           ; LIABILITY, OR TORT (INCLUDING NEGLIGENCE OR OTHERWISE) ARISING IN ANY WAY OUT OF THE U
      +                          SE OF
    58                           ; THIS SOFTWARE, EVEN IF ADVISED OF THE POSSIBILITY OF SUCH DAMAGE.
    59                           ; 
    60                           ; 
    61                           ; Code-generator required, PIC16F1827 Definitions
    62                           ; 
    63                           ; SFR Addresses
    64     0000                     	;# 
    65     0001                     	;# 
    66     0002                     	;# 
    67     0003                     	;# 
    68     0004                     	;# 
    69     0005                     	;# 
    70     0006                     	;# 
    71     0007                     	;# 
    72     0008                     	;# 
    73     0009                     	;# 
    74     000A                     	;# 
    75     000B                     	;# 
    76     000C                     	;# 
    77     000D                     	;# 
    78     0011                     	;# 
    79     0012                     	;# 
    80     0013                     	;# 
    81     0014                     	;# 
    82     0015                     	;# 
    83     0016                     	;# 
    84     0016                     	;# 
    85     0017                     	;# 
    86     0018                     	;# 
    87     0019                     	;# 
    88     001A                     	;# 
    89     001B                     	;# 
    90     001C                     	;# 
    91     001E                     	;# 
    92     001F                     	;# 
    93     008C                     	;# 
    94     008D                     	;# 
    95     0091                     	;# 
    96     0092                     	;# 
    97     0093                     	;# 
    98     0094                     	;# 
    99     0095                     	;# 
   100     0096                     	;# 
   101     0097                     	;# 
   102     0098                     	;# 
   103     0099                     	;# 
   104     009A                     	;# 
   105     009B                     	;# 
   106     009B                     	;# 
   107     009C                     	;# 
   108     009D                     	;# 
   109     009E                     	;# 
   110     010C                     	;# 
   111     010D                     	;# 
   112     0111                     	;# 
   113     0112                     	;# 
   114     0113                     	;# 
   115     0114                     	;# 
   116     0115                     	;# 
   117     0116                     	;# 
   118     0117                     	;# 
   119     0118                     	;# 
   120     0119                     	;# 
   121     011A                     	;# 
   122     011B                     	;# 
   123     011D                     	;# 
   124     011E                     	;# 
   125     018C                     	;# 
   126     018D                     	;# 
   127     0191                     	;# 
   128     0191                     	;# 
   129     0192                     	;# 
   130     0193                     	;# 
   131     0193                     	;# 
   132     0193                     	;# 
   133     0194                     	;# 
   134     0195                     	;# 
   135     0196                     	;# 
   136     0199                     	;# 
   137     019A                     	;# 
   138     019B                     	;# 
   139     019B                     	;# 
   140     019B                     	;# 
   141     019B                     	;# 
   142     019C                     	;# 
   143     019C                     	;# 
   144     019D                     	;# 
   145     019E                     	;# 
   146     019F                     	;# 
   147     020C                     	;# 
   148     020D                     	;# 
   149     0211                     	;# 
   150     0211                     	;# 
   151     0212                     	;# 
   152     0212                     	;# 
   153     0213                     	;# 
   154     0213                     	;# 
   155     0214                     	;# 
   156     0214                     	;# 
   157     0215                     	;# 
   158     0215                     	;# 
   159     0215                     	;# 
   160     0216                     	;# 
   161     0216                     	;# 
   162     0217                     	;# 
   163     0217                     	;# 
   164     0219                     	;# 
   165     021A                     	;# 
   166     021B                     	;# 
   167     021C                     	;# 
   168     021D                     	;# 
   169     021E                     	;# 
   170     021F                     	;# 
   171     0291                     	;# 
   172     0291                     	;# 
   173     0292                     	;# 
   174     0293                     	;# 
   175     0294                     	;# 
   176     0295                     	;# 
   177     0295                     	;# 
   178     0296                     	;# 
   179     0298                     	;# 
   180     0298                     	;# 
   181     0299                     	;# 
   182     029A                     	;# 
   183     029B                     	;# 
   184     029C                     	;# 
   185     029C                     	;# 
   186     029D                     	;# 
   187     029E                     	;# 
   188     029E                     	;# 
   189     0311                     	;# 
   190     0311                     	;# 
   191     0312                     	;# 
   192     0313                     	;# 
   193     0318                     	;# 
   194     0318                     	;# 
   195     0319                     	;# 
   196     031A                     	;# 
   197     0394                     	;# 
   198     0395                     	;# 
   199     0396                     	;# 
   200     039A                     	;# 
   201     039C                     	;# 
   202     039D                     	;# 
   203     039E                     	;# 
   204     039F                     	;# 
   205     0415                     	;# 
   206     0416                     	;# 
   207     0417                     	;# 
   208     041C                     	;# 
   209     041D                     	;# 
   210     041E                     	;# 
   211     0FE4                     	;# 
   212     0FE5                     	;# 
   213     0FE6                     	;# 
   214     0FE7                     	;# 
   215     0FE8                     	;# 
   216     0FE9                     	;# 
   217     0FEA                     	;# 
   218     0FEB                     	;# 
   219     0FED                     	;# 
   220     0FEE                     	;# 
   221     0FEF                     	;# 
   222     0000                     	;# 
   223     0001                     	;# 
   224     0002                     	;# 
   225     0003                     	;# 
   226     0004                     	;# 
   227     0005                     	;# 
   228     0006                     	;# 
   229     0007                     	;# 
   230     0008                     	;# 
   231     0009                     	;# 
   232     000A                     	;# 
   233     000B                     	;# 
   234     000C                     	;# 
   235     000D                     	;# 
   236     0011                     	;# 
   237     0012                     	;# 
   238     0013                     	;# 
   239     0014                     	;# 
   240     0015                     	;# 
   241     0016                     	;# 
   242     0016                     	;# 
   243     0017                     	;# 
   244     0018                     	;# 
   245     0019                     	;# 
   246     001A                     	;# 
   247     001B                     	;# 
   248     001C                     	;# 
   249     001E                     	;# 
   250     001F                     	;# 
   251     008C                     	;# 
   252     008D                     	;# 
   253     0091                     	;# 
   254     0092                     	;# 
   255     0093                     	;# 
   256     0094                     	;# 
   257     0095                     	;# 
   258     0096                     	;# 
   259     0097                     	;# 
   260     0098                     	;# 
   261     0099                     	;# 
   262     009A                     	;# 
   263     009B                     	;# 
   264     009B                     	;# 
   265     009C                     	;# 
   266     009D                     	;# 
   267     009E                     	;# 
   268     010C                     	;# 
   269     010D                     	;# 
   270     0111                     	;# 
   271     0112                     	;# 
   272     0113                     	;# 
   273     0114                     	;# 
   274     0115                     	;# 
   275     0116                     	;# 
   276     0117                     	;# 
   277     0118                     	;# 
   278     0119                     	;# 
   279     011A                     	;# 
   280     011B                     	;# 
   281     011D                     	;# 
   282     011E                     	;# 
   283     018C                     	;# 
   284     018D                     	;# 
   285     0191                     	;# 
   286     0191                     	;# 
   287     0192                     	;# 
   288     0193                     	;# 
   289     0193                     	;# 
   290     0193                     	;# 
   291     0194                     	;# 
   292     0195                     	;# 
   293     0196                     	;# 
   294     0199                     	;# 
   295     019A                     	;# 
   296     019B                     	;# 
   297     019B                     	;# 
   298     019B                     	;# 
   299     019B                     	;# 
   300     019C                     	;# 
   301     019C                     	;# 
   302     019D                     	;# 
   303     019E                     	;# 
   304     019F                     	;# 
   305     020C                     	;# 
   306     020D                     	;# 
   307     0211                     	;# 
   308     0211                     	;# 
   309     0212                     	;# 
   310     0212                     	;# 
   311     0213                     	;# 
   312     0213                     	;# 
   313     0214                     	;# 
   314     0214                     	;# 
   315     0215                     	;# 
   316     0215                     	;# 
   317     0215                     	;# 
   318     0216                     	;# 
   319     0216                     	;# 
   320     0217                     	;# 
   321     0217                     	;# 
   322     0219                     	;# 
   323     021A                     	;# 
   324     021B                     	;# 
   325     021C                     	;# 
   326     021D                     	;# 
   327     021E                     	;# 
   328     021F                     	;# 
   329     0291                     	;# 
   330     0291                     	;# 
   331     0292                     	;# 
   332     0293                     	;# 
   333     0294                     	;# 
   334     0295                     	;# 
   335     0295                     	;# 
   336     0296                     	;# 
   337     0298                     	;# 
   338     0298                     	;# 
   339     0299                     	;# 
   340     029A                     	;# 
   341     029B                     	;# 
   342     029C                     	;# 
   343     029C                     	;# 
   344     029D                     	;# 
   345     029E                     	;# 
   346     029E                     	;# 
   347     0311                     	;# 
   348     0311                     	;# 
   349     0312                     	;# 
   350     0313                     	;# 
   351     0318                     	;# 
   352     0318                     	;# 
   353     0319                     	;# 
   354     031A                     	;# 
   355     0394                     	;# 
   356     0395                     	;# 
   357     0396                     	;# 
   358     039A                     	;# 
   359     039C                     	;# 
   360     039D                     	;# 
   361     039E                     	;# 
   362     039F                     	;# 
   363     0415                     	;# 
   364     0416                     	;# 
   365     0417                     	;# 
   366     041C                     	;# 
   367     041D                     	;# 
   368     041E                     	;# 
   369     0FE4                     	;# 
   370     0FE5                     	;# 
   371     0FE6                     	;# 
   372     0FE7                     	;# 
   373     0FE8                     	;# 
   374     0FE9                     	;# 
   375     0FEA                     	;# 
   376     0FEB                     	;# 
   377     0FED                     	;# 
   378     0FEE                     	;# 
   379     0FEF                     	;# 
   380     0000                     	;# 
   381     0001                     	;# 
   382     0002                     	;# 
   383     0003                     	;# 
   384     0004                     	;# 
   385     0005                     	;# 
   386     0006                     	;# 
   387     0007                     	;# 
   388     0008                     	;# 
   389     0009                     	;# 
   390     000A                     	;# 
   391     000B                     	;# 
   392     000C                     	;# 
   393     000D                     	;# 
   394     0011                     	;# 
   395     0012                     	;# 
   396     0013                     	;# 
   397     0014                     	;# 
   398     0015                     	;# 
   399     0016                     	;# 
   400     0016                     	;# 
   401     0017                     	;# 
   402     0018                     	;# 
   403     0019                     	;# 
   404     001A                     	;# 
   405     001B                     	;# 
   406     001C                     	;# 
   407     001E                     	;# 
   408     001F                     	;# 
   409     008C                     	;# 
   410     008D                     	;# 
   411     0091                     	;# 
   412     0092                     	;# 
   413     0093                     	;# 
   414     0094                     	;# 
   415     0095                     	;# 
   416     0096                     	;# 
   417     0097                     	;# 
   418     0098                     	;# 
   419     0099                     	;# 
   420     009A                     	;# 
   421     009B                     	;# 
   422     009B                     	;# 
   423     009C                     	;# 
   424     009D                     	;# 
   425     009E                     	;# 
   426     010C                     	;# 
   427     010D                     	;# 
   428     0111                     	;# 
   429     0112                     	;# 
   430     0113                     	;# 
   431     0114                     	;# 
   432     0115                     	;# 
   433     0116                     	;# 
   434     0117                     	;# 
   435     0118                     	;# 
   436     0119                     	;# 
   437     011A                     	;# 
   438     011B                     	;# 
   439     011D                     	;# 
   440     011E                     	;# 
   441     018C                     	;# 
   442     018D                     	;# 
   443     0191                     	;# 
   444     0191                     	;# 
   445     0192                     	;# 
   446     0193                     	;# 
   447     0193                     	;# 
   448     0193                     	;# 
   449     0194                     	;# 
   450     0195                     	;# 
   451     0196                     	;# 
   452     0199                     	;# 
   453     019A                     	;# 
   454     019B                     	;# 
   455     019B                     	;# 
   456     019B                     	;# 
   457     019B                     	;# 
   458     019C                     	;# 
   459     019C                     	;# 
   460     019D                     	;# 
   461     019E                     	;# 
   462     019F                     	;# 
   463     020C                     	;# 
   464     020D                     	;# 
   465     0211                     	;# 
   466     0211                     	;# 
   467     0212                     	;# 
   468     0212                     	;# 
   469     0213                     	;# 
   470     0213                     	;# 
   471     0214                     	;# 
   472     0214                     	;# 
   473     0215                     	;# 
   474     0215                     	;# 
   475     0215                     	;# 
   476     0216                     	;# 
   477     0216                     	;# 
   478     0217                     	;# 
   479     0217                     	;# 
   480     0219                     	;# 
   481     021A                     	;# 
   482     021B                     	;# 
   483     021C                     	;# 
   484     021D                     	;# 
   485     021E                     	;# 
   486     021F                     	;# 
   487     0291                     	;# 
   488     0291                     	;# 
   489     0292                     	;# 
   490     0293                     	;# 
   491     0294                     	;# 
   492     0295                     	;# 
   493     0295                     	;# 
   494     0296                     	;# 
   495     0298                     	;# 
   496     0298                     	;# 
   497     0299                     	;# 
   498     029A                     	;# 
   499     029B                     	;# 
   500     029C                     	;# 
   501     029C                     	;# 
   502     029D                     	;# 
   503     029E                     	;# 
   504     029E                     	;# 
   505     0311                     	;# 
   506     0311                     	;# 
   507     0312                     	;# 
   508     0313                     	;# 
   509     0318                     	;# 
   510     0318                     	;# 
   511     0319                     	;# 
   512     031A                     	;# 
   513     0394                     	;# 
   514     0395                     	;# 
   515     0396                     	;# 
   516     039A                     	;# 
   517     039C                     	;# 
   518     039D                     	;# 
   519     039E                     	;# 
   520     039F                     	;# 
   521     0415                     	;# 
   522     0416                     	;# 
   523     0417                     	;# 
   524     041C                     	;# 
   525     041D                     	;# 
   526     041E                     	;# 
   527     0FE4                     	;# 
   528     0FE5                     	;# 
   529     0FE6                     	;# 
   530     0FE7                     	;# 
   531     0FE8                     	;# 
   532     0FE9                     	;# 
   533     0FEA                     	;# 
   534     0FEB                     	;# 
   535     0FED                     	;# 
   536     0FEE                     	;# 
   537     0FEF                     	;# 
   538     0000                     	;# 
   539     0001                     	;# 
   540     0002                     	;# 
   541     0003                     	;# 
   542     0004                     	;# 
   543     0005                     	;# 
   544     0006                     	;# 
   545     0007                     	;# 
   546     0008                     	;# 
   547     0009                     	;# 
   548     000A                     	;# 
   549     000B                     	;# 
   550     000C                     	;# 
   551     000D                     	;# 
   552     0011                     	;# 
   553     0012                     	;# 
   554     0013                     	;# 
   555     0014                     	;# 
   556     0015                     	;# 
   557     0016                     	;# 
   558     0016                     	;# 
   559     0017                     	;# 
   560     0018                     	;# 
   561     0019                     	;# 
   562     001A                     	;# 
   563     001B                     	;# 
   564     001C                     	;# 
   565     001E                     	;# 
   566     001F                     	;# 
   567     008C                     	;# 
   568     008D                     	;# 
   569     0091                     	;# 
   570     0092                     	;# 
   571     0093                     	;# 
   572     0094                     	;# 
   573     0095                     	;# 
   574     0096                     	;# 
   575     0097                     	;# 
   576     0098                     	;# 
   577     0099                     	;# 
   578     009A                     	;# 
   579     009B                     	;# 
   580     009B                     	;# 
   581     009C                     	;# 
   582     009D                     	;# 
   583     009E                     	;# 
   584     010C                     	;# 
   585     010D                     	;# 
   586     0111                     	;# 
   587     0112                     	;# 
   588     0113                     	;# 
   589     0114                     	;# 
   590     0115                     	;# 
   591     0116                     	;# 
   592     0117                     	;# 
   593     0118                     	;# 
   594     0119                     	;# 
   595     011A                     	;# 
   596     011B                     	;# 
   597     011D                     	;# 
   598     011E                     	;# 
   599     018C                     	;# 
   600     018D                     	;# 
   601     0191                     	;# 
   602     0191                     	;# 
   603     0192                     	;# 
   604     0193                     	;# 
   605     0193                     	;# 
   606     0193                     	;# 
   607     0194                     	;# 
   608     0195                     	;# 
   609     0196                     	;# 
   610     0199                     	;# 
   611     019A                     	;# 
   612     019B                     	;# 
   613     019B                     	;# 
   614     019B                     	;# 
   615     019B                     	;# 
   616     019C                     	;# 
   617     019C                     	;# 
   618     019D                     	;# 
   619     019E                     	;# 
   620     019F                     	;# 
   621     020C                     	;# 
   622     020D                     	;# 
   623     0211                     	;# 
   624     0211                     	;# 
   625     0212                     	;# 
   626     0212                     	;# 
   627     0213                     	;# 
   628     0213                     	;# 
   629     0214                     	;# 
   630     0214                     	;# 
   631     0215                     	;# 
   632     0215                     	;# 
   633     0215                     	;# 
   634     0216                     	;# 
   635     0216                     	;# 
   636     0217                     	;# 
   637     0217                     	;# 
   638     0219                     	;# 
   639     021A                     	;# 
   640     021B                     	;# 
   641     021C                     	;# 
   642     021D                     	;# 
   643     021E                     	;# 
   644     021F                     	;# 
   645     0291                     	;# 
   646     0291                     	;# 
   647     0292                     	;# 
   648     0293                     	;# 
   649     0294                     	;# 
   650     0295                     	;# 
   651     0295                     	;# 
   652     0296                     	;# 
   653     0298                     	;# 
   654     0298                     	;# 
   655     0299                     	;# 
   656     029A                     	;# 
   657     029B                     	;# 
   658     029C                     	;# 
   659     029C                     	;# 
   660     029D                     	;# 
   661     029E                     	;# 
   662     029E                     	;# 
   663     0311                     	;# 
   664     0311                     	;# 
   665     0312                     	;# 
   666     0313                     	;# 
   667     0318                     	;# 
   668     0318                     	;# 
   669     0319                     	;# 
   670     031A                     	;# 
   671     0394                     	;# 
   672     0395                     	;# 
   673     0396                     	;# 
   674     039A                     	;# 
   675     039C                     	;# 
   676     039D                     	;# 
   677     039E                     	;# 
   678     039F                     	;# 
   679     0415                     	;# 
   680     0416                     	;# 
   681     0417                     	;# 
   682     041C                     	;# 
   683     041D                     	;# 
   684     041E                     	;# 
   685     0FE4                     	;# 
   686     0FE5                     	;# 
   687     0FE6                     	;# 
   688     0FE7                     	;# 
   689     0FE8                     	;# 
   690     0FE9                     	;# 
   691     0FEA                     	;# 
   692     0FEB                     	;# 
   693     0FED                     	;# 
   694     0FEE                     	;# 
   695     0FEF                     	;# 
   696     0000                     	;# 
   697     0001                     	;# 
   698     0002                     	;# 
   699     0003                     	;# 
   700     0004                     	;# 
   701     0005                     	;# 
   702     0006                     	;# 
   703     0007                     	;# 
   704     0008                     	;# 
   705     0009                     	;# 
   706     000A                     	;# 
   707     000B                     	;# 
   708     000C                     	;# 
   709     000D                     	;# 
   710     0011                     	;# 
   711     0012                     	;# 
   712     0013                     	;# 
   713     0014                     	;# 
   714     0015                     	;# 
   715     0016                     	;# 
   716     0016                     	;# 
   717     0017                     	;# 
   718     0018                     	;# 
   719     0019                     	;# 
   720     001A                     	;# 
   721     001B                     	;# 
   722     001C                     	;# 
   723     001E                     	;# 
   724     001F                     	;# 
   725     008C                     	;# 
   726     008D                     	;# 
   727     0091                     	;# 
   728     0092                     	;# 
   729     0093                     	;# 
   730     0094                     	;# 
   731     0095                     	;# 
   732     0096                     	;# 
   733     0097                     	;# 
   734     0098                     	;# 
   735     0099                     	;# 
   736     009A                     	;# 
   737     009B                     	;# 
   738     009B                     	;# 
   739     009C                     	;# 
   740     009D                     	;# 
   741     009E                     	;# 
   742     010C                     	;# 
   743     010D                     	;# 
   744     0111                     	;# 
   745     0112                     	;# 
   746     0113                     	;# 
   747     0114                     	;# 
   748     0115                     	;# 
   749     0116                     	;# 
   750     0117                     	;# 
   751     0118                     	;# 
   752     0119                     	;# 
   753     011A                     	;# 
   754     011B                     	;# 
   755     011D                     	;# 
   756     011E                     	;# 
   757     018C                     	;# 
   758     018D                     	;# 
   759     0191                     	;# 
   760     0191                     	;# 
   761     0192                     	;# 
   762     0193                     	;# 
   763     0193                     	;# 
   764     0193                     	;# 
   765     0194                     	;# 
   766     0195                     	;# 
   767     0196                     	;# 
   768     0199                     	;# 
   769     019A                     	;# 
   770     019B                     	;# 
   771     019B                     	;# 
   772     019B                     	;# 
   773     019B                     	;# 
   774     019C                     	;# 
   775     019C                     	;# 
   776     019D                     	;# 
   777     019E                     	;# 
   778     019F                     	;# 
   779     020C                     	;# 
   780     020D                     	;# 
   781     0211                     	;# 
   782     0211                     	;# 
   783     0212                     	;# 
   784     0212                     	;# 
   785     0213                     	;# 
   786     0213                     	;# 
   787     0214                     	;# 
   788     0214                     	;# 
   789     0215                     	;# 
   790     0215                     	;# 
   791     0215                     	;# 
   792     0216                     	;# 
   793     0216                     	;# 
   794     0217                     	;# 
   795     0217                     	;# 
   796     0219                     	;# 
   797     021A                     	;# 
   798     021B                     	;# 
   799     021C                     	;# 
   800     021D                     	;# 
   801     021E                     	;# 
   802     021F                     	;# 
   803     0291                     	;# 
   804     0291                     	;# 
   805     0292                     	;# 
   806     0293                     	;# 
   807     0294                     	;# 
   808     0295                     	;# 
   809     0295                     	;# 
   810     0296                     	;# 
   811     0298                     	;# 
   812     0298                     	;# 
   813     0299                     	;# 
   814     029A                     	;# 
   815     029B                     	;# 
   816     029C                     	;# 
   817     029C                     	;# 
   818     029D                     	;# 
   819     029E                     	;# 
   820     029E                     	;# 
   821     0311                     	;# 
   822     0311                     	;# 
   823     0312                     	;# 
   824     0313                     	;# 
   825     0318                     	;# 
   826     0318                     	;# 
   827     0319                     	;# 
   828     031A                     	;# 
   829     0394                     	;# 
   830     0395                     	;# 
   831     0396                     	;# 
   832     039A                     	;# 
   833     039C                     	;# 
   834     039D                     	;# 
   835     039E                     	;# 
   836     039F                     	;# 
   837     0415                     	;# 
   838     0416                     	;# 
   839     0417                     	;# 
   840     041C                     	;# 
   841     041D                     	;# 
   842     041E                     	;# 
   843     0FE4                     	;# 
   844     0FE5                     	;# 
   845     0FE6                     	;# 
   846     0FE7                     	;# 
   847     0FE8                     	;# 
   848     0FE9                     	;# 
   849     0FEA                     	;# 
   850     0FEB                     	;# 
   851     0FED                     	;# 
   852     0FEE                     	;# 
   853     0FEF                     	;# 
   854     0000                     	;# 
   855     0001                     	;# 
   856     0002                     	;# 
   857     0003                     	;# 
   858     0004                     	;# 
   859     0005                     	;# 
   860     0006                     	;# 
   861     0007                     	;# 
   862     0008                     	;# 
   863     0009                     	;# 
   864     000A                     	;# 
   865     000B                     	;# 
   866     000C                     	;# 
   867     000D                     	;# 
   868     0011                     	;# 
   869     0012                     	;# 
   870     0013                     	;# 
   871     0014                     	;# 
   872     0015                     	;# 
   873     0016                     	;# 
   874     0016                     	;# 
   875     0017                     	;# 
   876     0018                     	;# 
   877     0019                     	;# 
   878     001A                     	;# 
   879     001B                     	;# 
   880     001C                     	;# 
   881     001E                     	;# 
   882     001F                     	;# 
   883     008C                     	;# 
   884     008D                     	;# 
   885     0091                     	;# 
   886     0092                     	;# 
   887     0093                     	;# 
   888     0094                     	;# 
   889     0095                     	;# 
   890     0096                     	;# 
   891     0097                     	;# 
   892     0098                     	;# 
   893     0099                     	;# 
   894     009A                     	;# 
   895     009B                     	;# 
   896     009B                     	;# 
   897     009C                     	;# 
   898     009D                     	;# 
   899     009E                     	;# 
   900     010C                     	;# 
   901     010D                     	;# 
   902     0111                     	;# 
   903     0112                     	;# 
   904     0113                     	;# 
   905     0114                     	;# 
   906     0115                     	;# 
   907     0116                     	;# 
   908     0117                     	;# 
   909     0118                     	;# 
   910     0119                     	;# 
   911     011A                     	;# 
   912     011B                     	;# 
   913     011D                     	;# 
   914     011E                     	;# 
   915     018C                     	;# 
   916     018D                     	;# 
   917     0191                     	;# 
   918     0191                     	;# 
   919     0192                     	;# 
   920     0193                     	;# 
   921     0193                     	;# 
   922     0193                     	;# 
   923     0194                     	;# 
   924     0195                     	;# 
   925     0196                     	;# 
   926     0199                     	;# 
   927     019A                     	;# 
   928     019B                     	;# 
   929     019B                     	;# 
   930     019B                     	;# 
   931     019B                     	;# 
   932     019C                     	;# 
   933     019C                     	;# 
   934     019D                     	;# 
   935     019E                     	;# 
   936     019F                     	;# 
   937     020C                     	;# 
   938     020D                     	;# 
   939     0211                     	;# 
   940     0211                     	;# 
   941     0212                     	;# 
   942     0212                     	;# 
   943     0213                     	;# 
   944     0213                     	;# 
   945     0214                     	;# 
   946     0214                     	;# 
   947     0215                     	;# 
   948     0215                     	;# 
   949     0215                     	;# 
   950     0216                     	;# 
   951     0216                     	;# 
   952     0217                     	;# 
   953     0217                     	;# 
   954     0219                     	;# 
   955     021A                     	;# 
   956     021B                     	;# 
   957     021C                     	;# 
   958     021D                     	;# 
   959     021E                     	;# 
   960     021F                     	;# 
   961     0291                     	;# 
   962     0291                     	;# 
   963     0292                     	;# 
   964     0293                     	;# 
   965     0294                     	;# 
   966     0295                     	;# 
   967     0295                     	;# 
   968     0296                     	;# 
   969     0298                     	;# 
   970     0298                     	;# 
   971     0299                     	;# 
   972     029A                     	;# 
   973     029B                     	;# 
   974     029C                     	;# 
   975     029C                     	;# 
   976     029D                     	;# 
   977     029E                     	;# 
   978     029E                     	;# 
   979     0311                     	;# 
   980     0311                     	;# 
   981     0312                     	;# 
   982     0313                     	;# 
   983     0318                     	;# 
   984     0318                     	;# 
   985     0319                     	;# 
   986     031A                     	;# 
   987     0394                     	;# 
   988     0395                     	;# 
   989     0396                     	;# 
   990     039A                     	;# 
   991     039C                     	;# 
   992     039D                     	;# 
   993     039E                     	;# 
   994     039F                     	;# 
   995     0415                     	;# 
   996     0416                     	;# 
   997     0417                     	;# 
   998     041C                     	;# 
   999     041D                     	;# 
  1000     041E                     	;# 
  1001     0FE4                     	;# 
  1002     0FE5                     	;# 
  1003     0FE6                     	;# 
  1004     0FE7                     	;# 
  1005     0FE8                     	;# 
  1006     0FE9                     	;# 
  1007     0FEA                     	;# 
  1008     0FEB                     	;# 
  1009     0FED                     	;# 
  1010     0FEE                     	;# 
  1011     0FEF                     	;# 
  1012     0000                     	;# 
  1013     0001                     	;# 
  1014     0002                     	;# 
  1015     0003                     	;# 
  1016     0004                     	;# 
  1017     0005                     	;# 
  1018     0006                     	;# 
  1019     0007                     	;# 
  1020     0008                     	;# 
  1021     0009                     	;# 
  1022     000A                     	;# 
  1023     000B                     	;# 
  1024     000C                     	;# 
  1025     000D                     	;# 
  1026     0011                     	;# 
  1027     0012                     	;# 
  1028     0013                     	;# 
  1029     0014                     	;# 
  1030     0015                     	;# 
  1031     0016                     	;# 
  1032     0016                     	;# 
  1033     0017                     	;# 
  1034     0018                     	;# 
  1035     0019                     	;# 
  1036     001A                     	;# 
  1037     001B                     	;# 
  1038     001C                     	;# 
  1039     001E                     	;# 
  1040     001F                     	;# 
  1041     008C                     	;# 
  1042     008D                     	;# 
  1043     0091                     	;# 
  1044     0092                     	;# 
  1045     0093                     	;# 
  1046     0094                     	;# 
  1047     0095                     	;# 
  1048     0096                     	;# 
  1049     0097                     	;# 
  1050     0098                     	;# 
  1051     0099                     	;# 
  1052     009A                     	;# 
  1053     009B                     	;# 
  1054     009B                     	;# 
  1055     009C                     	;# 
  1056     009D                     	;# 
  1057     009E                     	;# 
  1058     010C                     	;# 
  1059     010D                     	;# 
  1060     0111                     	;# 
  1061     0112                     	;# 
  1062     0113                     	;# 
  1063     0114                     	;# 
  1064     0115                     	;# 
  1065     0116                     	;# 
  1066     0117                     	;# 
  1067     0118                     	;# 
  1068     0119                     	;# 
  1069     011A                     	;# 
  1070     011B                     	;# 
  1071     011D                     	;# 
  1072     011E                     	;# 
  1073     018C                     	;# 
  1074     018D                     	;# 
  1075     0191                     	;# 
  1076     0191                     	;# 
  1077     0192                     	;# 
  1078     0193                     	;# 
  1079     0193                     	;# 
  1080     0193                     	;# 
  1081     0194                     	;# 
  1082     0195                     	;# 
  1083     0196                     	;# 
  1084     0199                     	;# 
  1085     019A                     	;# 
  1086     019B                     	;# 
  1087     019B                     	;# 
  1088     019B                     	;# 
  1089     019B                     	;# 
  1090     019C                     	;# 
  1091     019C                     	;# 
  1092     019D                     	;# 
  1093     019E                     	;# 
  1094     019F                     	;# 
  1095     020C                     	;# 
  1096     020D                     	;# 
  1097     0211                     	;# 
  1098     0211                     	;# 
  1099     0212                     	;# 
  1100     0212                     	;# 
  1101     0213                     	;# 
  1102     0213                     	;# 
  1103     0214                     	;# 
  1104     0214                     	;# 
  1105     0215                     	;# 
  1106     0215                     	;# 
  1107     0215                     	;# 
  1108     0216                     	;# 
  1109     0216                     	;# 
  1110     0217                     	;# 
  1111     0217                     	;# 
  1112     0219                     	;# 
  1113     021A                     	;# 
  1114     021B                     	;# 
  1115     021C                     	;# 
  1116     021D                     	;# 
  1117     021E                     	;# 
  1118     021F                     	;# 
  1119     0291                     	;# 
  1120     0291                     	;# 
  1121     0292                     	;# 
  1122     0293                     	;# 
  1123     0294                     	;# 
  1124     0295                     	;# 
  1125     0295                     	;# 
  1126     0296                     	;# 
  1127     0298                     	;# 
  1128     0298                     	;# 
  1129     0299                     	;# 
  1130     029A                     	;# 
  1131     029B                     	;# 
  1132     029C                     	;# 
  1133     029C                     	;# 
  1134     029D                     	;# 
  1135     029E                     	;# 
  1136     029E                     	;# 
  1137     0311                     	;# 
  1138     0311                     	;# 
  1139     0312                     	;# 
  1140     0313                     	;# 
  1141     0318                     	;# 
  1142     0318                     	;# 
  1143     0319                     	;# 
  1144     031A                     	;# 
  1145     0394                     	;# 
  1146     0395                     	;# 
  1147     0396                     	;# 
  1148     039A                     	;# 
  1149     039C                     	;# 
  1150     039D                     	;# 
  1151     039E                     	;# 
  1152     039F                     	;# 
  1153     0415                     	;# 
  1154     0416                     	;# 
  1155     0417                     	;# 
  1156     041C                     	;# 
  1157     041D                     	;# 
  1158     041E                     	;# 
  1159     0FE4                     	;# 
  1160     0FE5                     	;# 
  1161     0FE6                     	;# 
  1162     0FE7                     	;# 
  1163     0FE8                     	;# 
  1164     0FE9                     	;# 
  1165     0FEA                     	;# 
  1166     0FEB                     	;# 
  1167     0FED                     	;# 
  1168     0FEE                     	;# 
  1169     0FEF                     	;# 
  1170     0000                     	;# 
  1171     0001                     	;# 
  1172     0002                     	;# 
  1173     0003                     	;# 
  1174     0004                     	;# 
  1175     0005                     	;# 
  1176     0006                     	;# 
  1177     0007                     	;# 
  1178     0008                     	;# 
  1179     0009                     	;# 
  1180     000A                     	;# 
  1181     000B                     	;# 
  1182     000C                     	;# 
  1183     000D                     	;# 
  1184     0011                     	;# 
  1185     0012                     	;# 
  1186     0013                     	;# 
  1187     0014                     	;# 
  1188     0015                     	;# 
  1189     0016                     	;# 
  1190     0016                     	;# 
  1191     0017                     	;# 
  1192     0018                     	;# 
  1193     0019                     	;# 
  1194     001A                     	;# 
  1195     001B                     	;# 
  1196     001C                     	;# 
  1197     001E                     	;# 
  1198     001F                     	;# 
  1199     008C                     	;# 
  1200     008D                     	;# 
  1201     0091                     	;# 
  1202     0092                     	;# 
  1203     0093                     	;# 
  1204     0094                     	;# 
  1205     0095                     	;# 
  1206     0096                     	;# 
  1207     0097                     	;# 
  1208     0098                     	;# 
  1209     0099                     	;# 
  1210     009A                     	;# 
  1211     009B                     	;# 
  1212     009B                     	;# 
  1213     009C                     	;# 
  1214     009D                     	;# 
  1215     009E                     	;# 
  1216     010C                     	;# 
  1217     010D                     	;# 
  1218     0111                     	;# 
  1219     0112                     	;# 
  1220     0113                     	;# 
  1221     0114                     	;# 
  1222     0115                     	;# 
  1223     0116                     	;# 
  1224     0117                     	;# 
  1225     0118                     	;# 
  1226     0119                     	;# 
  1227     011A                     	;# 
  1228     011B                     	;# 
  1229     011D                     	;# 
  1230     011E                     	;# 
  1231     018C                     	;# 
  1232     018D                     	;# 
  1233     0191                     	;# 
  1234     0191                     	;# 
  1235     0192                     	;# 
  1236     0193                     	;# 
  1237     0193                     	;# 
  1238     0193                     	;# 
  1239     0194                     	;# 
  1240     0195                     	;# 
  1241     0196                     	;# 
  1242     0199                     	;# 
  1243     019A                     	;# 
  1244     019B                     	;# 
  1245     019B                     	;# 
  1246     019B                     	;# 
  1247     019B                     	;# 
  1248     019C                     	;# 
  1249     019C                     	;# 
  1250     019D                     	;# 
  1251     019E                     	;# 
  1252     019F                     	;# 
  1253     020C                     	;# 
  1254     020D                     	;# 
  1255     0211                     	;# 
  1256     0211                     	;# 
  1257     0212                     	;# 
  1258     0212                     	;# 
  1259     0213                     	;# 
  1260     0213                     	;# 
  1261     0214                     	;# 
  1262     0214                     	;# 
  1263     0215                     	;# 
  1264     0215                     	;# 
  1265     0215                     	;# 
  1266     0216                     	;# 
  1267     0216                     	;# 
  1268     0217                     	;# 
  1269     0217                     	;# 
  1270     0219                     	;# 
  1271     021A                     	;# 
  1272     021B                     	;# 
  1273     021C                     	;# 
  1274     021D                     	;# 
  1275     021E                     	;# 
  1276     021F                     	;# 
  1277     0291                     	;# 
  1278     0291                     	;# 
  1279     0292                     	;# 
  1280     0293                     	;# 
  1281     0294                     	;# 
  1282     0295                     	;# 
  1283     0295                     	;# 
  1284     0296                     	;# 
  1285     0298                     	;# 
  1286     0298                     	;# 
  1287     0299                     	;# 
  1288     029A                     	;# 
  1289     029B                     	;# 
  1290     029C                     	;# 
  1291     029C                     	;# 
  1292     029D                     	;# 
  1293     029E                     	;# 
  1294     029E                     	;# 
  1295     0311                     	;# 
  1296     0311                     	;# 
  1297     0312                     	;# 
  1298     0313                     	;# 
  1299     0318                     	;# 
  1300     0318                     	;# 
  1301     0319                     	;# 
  1302     031A                     	;# 
  1303     0394                     	;# 
  1304     0395                     	;# 
  1305     0396                     	;# 
  1306     039A                     	;# 
  1307     039C                     	;# 
  1308     039D                     	;# 
  1309     039E                     	;# 
  1310     039F                     	;# 
  1311     0415                     	;# 
  1312     0416                     	;# 
  1313     0417                     	;# 
  1314     041C                     	;# 
  1315     041D                     	;# 
  1316     041E                     	;# 
  1317     0FE4                     	;# 
  1318     0FE5                     	;# 
  1319     0FE6                     	;# 
  1320     0FE7                     	;# 
  1321     0FE8                     	;# 
  1322     0FE9                     	;# 
  1323     0FEA                     	;# 
  1324     0FEB                     	;# 
  1325     0FED                     	;# 
  1326     0FEE                     	;# 
  1327     0FEF                     	;# 
  1328     0000                     	;# 
  1329     0001                     	;# 
  1330     0002                     	;# 
  1331     0003                     	;# 
  1332     0004                     	;# 
  1333     0005                     	;# 
  1334     0006                     	;# 
  1335     0007                     	;# 
  1336     0008                     	;# 
  1337     0009                     	;# 
  1338     000A                     	;# 
  1339     000B                     	;# 
  1340     000C                     	;# 
  1341     000D                     	;# 
  1342     0011                     	;# 
  1343     0012                     	;# 
  1344     0013                     	;# 
  1345     0014                     	;# 
  1346     0015                     	;# 
  1347     0016                     	;# 
  1348     0016                     	;# 
  1349     0017                     	;# 
  1350     0018                     	;# 
  1351     0019                     	;# 
  1352     001A                     	;# 
  1353     001B                     	;# 
  1354     001C                     	;# 
  1355     001E                     	;# 
  1356     001F                     	;# 
  1357     008C                     	;# 
  1358     008D                     	;# 
  1359     0091                     	;# 
  1360     0092                     	;# 
  1361     0093                     	;# 
  1362     0094                     	;# 
  1363     0095                     	;# 
  1364     0096                     	;# 
  1365     0097                     	;# 
  1366     0098                     	;# 
  1367     0099                     	;# 
  1368     009A                     	;# 
  1369     009B                     	;# 
  1370     009B                     	;# 
  1371     009C                     	;# 
  1372     009D                     	;# 
  1373     009E                     	;# 
  1374     010C                     	;# 
  1375     010D                     	;# 
  1376     0111                     	;# 
  1377     0112                     	;# 
  1378     0113                     	;# 
  1379     0114                     	;# 
  1380     0115                     	;# 
  1381     0116                     	;# 
  1382     0117                     	;# 
  1383     0118                     	;# 
  1384     0119                     	;# 
  1385     011A                     	;# 
  1386     011B                     	;# 
  1387     011D                     	;# 
  1388     011E                     	;# 
  1389     018C                     	;# 
  1390     018D                     	;# 
  1391     0191                     	;# 
  1392     0191                     	;# 
  1393     0192                     	;# 
  1394     0193                     	;# 
  1395     0193                     	;# 
  1396     0193                     	;# 
  1397     0194                     	;# 
  1398     0195                     	;# 
  1399     0196                     	;# 
  1400     0199                     	;# 
  1401     019A                     	;# 
  1402     019B                     	;# 
  1403     019B                     	;# 
  1404     019B                     	;# 
  1405     019B                     	;# 
  1406     019C                     	;# 
  1407     019C                     	;# 
  1408     019D                     	;# 
  1409     019E                     	;# 
  1410     019F                     	;# 
  1411     020C                     	;# 
  1412     020D                     	;# 
  1413     0211                     	;# 
  1414     0211                     	;# 
  1415     0212                     	;# 
  1416     0212                     	;# 
  1417     0213                     	;# 
  1418     0213                     	;# 
  1419     0214                     	;# 
  1420     0214                     	;# 
  1421     0215                     	;# 
  1422     0215                     	;# 
  1423     0215                     	;# 
  1424     0216                     	;# 
  1425     0216                     	;# 
  1426     0217                     	;# 
  1427     0217                     	;# 
  1428     0219                     	;# 
  1429     021A                     	;# 
  1430     021B                     	;# 
  1431     021C                     	;# 
  1432     021D                     	;# 
  1433     021E                     	;# 
  1434     021F                     	;# 
  1435     0291                     	;# 
  1436     0291                     	;# 
  1437     0292                     	;# 
  1438     0293                     	;# 
  1439     0294                     	;# 
  1440     0295                     	;# 
  1441     0295                     	;# 
  1442     0296                     	;# 
  1443     0298                     	;# 
  1444     0298                     	;# 
  1445     0299                     	;# 
  1446     029A                     	;# 
  1447     029B                     	;# 
  1448     029C                     	;# 
  1449     029C                     	;# 
  1450     029D                     	;# 
  1451     029E                     	;# 
  1452     029E                     	;# 
  1453     0311                     	;# 
  1454     0311                     	;# 
  1455     0312                     	;# 
  1456     0313                     	;# 
  1457     0318                     	;# 
  1458     0318                     	;# 
  1459     0319                     	;# 
  1460     031A                     	;# 
  1461     0394                     	;# 
  1462     0395                     	;# 
  1463     0396                     	;# 
  1464     039A                     	;# 
  1465     039C                     	;# 
  1466     039D                     	;# 
  1467     039E                     	;# 
  1468     039F                     	;# 
  1469     0415                     	;# 
  1470     0416                     	;# 
  1471     0417                     	;# 
  1472     041C                     	;# 
  1473     041D                     	;# 
  1474     041E                     	;# 
  1475     0FE4                     	;# 
  1476     0FE5                     	;# 
  1477     0FE6                     	;# 
  1478     0FE7                     	;# 
  1479     0FE8                     	;# 
  1480     0FE9                     	;# 
  1481     0FEA                     	;# 
  1482     0FEB                     	;# 
  1483     0FED                     	;# 
  1484     0FEE                     	;# 
  1485     0FEF                     	;# 
  1486     0000                     	;# 
  1487     0001                     	;# 
  1488     0002                     	;# 
  1489     0003                     	;# 
  1490     0004                     	;# 
  1491     0005                     	;# 
  1492     0006                     	;# 
  1493     0007                     	;# 
  1494     0008                     	;# 
  1495     0009                     	;# 
  1496     000A                     	;# 
  1497     000B                     	;# 
  1498     000C                     	;# 
  1499     000D                     	;# 
  1500     0011                     	;# 
  1501     0012                     	;# 
  1502     0013                     	;# 
  1503     0014                     	;# 
  1504     0015                     	;# 
  1505     0016                     	;# 
  1506     0016                     	;# 
  1507     0017                     	;# 
  1508     0018                     	;# 
  1509     0019                     	;# 
  1510     001A                     	;# 
  1511     001B                     	;# 
  1512     001C                     	;# 
  1513     001E                     	;# 
  1514     001F                     	;# 
  1515     008C                     	;# 
  1516     008D                     	;# 
  1517     0091                     	;# 
  1518     0092                     	;# 
  1519     0093                     	;# 
  1520     0094                     	;# 
  1521     0095                     	;# 
  1522     0096                     	;# 
  1523     0097                     	;# 
  1524     0098                     	;# 
  1525     0099                     	;# 
  1526     009A                     	;# 
  1527     009B                     	;# 
  1528     009B                     	;# 
  1529     009C                     	;# 
  1530     009D                     	;# 
  1531     009E                     	;# 
  1532     010C                     	;# 
  1533     010D                     	;# 
  1534     0111                     	;# 
  1535     0112                     	;# 
  1536     0113                     	;# 
  1537     0114                     	;# 
  1538     0115                     	;# 
  1539     0116                     	;# 
  1540     0117                     	;# 
  1541     0118                     	;# 
  1542     0119                     	;# 
  1543     011A                     	;# 
  1544     011B                     	;# 
  1545     011D                     	;# 
  1546     011E                     	;# 
  1547     018C                     	;# 
  1548     018D                     	;# 
  1549     0191                     	;# 
  1550     0191                     	;# 
  1551     0192                     	;# 
  1552     0193                     	;# 
  1553     0193                     	;# 
  1554     0193                     	;# 
  1555     0194                     	;# 
  1556     0195                     	;# 
  1557     0196                     	;# 
  1558     0199                     	;# 
  1559     019A                     	;# 
  1560     019B                     	;# 
  1561     019B                     	;# 
  1562     019B                     	;# 
  1563     019B                     	;# 
  1564     019C                     	;# 
  1565     019C                     	;# 
  1566     019D                     	;# 
  1567     019E                     	;# 
  1568     019F                     	;# 
  1569     020C                     	;# 
  1570     020D                     	;# 
  1571     0211                     	;# 
  1572     0211                     	;# 
  1573     0212                     	;# 
  1574     0212                     	;# 
  1575     0213                     	;# 
  1576     0213                     	;# 
  1577     0214                     	;# 
  1578     0214                     	;# 
  1579     0215                     	;# 
  1580     0215                     	;# 
  1581     0215                     	;# 
  1582     0216                     	;# 
  1583     0216                     	;# 
  1584     0217                     	;# 
  1585     0217                     	;# 
  1586     0219                     	;# 
  1587     021A                     	;# 
  1588     021B                     	;# 
  1589     021C                     	;# 
  1590     021D                     	;# 
  1591     021E                     	;# 
  1592     021F                     	;# 
  1593     0291                     	;# 
  1594     0291                     	;# 
  1595     0292                     	;# 
  1596     0293                     	;# 
  1597     0294                     	;# 
  1598     0295                     	;# 
  1599     0295                     	;# 
  1600     0296                     	;# 
  1601     0298                     	;# 
  1602     0298                     	;# 
  1603     0299                     	;# 
  1604     029A                     	;# 
  1605     029B                     	;# 
  1606     029C                     	;# 
  1607     029C                     	;# 
  1608     029D                     	;# 
  1609     029E                     	;# 
  1610     029E                     	;# 
  1611     0311                     	;# 
  1612     0311                     	;# 
  1613     0312                     	;# 
  1614     0313                     	;# 
  1615     0318                     	;# 
  1616     0318                     	;# 
  1617     0319                     	;# 
  1618     031A                     	;# 
  1619     0394                     	;# 
  1620     0395                     	;# 
  1621     0396                     	;# 
  1622     039A                     	;# 
  1623     039C                     	;# 
  1624     039D                     	;# 
  1625     039E                     	;# 
  1626     039F                     	;# 
  1627     0415                     	;# 
  1628     0416                     	;# 
  1629     0417                     	;# 
  1630     041C                     	;# 
  1631     041D                     	;# 
  1632     041E                     	;# 
  1633     0FE4                     	;# 
  1634     0FE5                     	;# 
  1635     0FE6                     	;# 
  1636     0FE7                     	;# 
  1637     0FE8                     	;# 
  1638     0FE9                     	;# 
  1639     0FEA                     	;# 
  1640     0FEB                     	;# 
  1641     0FED                     	;# 
  1642     0FEE                     	;# 
  1643     0FEF                     	;# 
  1644     000B                     _INTCONbits	set	11
  1645     001C                     _T2CONbits	set	28
  1646     001C                     _T2CON	set	28
  1647     001A                     _TMR2	set	26
  1648     001B                     _PR2	set	27
  1649     0019                     _T1GCONbits	set	25
  1650     0018                     _T1CONbits	set	24
  1651     0018                     _T1CON	set	24
  1652     0011                     _PIR1bits	set	17
  1653     0016                     _TMR1L	set	22
  1654     0017                     _TMR1H	set	23
  1655     0019                     _T1GCON	set	25
  1656     0097                     _WDTCON	set	151
  1657     0098                     _OSCTUNE	set	152
  1658     0099                     _OSCCON	set	153
  1659     009D                     _ADCON0bits	set	157
  1660     009D                     _ADCON0	set	157
  1661     009C                     _ADRESH	set	156
  1662     009B                     _ADRESL	set	155
  1663     009E                     _ADCON1	set	158
  1664     0095                     _OPTION_REGbits	set	149
  1665     008D                     _TRISB	set	141
  1666     008C                     _TRISA	set	140
  1667     0091                     _PIE1bits	set	145
  1668     04D6                     _PLLR	set	1238
  1669     0116                     _BORCON	set	278
  1670     0117                     _FVRCONbits	set	279
  1671     0117                     _FVRCON	set	279
  1672     011E                     _APFCON1	set	286
  1673     011D                     _APFCON0	set	285
  1674     010D                     _LATB	set	269
  1675     010C                     _LATA	set	268
  1676     018C                     _ANSELA	set	396
  1677     018D                     _ANSELB	set	397
  1678     020C                     _WPUA	set	524
  1679     020D                     _WPUB	set	525
  1680     029E                     _CCPTMRS0bits	set	670
  1681     0298                     _CCPR2L	set	664
  1682     0299                     _CCPR2H	set	665
  1683     029D                     _PSTR2CON	set	669
  1684     029B                     _PWM2CON	set	667
  1685     029C                     _ECCP2AS	set	668
  1686     029A                     _CCP2CON	set	666
  1687                           
  1688                           	psect	cinit
  1689     001B                     start_initialization:	
  1690                           ; #config settings
  1691                           
  1692     001B                     __initialization:
  1693                           
  1694                           ; Clear objects allocated to COMMON
  1695     001B  01F0               	clrf	__pbssCOMMON& (0+127)
  1696     001C  01F1               	clrf	(__pbssCOMMON+1)& (0+127)
  1697     001D  01F2               	clrf	(__pbssCOMMON+2)& (0+127)
  1698     001E  01F3               	clrf	(__pbssCOMMON+3)& (0+127)
  1699     001F  01F4               	clrf	(__pbssCOMMON+4)& (0+127)
  1700     0020  01F5               	clrf	(__pbssCOMMON+5)& (0+127)
  1701                           
  1702                           ; Clear objects allocated to BANK0
  1703     0021  0020               	movlb	0	; select bank0
  1704     0022  01A0               	clrf	__pbssBANK0& (0+127)
  1705     0023  01A1               	clrf	(__pbssBANK0+1)& (0+127)
  1706     0024  01A2               	clrf	(__pbssBANK0+2)& (0+127)
  1707     0025  01A3               	clrf	(__pbssBANK0+3)& (0+127)
  1708     0026                     end_of_initialization:	
  1709                           ;End of C runtime variable initialization code
  1710                           
  1711     0026                     __end_of__initialization:
  1712     0026  107E               	bcf	int$flags,0	;clear compiler interrupt flag (level 1)
  1713     0027  0020               	movlb	0
  1714     0028  3180  288E         	ljmp	_main	;jump to C main() function
  1715                           
  1716                           	psect	bssCOMMON
  1717     0070                     __pbssCOMMON:
  1718     0070                     _pwm_dc:
  1719     0070                     	ds	2
  1720     0072                     _pwm_dc_reference:
  1721     0072                     	ds	2
  1722     0074                     _timer1ReloadVal:
  1723     0074                     	ds	2
  1724                           
  1725                           	psect	bssBANK0
  1726     0020                     __pbssBANK0:
  1727     0020                     _ADC_InterruptHandler:
  1728     0020                     	ds	2
  1729     0022                     _TMR1_InterruptHandler:
  1730     0022                     	ds	2
  1731                           
  1732                           	psect	cstackCOMMON
  1733     0076                     __pcstackCOMMON:
  1734     0076                     ?_TMR1_DefaultInterruptHandler:
  1735     0076                     ??_TMR1_DefaultInterruptHandler:	
  1736                           ; 1 bytes @ 0x0
  1737                           
  1738     0076                     ?_SYSTEM_Initialize:	
  1739                           ; 1 bytes @ 0x0
  1740                           
  1741     0076                     ?_OSCILLATOR_Initialize:	
  1742                           ; 1 bytes @ 0x0
  1743                           
  1744     0076                     ?_WDT_Initialize:	
  1745                           ; 1 bytes @ 0x0
  1746                           
  1747     0076                     ?_TMR1_Initialize:	
  1748                           ; 1 bytes @ 0x0
  1749                           
  1750     0076                     ?_TMR1_WriteTimer:	
  1751                           ; 1 bytes @ 0x0
  1752                           
  1753     0076                     ?_TMR1_ISR:	
  1754                           ; 1 bytes @ 0x0
  1755                           
  1756     0076                     ?_TMR2_Initialize:	
  1757                           ; 1 bytes @ 0x0
  1758                           
  1759     0076                     ?_PIN_MANAGER_Initialize:	
  1760                           ; 1 bytes @ 0x0
  1761                           
  1762     0076                     ?_ADC_Initialize:	
  1763                           ; 1 bytes @ 0x0
  1764                           
  1765     0076                     ?_FVR_Initialize:	
  1766                           ; 1 bytes @ 0x0
  1767                           
  1768     0076                     ?_EPWM2_Initialize:	
  1769                           ; 1 bytes @ 0x0
  1770                           
  1771     0076                     ?_EPWM2_LoadDutyValue:	
  1772                           ; 1 bytes @ 0x0
  1773                           
  1774     0076                     ?_INTERRUPT_InterruptManager:	
  1775                           ; 1 bytes @ 0x0
  1776                           
  1777     0076                     ?_pwm_acceleration:	
  1778                           ; 1 bytes @ 0x0
  1779                           
  1780     0076                     ?_main:	
  1781                           ; 1 bytes @ 0x0
  1782                           
  1783     0076                     TMR1_WriteTimer@timerVal:	
  1784                           ; 1 bytes @ 0x0
  1785                           
  1786     0076                     EPWM2_LoadDutyValue@dutyValue:	
  1787                           ; 2 bytes @ 0x0
  1788                           
  1789                           
  1790                           ; 2 bytes @ 0x0
  1791     0076                     	ds	2
  1792     0078                     ??_TMR1_WriteTimer:
  1793     0078                     ??_EPWM2_LoadDutyValue:	
  1794                           ; 1 bytes @ 0x2
  1795                           
  1796                           
  1797                           ; 1 bytes @ 0x2
  1798     0078                     	ds	2
  1799     007A                     ??_TMR1_SetInterruptHandler:
  1800     007A                     ??_SYSTEM_Initialize:	
  1801                           ; 1 bytes @ 0x4
  1802                           
  1803     007A                     ??_OSCILLATOR_Initialize:	
  1804                           ; 1 bytes @ 0x4
  1805                           
  1806     007A                     ??_WDT_Initialize:	
  1807                           ; 1 bytes @ 0x4
  1808                           
  1809     007A                     ??_TMR1_Initialize:	
  1810                           ; 1 bytes @ 0x4
  1811                           
  1812     007A                     ??_TMR1_ISR:	
  1813                           ; 1 bytes @ 0x4
  1814                           
  1815     007A                     ??_TMR2_Initialize:	
  1816                           ; 1 bytes @ 0x4
  1817                           
  1818     007A                     ??_PIN_MANAGER_Initialize:	
  1819                           ; 1 bytes @ 0x4
  1820                           
  1821     007A                     ??_ADC_Initialize:	
  1822                           ; 1 bytes @ 0x4
  1823                           
  1824     007A                     ??_FVR_Initialize:	
  1825                           ; 1 bytes @ 0x4
  1826                           
  1827     007A                     ??_EPWM2_Initialize:	
  1828                           ; 1 bytes @ 0x4
  1829                           
  1830     007A                     ??_INTERRUPT_InterruptManager:	
  1831                           ; 1 bytes @ 0x4
  1832                           
  1833     007A                     ??_pwm_acceleration:	
  1834                           ; 1 bytes @ 0x4
  1835                           
  1836     007A                     ??_main:	
  1837                           ; 1 bytes @ 0x4
  1838                           
  1839                           
  1840                           	psect	cstackBANK0
  1841     0024                     __pcstackBANK0:	
  1842                           ; 1 bytes @ 0x4
  1843                           
  1844     0024                     ?_TMR1_SetInterruptHandler:
  1845     0024                     ?_ADC_GetConversion:	
  1846                           ; 1 bytes @ 0x0
  1847                           
  1848     0024                     TMR1_SetInterruptHandler@InterruptHandler:	
  1849                           ; 2 bytes @ 0x0
  1850                           
  1851                           
  1852                           ; 2 bytes @ 0x0
  1853     0024                     	ds	2
  1854     0026                     ??_ADC_GetConversion:
  1855                           
  1856                           ; 1 bytes @ 0x2
  1857     0026                     	ds	1
  1858     0027                     ADC_GetConversion@channel:
  1859                           
  1860                           ; 1 bytes @ 0x3
  1861     0027                     	ds	1
  1862                           
  1863                           	psect	maintext
  1864     008E                     __pmaintext:	
  1865 ;;
  1866 ;;Main: autosize = 0, tempsize = 0, incstack = 0, save=0
  1867 ;;
  1868 ;; *************** function _main *****************
  1869 ;; Defined at:
  1870 ;;		line 70 in file "main.c"
  1871 ;; Parameters:    Size  Location     Type
  1872 ;;		None
  1873 ;; Auto vars:     Size  Location     Type
  1874 ;;		None
  1875 ;; Return value:  Size  Location     Type
  1876 ;;                  1    wreg      void 
  1877 ;; Registers used:
  1878 ;;		wreg, status,2, status,0, pclath, cstack
  1879 ;; Tracked objects:
  1880 ;;		On entry : B1F/0
  1881 ;;		On exit  : 0/0
  1882 ;;		Unchanged: 0/0
  1883 ;; Data sizes:     COMMON   BANK0   BANK1   BANK2   BANK3   BANK4
  1884 ;;      Params:         0       0       0       0       0       0
  1885 ;;      Locals:         0       0       0       0       0       0
  1886 ;;      Temps:          0       0       0       0       0       0
  1887 ;;      Totals:         0       0       0       0       0       0
  1888 ;;Total ram usage:        0 bytes
  1889 ;; Hardware stack levels required when called: 7
  1890 ;; This function calls:
  1891 ;;		_ADC_GetConversion
  1892 ;;		_SYSTEM_Initialize
  1893 ;;		_TMR1_SetInterruptHandler
  1894 ;; This function is called by:
  1895 ;;		Startup code after reset
  1896 ;; This function uses a non-reentrant model
  1897 ;;
  1898                           
  1899     008E                     _main:	
  1900                           ;psect for function _main
  1901                           
  1902     008E                     l1209:	
  1903                           ;incstack = 0
  1904                           ; Regs used in _main: [wreg+status,2+status,0+pclath+cstack]
  1905                           
  1906                           
  1907                           ;main.c: 73:     SYSTEM_Initialize();
  1908     008E  3180  20A7  3180   	fcall	_SYSTEM_Initialize
  1909     0091                     l1211:
  1910                           
  1911                           ;main.c: 79:     (INTCONbits.GIE = 1);
  1912     0091  178B               	bsf	11,7	;volatile
  1913     0092                     l1213:
  1914                           
  1915                           ;main.c: 82:     (INTCONbits.PEIE = 1);
  1916     0092  170B               	bsf	11,6	;volatile
  1917                           
  1918                           ;main.c: 84:     TMR1_SetInterruptHandler(pwm_acceleration);
  1919     0093  302A               	movlw	low _pwm_acceleration
  1920     0094  0020               	movlb	0	; select bank0
  1921     0095  00A4               	movwf	TMR1_SetInterruptHandler@InterruptHandler
  1922     0096  3000               	movlw	high _pwm_acceleration
  1923     0097  00A5               	movwf	TMR1_SetInterruptHandler@InterruptHandler+1
  1924     0098  3181  2159  3180   	fcall	_TMR1_SetInterruptHandler
  1925     009B                     l238:	
  1926                           ;main.c: 92:     while (1)
  1927                           
  1928                           
  1929                           ;main.c: 93:     {;main.c: 94:         pwm_dc_reference = ADC_GetConversion(channel_AN1)
      +                          ;
  1930     009B  3001               	movlw	1
  1931     009C  3180  206D  3180   	fcall	_ADC_GetConversion
  1932     009F  0020               	movlb	0	; select bank0
  1933     00A0  0825               	movf	?_ADC_GetConversion+1,w
  1934     00A1  00F3               	movwf	_pwm_dc_reference+1
  1935     00A2  0824               	movf	?_ADC_GetConversion,w
  1936     00A3  00F2               	movwf	_pwm_dc_reference
  1937     00A4  289B               	goto	l238
  1938     00A5  3180  2819         	ljmp	start
  1939     00A7                     __end_of_main:
  1940                           
  1941                           	psect	text1
  1942     00A7                     __ptext1:	
  1943 ;; *************** function _SYSTEM_Initialize *****************
  1944 ;; Defined at:
  1945 ;;		line 50 in file "mcc_generated_files/mcc.c"
  1946 ;; Parameters:    Size  Location     Type
  1947 ;;		None
  1948 ;; Auto vars:     Size  Location     Type
  1949 ;;		None
  1950 ;; Return value:  Size  Location     Type
  1951 ;;                  1    wreg      void 
  1952 ;; Registers used:
  1953 ;;		wreg, status,2, status,0, pclath, cstack
  1954 ;; Tracked objects:
  1955 ;;		On entry : 0/0
  1956 ;;		On exit  : 0/0
  1957 ;;		Unchanged: 0/0
  1958 ;; Data sizes:     COMMON   BANK0   BANK1   BANK2   BANK3   BANK4
  1959 ;;      Params:         0       0       0       0       0       0
  1960 ;;      Locals:         0       0       0       0       0       0
  1961 ;;      Temps:          0       0       0       0       0       0
  1962 ;;      Totals:         0       0       0       0       0       0
  1963 ;;Total ram usage:        0 bytes
  1964 ;; Hardware stack levels used: 1
  1965 ;; Hardware stack levels required when called: 6
  1966 ;; This function calls:
  1967 ;;		_ADC_Initialize
  1968 ;;		_EPWM2_Initialize
  1969 ;;		_FVR_Initialize
  1970 ;;		_OSCILLATOR_Initialize
  1971 ;;		_PIN_MANAGER_Initialize
  1972 ;;		_TMR1_Initialize
  1973 ;;		_TMR2_Initialize
  1974 ;;		_WDT_Initialize
  1975 ;; This function is called by:
  1976 ;;		_main
  1977 ;; This function uses a non-reentrant model
  1978 ;;
  1979                           
  1980     00A7                     _SYSTEM_Initialize:	
  1981                           ;psect for function _SYSTEM_Initialize
  1982                           
  1983     00A7                     l1207:	
  1984                           ;incstack = 0
  1985                           ; Regs used in _SYSTEM_Initialize: [wreg+status,2+status,0+pclath+cstack]
  1986                           
  1987                           
  1988                           ;mcc_generated_files/mcc.c: 53:     PIN_MANAGER_Initialize();
  1989     00A7  3180  20D9  3180   	fcall	_PIN_MANAGER_Initialize
  1990                           
  1991                           ;mcc_generated_files/mcc.c: 54:     OSCILLATOR_Initialize();
  1992     00AA  3181  213D  3180   	fcall	_OSCILLATOR_Initialize
  1993                           
  1994                           ;mcc_generated_files/mcc.c: 55:     WDT_Initialize();
  1995     00AD  3181  215F  3180   	fcall	_WDT_Initialize
  1996                           
  1997                           ;mcc_generated_files/mcc.c: 56:     FVR_Initialize();
  1998     00B0  3181  2163  3180   	fcall	_FVR_Initialize
  1999                           
  2000                           ;mcc_generated_files/mcc.c: 57:     EPWM2_Initialize();
  2001     00B3  3181  212F  3180   	fcall	_EPWM2_Initialize
  2002                           
  2003                           ;mcc_generated_files/mcc.c: 58:     ADC_Initialize();
  2004     00B6  3181  2151  3180   	fcall	_ADC_Initialize
  2005                           
  2006                           ;mcc_generated_files/mcc.c: 59:     TMR2_Initialize();
  2007     00B9  3181  2149  3180   	fcall	_TMR2_Initialize
  2008                           
  2009                           ;mcc_generated_files/mcc.c: 60:     TMR1_Initialize();
  2010     00BC  3180  20C0  3180   	fcall	_TMR1_Initialize
  2011     00BF                     l270:
  2012     00BF  0008               	return
  2013     00C0                     __end_of_SYSTEM_Initialize:
  2014                           
  2015                           	psect	text2
  2016     015F                     __ptext2:	
  2017 ;; *************** function _WDT_Initialize *****************
  2018 ;; Defined at:
  2019 ;;		line 77 in file "mcc_generated_files/mcc.c"
  2020 ;; Parameters:    Size  Location     Type
  2021 ;;		None
  2022 ;; Auto vars:     Size  Location     Type
  2023 ;;		None
  2024 ;; Return value:  Size  Location     Type
  2025 ;;                  1    wreg      void 
  2026 ;; Registers used:
  2027 ;;		wreg
  2028 ;; Tracked objects:
  2029 ;;		On entry : 0/0
  2030 ;;		On exit  : 0/0
  2031 ;;		Unchanged: 0/0
  2032 ;; Data sizes:     COMMON   BANK0   BANK1   BANK2   BANK3   BANK4
  2033 ;;      Params:         0       0       0       0       0       0
  2034 ;;      Locals:         0       0       0       0       0       0
  2035 ;;      Temps:          0       0       0       0       0       0
  2036 ;;      Totals:         0       0       0       0       0       0
  2037 ;;Total ram usage:        0 bytes
  2038 ;; Hardware stack levels used: 1
  2039 ;; Hardware stack levels required when called: 4
  2040 ;; This function calls:
  2041 ;;		Nothing
  2042 ;; This function is called by:
  2043 ;;		_SYSTEM_Initialize
  2044 ;; This function uses a non-reentrant model
  2045 ;;
  2046                           
  2047     015F                     _WDT_Initialize:	
  2048                           ;psect for function _WDT_Initialize
  2049                           
  2050     015F                     l993:	
  2051                           ;incstack = 0
  2052                           ; Regs used in _WDT_Initialize: [wreg]
  2053                           
  2054                           
  2055                           ;mcc_generated_files/mcc.c: 80:     WDTCON = 0x16;
  2056     015F  3016               	movlw	22
  2057     0160  0021               	movlb	1	; select bank1
  2058     0161  0097               	movwf	23	;volatile
  2059     0162                     l279:
  2060     0162  0008               	return
  2061     0163                     __end_of_WDT_Initialize:
  2062                           
  2063                           	psect	text3
  2064     0149                     __ptext3:	
  2065 ;; *************** function _TMR2_Initialize *****************
  2066 ;; Defined at:
  2067 ;;		line 62 in file "mcc_generated_files/tmr2.c"
  2068 ;; Parameters:    Size  Location     Type
  2069 ;;		None
  2070 ;; Auto vars:     Size  Location     Type
  2071 ;;		None
  2072 ;; Return value:  Size  Location     Type
  2073 ;;                  1    wreg      void 
  2074 ;; Registers used:
  2075 ;;		wreg, status,2
  2076 ;; Tracked objects:
  2077 ;;		On entry : 0/0
  2078 ;;		On exit  : 0/0
  2079 ;;		Unchanged: 0/0
  2080 ;; Data sizes:     COMMON   BANK0   BANK1   BANK2   BANK3   BANK4
  2081 ;;      Params:         0       0       0       0       0       0
  2082 ;;      Locals:         0       0       0       0       0       0
  2083 ;;      Temps:          0       0       0       0       0       0
  2084 ;;      Totals:         0       0       0       0       0       0
  2085 ;;Total ram usage:        0 bytes
  2086 ;; Hardware stack levels used: 1
  2087 ;; Hardware stack levels required when called: 4
  2088 ;; This function calls:
  2089 ;;		Nothing
  2090 ;; This function is called by:
  2091 ;;		_SYSTEM_Initialize
  2092 ;; This function uses a non-reentrant model
  2093 ;;
  2094                           
  2095     0149                     _TMR2_Initialize:	
  2096                           ;psect for function _TMR2_Initialize
  2097                           
  2098     0149                     l921:	
  2099                           ;incstack = 0
  2100                           ; Regs used in _TMR2_Initialize: [wreg+status,2]
  2101                           
  2102                           
  2103                           ;mcc_generated_files/tmr2.c: 67:     PR2 = 0xFF;
  2104     0149  30FF               	movlw	255
  2105     014A  0020               	movlb	0	; select bank0
  2106     014B  009B               	movwf	27	;volatile
  2107     014C                     l923:
  2108                           
  2109                           ;mcc_generated_files/tmr2.c: 70:     TMR2 = 0x00;
  2110     014C  019A               	clrf	26	;volatile
  2111     014D                     l925:
  2112                           
  2113                           ;mcc_generated_files/tmr2.c: 73:     PIR1bits.TMR2IF = 0;
  2114     014D  1091               	bcf	17,1	;volatile
  2115     014E                     l927:
  2116                           
  2117                           ;mcc_generated_files/tmr2.c: 76:     T2CON = 0x04;
  2118     014E  3004               	movlw	4
  2119     014F  009C               	movwf	28	;volatile
  2120     0150                     l73:
  2121     0150  0008               	return
  2122     0151                     __end_of_TMR2_Initialize:
  2123                           
  2124                           	psect	text4
  2125     00C0                     __ptext4:	
  2126 ;; *************** function _TMR1_Initialize *****************
  2127 ;; Defined at:
  2128 ;;		line 64 in file "mcc_generated_files/tmr1.c"
  2129 ;; Parameters:    Size  Location     Type
  2130 ;;		None
  2131 ;; Auto vars:     Size  Location     Type
  2132 ;;		None
  2133 ;; Return value:  Size  Location     Type
  2134 ;;                  1    wreg      void 
  2135 ;; Registers used:
  2136 ;;		wreg, status,2, status,0, pclath, cstack
  2137 ;; Tracked objects:
  2138 ;;		On entry : 0/0
  2139 ;;		On exit  : 0/0
  2140 ;;		Unchanged: 0/0
  2141 ;; Data sizes:     COMMON   BANK0   BANK1   BANK2   BANK3   BANK4
  2142 ;;      Params:         0       0       0       0       0       0
  2143 ;;      Locals:         0       0       0       0       0       0
  2144 ;;      Temps:          0       0       0       0       0       0
  2145 ;;      Totals:         0       0       0       0       0       0
  2146 ;;Total ram usage:        0 bytes
  2147 ;; Hardware stack levels used: 1
  2148 ;; Hardware stack levels required when called: 5
  2149 ;; This function calls:
  2150 ;;		_TMR1_SetInterruptHandler
  2151 ;; This function is called by:
  2152 ;;		_SYSTEM_Initialize
  2153 ;; This function uses a non-reentrant model
  2154 ;;
  2155                           
  2156     00C0                     _TMR1_Initialize:	
  2157                           ;psect for function _TMR1_Initialize
  2158                           
  2159     00C0                     l1179:	
  2160                           ;incstack = 0
  2161                           ; Regs used in _TMR1_Initialize: [wreg+status,2+status,0+pclath+cstack]
  2162                           
  2163                           
  2164                           ;mcc_generated_files/tmr1.c: 69:     T1GCON = 0x00;
  2165     00C0  0020               	movlb	0	; select bank0
  2166     00C1  0199               	clrf	25	;volatile
  2167     00C2                     l1181:
  2168                           
  2169                           ;mcc_generated_files/tmr1.c: 72:     TMR1H = 0x63;
  2170     00C2  3063               	movlw	99
  2171     00C3  0097               	movwf	23	;volatile
  2172     00C4                     l1183:
  2173                           
  2174                           ;mcc_generated_files/tmr1.c: 75:     TMR1L = 0xC0;
  2175     00C4  30C0               	movlw	192
  2176     00C5  0096               	movwf	22	;volatile
  2177     00C6                     l1185:
  2178                           
  2179                           ;mcc_generated_files/tmr1.c: 78:     PIR1bits.TMR1IF = 0;
  2180     00C6  1011               	bcf	17,0	;volatile
  2181     00C7                     l1187:
  2182                           
  2183                           ;mcc_generated_files/tmr1.c: 81:     timer1ReloadVal=(uint16_t)((TMR1H << 8) | TMR1L);
  2184     00C7  0817               	movf	23,w	;volatile
  2185     00C8  00F5               	movwf	_timer1ReloadVal+1	;volatile
  2186     00C9  0816               	movf	22,w	;volatile
  2187     00CA  00F4               	movwf	_timer1ReloadVal	;volatile
  2188     00CB                     l1189:
  2189                           
  2190                           ;mcc_generated_files/tmr1.c: 84:     PIE1bits.TMR1IE = 1;
  2191     00CB  0021               	movlb	1	; select bank1
  2192     00CC  1411               	bsf	17,0	;volatile
  2193     00CD                     l1191:
  2194                           
  2195                           ;mcc_generated_files/tmr1.c: 87:     TMR1_SetInterruptHandler(TMR1_DefaultInterruptHandl
      +                          er);
  2196     00CD  3067               	movlw	low _TMR1_DefaultInterruptHandler
  2197     00CE  0020               	movlb	0	; select bank0
  2198     00CF  00A4               	movwf	TMR1_SetInterruptHandler@InterruptHandler
  2199     00D0  3001               	movlw	high _TMR1_DefaultInterruptHandler
  2200     00D1  00A5               	movwf	TMR1_SetInterruptHandler@InterruptHandler+1
  2201     00D2  3181  2159  3180   	fcall	_TMR1_SetInterruptHandler
  2202     00D5                     l1193:
  2203                           
  2204                           ;mcc_generated_files/tmr1.c: 90:     T1CON = 0x31;
  2205     00D5  3031               	movlw	49
  2206     00D6  0020               	movlb	0	; select bank0
  2207     00D7  0098               	movwf	24	;volatile
  2208     00D8                     l27:
  2209     00D8  0008               	return
  2210     00D9                     __end_of_TMR1_Initialize:
  2211                           
  2212                           	psect	text5
  2213     0159                     __ptext5:	
  2214 ;; *************** function _TMR1_SetInterruptHandler *****************
  2215 ;; Defined at:
  2216 ;;		line 171 in file "mcc_generated_files/tmr1.c"
  2217 ;; Parameters:    Size  Location     Type
  2218 ;;  InterruptHan    2    0[BANK0 ] PTR FTN()void 
  2219 ;;		 -> pwm_acceleration(1), TMR1_DefaultInterruptHandler(1), 
  2220 ;; Auto vars:     Size  Location     Type
  2221 ;;		None
  2222 ;; Return value:  Size  Location     Type
  2223 ;;                  1    wreg      void 
  2224 ;; Registers used:
  2225 ;;		wreg
  2226 ;; Tracked objects:
  2227 ;;		On entry : 0/0
  2228 ;;		On exit  : 0/0
  2229 ;;		Unchanged: 0/0
  2230 ;; Data sizes:     COMMON   BANK0   BANK1   BANK2   BANK3   BANK4
  2231 ;;      Params:         0       2       0       0       0       0
  2232 ;;      Locals:         0       0       0       0       0       0
  2233 ;;      Temps:          0       0       0       0       0       0
  2234 ;;      Totals:         0       2       0       0       0       0
  2235 ;;Total ram usage:        2 bytes
  2236 ;; Hardware stack levels used: 1
  2237 ;; Hardware stack levels required when called: 4
  2238 ;; This function calls:
  2239 ;;		Nothing
  2240 ;; This function is called by:
  2241 ;;		_TMR1_Initialize
  2242 ;;		_main
  2243 ;; This function uses a non-reentrant model
  2244 ;;
  2245                           
  2246     0159                     _TMR1_SetInterruptHandler:	
  2247                           ;psect for function _TMR1_SetInterruptHandler
  2248                           
  2249     0159                     l1177:	
  2250                           ;incstack = 0
  2251                           ; Regs used in _TMR1_SetInterruptHandler: [wreg]
  2252                           
  2253                           
  2254                           ;mcc_generated_files/tmr1.c: 172:     TMR1_InterruptHandler = InterruptHandler;
  2255     0159  0020               	movlb	0	; select bank0
  2256     015A  0825               	movf	TMR1_SetInterruptHandler@InterruptHandler+1,w
  2257     015B  00A3               	movwf	_TMR1_InterruptHandler+1
  2258     015C  0824               	movf	TMR1_SetInterruptHandler@InterruptHandler,w
  2259     015D  00A2               	movwf	_TMR1_InterruptHandler
  2260     015E                     l57:
  2261     015E  0008               	return
  2262     015F                     __end_of_TMR1_SetInterruptHandler:
  2263                           
  2264                           	psect	text6
  2265     00D9                     __ptext6:	
  2266 ;; *************** function _PIN_MANAGER_Initialize *****************
  2267 ;; Defined at:
  2268 ;;		line 55 in file "mcc_generated_files/pin_manager.c"
  2269 ;; Parameters:    Size  Location     Type
  2270 ;;		None
  2271 ;; Auto vars:     Size  Location     Type
  2272 ;;		None
  2273 ;; Return value:  Size  Location     Type
  2274 ;;                  1    wreg      void 
  2275 ;; Registers used:
  2276 ;;		wreg, status,2
  2277 ;; Tracked objects:
  2278 ;;		On entry : 0/0
  2279 ;;		On exit  : 0/0
  2280 ;;		Unchanged: 0/0
  2281 ;; Data sizes:     COMMON   BANK0   BANK1   BANK2   BANK3   BANK4
  2282 ;;      Params:         0       0       0       0       0       0
  2283 ;;      Locals:         0       0       0       0       0       0
  2284 ;;      Temps:          0       0       0       0       0       0
  2285 ;;      Totals:         0       0       0       0       0       0
  2286 ;;Total ram usage:        0 bytes
  2287 ;; Hardware stack levels used: 1
  2288 ;; Hardware stack levels required when called: 4
  2289 ;; This function calls:
  2290 ;;		Nothing
  2291 ;; This function is called by:
  2292 ;;		_SYSTEM_Initialize
  2293 ;; This function uses a non-reentrant model
  2294 ;;
  2295                           
  2296     00D9                     _PIN_MANAGER_Initialize:	
  2297                           ;psect for function _PIN_MANAGER_Initialize
  2298                           
  2299     00D9                     l929:	
  2300                           ;incstack = 0
  2301                           ; Regs used in _PIN_MANAGER_Initialize: [wreg+status,2]
  2302                           
  2303                           
  2304                           ;mcc_generated_files/pin_manager.c: 60:     LATA = 0x00;
  2305     00D9  0022               	movlb	2	; select bank2
  2306     00DA  018C               	clrf	12	;volatile
  2307                           
  2308                           ;mcc_generated_files/pin_manager.c: 61:     LATB = 0x00;
  2309     00DB  018D               	clrf	13	;volatile
  2310     00DC                     l931:
  2311                           
  2312                           ;mcc_generated_files/pin_manager.c: 66:     TRISA = 0x77;
  2313     00DC  3077               	movlw	119
  2314     00DD  0021               	movlb	1	; select bank1
  2315     00DE  008C               	movwf	12	;volatile
  2316     00DF                     l933:
  2317                           
  2318                           ;mcc_generated_files/pin_manager.c: 67:     TRISB = 0xFF;
  2319     00DF  30FF               	movlw	255
  2320     00E0  008D               	movwf	13	;volatile
  2321     00E1                     l935:
  2322                           
  2323                           ;mcc_generated_files/pin_manager.c: 72:     ANSELB = 0xFE;
  2324     00E1  30FE               	movlw	254
  2325     00E2  0023               	movlb	3	; select bank3
  2326     00E3  008D               	movwf	13	;volatile
  2327     00E4                     l937:
  2328                           
  2329                           ;mcc_generated_files/pin_manager.c: 73:     ANSELA = 0x17;
  2330     00E4  3017               	movlw	23
  2331     00E5  008C               	movwf	12	;volatile
  2332     00E6                     l939:
  2333                           
  2334                           ;mcc_generated_files/pin_manager.c: 78:     WPUB = 0x01;
  2335     00E6  3001               	movlw	1
  2336     00E7  0024               	movlb	4	; select bank4
  2337     00E8  008D               	movwf	13	;volatile
  2338     00E9                     l941:
  2339                           
  2340                           ;mcc_generated_files/pin_manager.c: 79:     WPUA = 0x00;
  2341     00E9  018C               	clrf	12	;volatile
  2342     00EA                     l943:
  2343                           
  2344                           ;mcc_generated_files/pin_manager.c: 80:     OPTION_REGbits.nWPUEN = 0;
  2345     00EA  0021               	movlb	1	; select bank1
  2346     00EB  1395               	bcf	21,7	;volatile
  2347                           
  2348                           ;mcc_generated_files/pin_manager.c: 86:     APFCON0 = 0x08;
  2349     00EC  3008               	movlw	8
  2350     00ED  0022               	movlb	2	; select bank2
  2351     00EE  009D               	movwf	29	;volatile
  2352     00EF                     l945:
  2353                           
  2354                           ;mcc_generated_files/pin_manager.c: 87:     APFCON1 = 0x00;
  2355     00EF  019E               	clrf	30	;volatile
  2356     00F0                     l117:
  2357     00F0  0008               	return
  2358     00F1                     __end_of_PIN_MANAGER_Initialize:
  2359                           
  2360                           	psect	text7
  2361     013D                     __ptext7:	
  2362 ;; *************** function _OSCILLATOR_Initialize *****************
  2363 ;; Defined at:
  2364 ;;		line 63 in file "mcc_generated_files/mcc.c"
  2365 ;; Parameters:    Size  Location     Type
  2366 ;;		None
  2367 ;; Auto vars:     Size  Location     Type
  2368 ;;		None
  2369 ;; Return value:  Size  Location     Type
  2370 ;;                  1    wreg      void 
  2371 ;; Registers used:
  2372 ;;		wreg, status,2
  2373 ;; Tracked objects:
  2374 ;;		On entry : 0/0
  2375 ;;		On exit  : 0/0
  2376 ;;		Unchanged: 0/0
  2377 ;; Data sizes:     COMMON   BANK0   BANK1   BANK2   BANK3   BANK4
  2378 ;;      Params:         0       0       0       0       0       0
  2379 ;;      Locals:         0       0       0       0       0       0
  2380 ;;      Temps:          0       0       0       0       0       0
  2381 ;;      Totals:         0       0       0       0       0       0
  2382 ;;Total ram usage:        0 bytes
  2383 ;; Hardware stack levels used: 1
  2384 ;; Hardware stack levels required when called: 4
  2385 ;; This function calls:
  2386 ;;		Nothing
  2387 ;; This function is called by:
  2388 ;;		_SYSTEM_Initialize
  2389 ;; This function uses a non-reentrant model
  2390 ;;
  2391                           
  2392     013D                     _OSCILLATOR_Initialize:	
  2393                           ;psect for function _OSCILLATOR_Initialize
  2394                           
  2395     013D                     l987:	
  2396                           ;incstack = 0
  2397                           ; Regs used in _OSCILLATOR_Initialize: [wreg+status,2]
  2398                           
  2399                           
  2400                           ;mcc_generated_files/mcc.c: 66:     OSCCON = 0x70;
  2401     013D  3070               	movlw	112
  2402     013E  0021               	movlb	1	; select bank1
  2403     013F  0099               	movwf	25	;volatile
  2404     0140                     l989:
  2405                           
  2406                           ;mcc_generated_files/mcc.c: 68:     OSCTUNE = 0x00;
  2407     0140  0198               	clrf	24	;volatile
  2408     0141                     l991:
  2409                           
  2410                           ;mcc_generated_files/mcc.c: 70:     BORCON = 0x00;
  2411     0141  0022               	movlb	2	; select bank2
  2412     0142  0196               	clrf	22	;volatile
  2413     0143                     l273:	
  2414                           ;mcc_generated_files/mcc.c: 73:     {;mcc_generated_files/mcc.c: 74:     }
  2415                           
  2416                           
  2417                           ;mcc_generated_files/mcc.c: 72:     while(PLLR == 0)
  2418     0143  0021               	movlb	1	; select bank1
  2419     0144  1F1A               	btfss	26,6	;volatile
  2420     0145  2947               	goto	u71
  2421     0146  2948               	goto	u70
  2422     0147                     u71:
  2423     0147  2943               	goto	l273
  2424     0148                     u70:
  2425     0148                     l276:
  2426     0148  0008               	return
  2427     0149                     __end_of_OSCILLATOR_Initialize:
  2428                           
  2429                           	psect	text8
  2430     0163                     __ptext8:	
  2431 ;; *************** function _FVR_Initialize *****************
  2432 ;; Defined at:
  2433 ;;		line 58 in file "mcc_generated_files/fvr.c"
  2434 ;; Parameters:    Size  Location     Type
  2435 ;;		None
  2436 ;; Auto vars:     Size  Location     Type
  2437 ;;		None
  2438 ;; Return value:  Size  Location     Type
  2439 ;;                  1    wreg      void 
  2440 ;; Registers used:
  2441 ;;		wreg
  2442 ;; Tracked objects:
  2443 ;;		On entry : 0/0
  2444 ;;		On exit  : 0/0
  2445 ;;		Unchanged: 0/0
  2446 ;; Data sizes:     COMMON   BANK0   BANK1   BANK2   BANK3   BANK4
  2447 ;;      Params:         0       0       0       0       0       0
  2448 ;;      Locals:         0       0       0       0       0       0
  2449 ;;      Temps:          0       0       0       0       0       0
  2450 ;;      Totals:         0       0       0       0       0       0
  2451 ;;Total ram usage:        0 bytes
  2452 ;; Hardware stack levels used: 1
  2453 ;; Hardware stack levels required when called: 4
  2454 ;; This function calls:
  2455 ;;		Nothing
  2456 ;; This function is called by:
  2457 ;;		_SYSTEM_Initialize
  2458 ;; This function uses a non-reentrant model
  2459 ;;
  2460                           
  2461     0163                     _FVR_Initialize:	
  2462                           ;psect for function _FVR_Initialize
  2463                           
  2464     0163                     l953:	
  2465                           ;incstack = 0
  2466                           ; Regs used in _FVR_Initialize: [wreg]
  2467                           
  2468                           
  2469                           ;mcc_generated_files/fvr.c: 61:     FVRCON = 0x82;
  2470     0163  3082               	movlw	130
  2471     0164  0022               	movlb	2	; select bank2
  2472     0165  0097               	movwf	23	;volatile
  2473     0166                     l165:
  2474     0166  0008               	return
  2475     0167                     __end_of_FVR_Initialize:
  2476                           
  2477                           	psect	text9
  2478     012F                     __ptext9:	
  2479 ;; *************** function _EPWM2_Initialize *****************
  2480 ;; Defined at:
  2481 ;;		line 64 in file "mcc_generated_files/epwm2.c"
  2482 ;; Parameters:    Size  Location     Type
  2483 ;;		None
  2484 ;; Auto vars:     Size  Location     Type
  2485 ;;		None
  2486 ;; Return value:  Size  Location     Type
  2487 ;;                  1    wreg      void 
  2488 ;; Registers used:
  2489 ;;		wreg, status,2, status,0
  2490 ;; Tracked objects:
  2491 ;;		On entry : 0/0
  2492 ;;		On exit  : 0/0
  2493 ;;		Unchanged: 0/0
  2494 ;; Data sizes:     COMMON   BANK0   BANK1   BANK2   BANK3   BANK4
  2495 ;;      Params:         0       0       0       0       0       0
  2496 ;;      Locals:         0       0       0       0       0       0
  2497 ;;      Temps:          0       0       0       0       0       0
  2498 ;;      Totals:         0       0       0       0       0       0
  2499 ;;Total ram usage:        0 bytes
  2500 ;; Hardware stack levels used: 1
  2501 ;; Hardware stack levels required when called: 4
  2502 ;; This function calls:
  2503 ;;		Nothing
  2504 ;; This function is called by:
  2505 ;;		_SYSTEM_Initialize
  2506 ;; This function uses a non-reentrant model
  2507 ;;
  2508                           
  2509     012F                     _EPWM2_Initialize:	
  2510                           ;psect for function _EPWM2_Initialize
  2511                           
  2512     012F                     l955:	
  2513                           ;incstack = 0
  2514                           ; Regs used in _EPWM2_Initialize: [wreg+status,2+status,0]
  2515                           
  2516                           
  2517                           ;mcc_generated_files/epwm2.c: 69:  CCP2CON = 0x3C;
  2518     012F  303C               	movlw	60
  2519     0130  0025               	movlb	5	; select bank5
  2520     0131  009A               	movwf	26	;volatile
  2521     0132                     l957:
  2522                           
  2523                           ;mcc_generated_files/epwm2.c: 72:  ECCP2AS = 0x00;
  2524     0132  019C               	clrf	28	;volatile
  2525     0133                     l959:
  2526                           
  2527                           ;mcc_generated_files/epwm2.c: 75:  PWM2CON = 0x80;
  2528     0133  3080               	movlw	128
  2529     0134  009B               	movwf	27	;volatile
  2530     0135                     l961:
  2531                           
  2532                           ;mcc_generated_files/epwm2.c: 78:  PSTR2CON = 0x01;
  2533     0135  3001               	movlw	1
  2534     0136  009D               	movwf	29	;volatile
  2535     0137                     l963:
  2536                           
  2537                           ;mcc_generated_files/epwm2.c: 81:  CCPR2H = 0x00;
  2538     0137  0199               	clrf	25	;volatile
  2539                           
  2540                           ;mcc_generated_files/epwm2.c: 84:  CCPR2L = 0x7F;
  2541     0138  307F               	movlw	127
  2542     0139  0098               	movwf	24	;volatile
  2543     013A                     l965:
  2544                           
  2545                           ;mcc_generated_files/epwm2.c: 87:  CCPTMRS0bits.C2TSEL = 0x0;
  2546     013A  30F3               	movlw	-13
  2547     013B  059E               	andwf	30,f	;volatile
  2548     013C                     l185:
  2549     013C  0008               	return
  2550     013D                     __end_of_EPWM2_Initialize:
  2551                           
  2552                           	psect	text10
  2553     0151                     __ptext10:	
  2554 ;; *************** function _ADC_Initialize *****************
  2555 ;; Defined at:
  2556 ;;		line 67 in file "mcc_generated_files/adc.c"
  2557 ;; Parameters:    Size  Location     Type
  2558 ;;		None
  2559 ;; Auto vars:     Size  Location     Type
  2560 ;;		None
  2561 ;; Return value:  Size  Location     Type
  2562 ;;                  1    wreg      void 
  2563 ;; Registers used:
  2564 ;;		wreg, status,2
  2565 ;; Tracked objects:
  2566 ;;		On entry : 0/0
  2567 ;;		On exit  : 0/0
  2568 ;;		Unchanged: 0/0
  2569 ;; Data sizes:     COMMON   BANK0   BANK1   BANK2   BANK3   BANK4
  2570 ;;      Params:         0       0       0       0       0       0
  2571 ;;      Locals:         0       0       0       0       0       0
  2572 ;;      Temps:          0       0       0       0       0       0
  2573 ;;      Totals:         0       0       0       0       0       0
  2574 ;;Total ram usage:        0 bytes
  2575 ;; Hardware stack levels used: 1
  2576 ;; Hardware stack levels required when called: 4
  2577 ;; This function calls:
  2578 ;;		Nothing
  2579 ;; This function is called by:
  2580 ;;		_SYSTEM_Initialize
  2581 ;; This function uses a non-reentrant model
  2582 ;;
  2583                           
  2584     0151                     _ADC_Initialize:	
  2585                           ;psect for function _ADC_Initialize
  2586                           
  2587     0151                     l947:	
  2588                           ;incstack = 0
  2589                           ; Regs used in _ADC_Initialize: [wreg+status,2]
  2590                           
  2591                           
  2592                           ;mcc_generated_files/adc.c: 72:     ADCON1 = 0xA3;
  2593     0151  30A3               	movlw	163
  2594     0152  0021               	movlb	1	; select bank1
  2595     0153  009E               	movwf	30	;volatile
  2596     0154                     l949:
  2597                           
  2598                           ;mcc_generated_files/adc.c: 75:     ADRESL = 0x00;
  2599     0154  019B               	clrf	27	;volatile
  2600     0155                     l951:
  2601                           
  2602                           ;mcc_generated_files/adc.c: 78:     ADRESH = 0x00;
  2603     0155  019C               	clrf	28	;volatile
  2604                           
  2605                           ;mcc_generated_files/adc.c: 81:     ADCON0 = 0x05;
  2606     0156  3005               	movlw	5
  2607     0157  009D               	movwf	29	;volatile
  2608     0158                     l137:
  2609     0158  0008               	return
  2610     0159                     __end_of_ADC_Initialize:
  2611                           
  2612                           	psect	text11
  2613     006D                     __ptext11:	
  2614 ;; *************** function _ADC_GetConversion *****************
  2615 ;; Defined at:
  2616 ;;		line 112 in file "mcc_generated_files/adc.c"
  2617 ;; Parameters:    Size  Location     Type
  2618 ;;  channel         1    wreg     enum E2495
  2619 ;; Auto vars:     Size  Location     Type
  2620 ;;  channel         1    3[BANK0 ] enum E2495
  2621 ;; Return value:  Size  Location     Type
  2622 ;;                  2    0[BANK0 ] unsigned short 
  2623 ;; Registers used:
  2624 ;;		wreg, status,2, status,0
  2625 ;; Tracked objects:
  2626 ;;		On entry : 0/0
  2627 ;;		On exit  : 0/0
  2628 ;;		Unchanged: 0/0
  2629 ;; Data sizes:     COMMON   BANK0   BANK1   BANK2   BANK3   BANK4
  2630 ;;      Params:         0       2       0       0       0       0
  2631 ;;      Locals:         0       1       0       0       0       0
  2632 ;;      Temps:          0       1       0       0       0       0
  2633 ;;      Totals:         0       4       0       0       0       0
  2634 ;;Total ram usage:        4 bytes
  2635 ;; Hardware stack levels used: 1
  2636 ;; Hardware stack levels required when called: 4
  2637 ;; This function calls:
  2638 ;;		Nothing
  2639 ;; This function is called by:
  2640 ;;		_main
  2641 ;; This function uses a non-reentrant model
  2642 ;;
  2643                           
  2644     006D                     _ADC_GetConversion:	
  2645                           ;psect for function _ADC_GetConversion
  2646                           
  2647                           
  2648                           ;incstack = 0
  2649                           ; Regs used in _ADC_GetConversion: [wreg+status,2+status,0]
  2650                           ;ADC_GetConversion@channel stored from wreg
  2651     006D  0020               	movlb	0	; select bank0
  2652     006E  00A7               	movwf	ADC_GetConversion@channel
  2653     006F                     l1195:
  2654                           
  2655                           ;mcc_generated_files/adc.c: 112: adc_result_t ADC_GetConversion(adc_channel_t channel);m
      +                          cc_generated_files/adc.c: 113: {;mcc_generated_files/adc.c: 115:     ADCON0bits.CHS = ch
      +                          annel;
  2656     006F  0827               	movf	ADC_GetConversion@channel,w
  2657     0070  00A6               	movwf	??_ADC_GetConversion
  2658     0071  0DA6               	rlf	??_ADC_GetConversion,f
  2659     0072  0DA6               	rlf	??_ADC_GetConversion,f
  2660     0073  0021               	movlb	1	; select bank1
  2661     0074  081D               	movf	29,w	;volatile
  2662     0075  0020               	movlb	0	; select bank0
  2663     0076  0626               	xorwf	??_ADC_GetConversion,w
  2664     0077  3983               	andlw	-125
  2665     0078  0626               	xorwf	??_ADC_GetConversion,w
  2666     0079  0021               	movlb	1	; select bank1
  2667     007A  009D               	movwf	29	;volatile
  2668     007B                     l1197:
  2669                           
  2670                           ;mcc_generated_files/adc.c: 118:     ADCON0bits.ADON = 1;
  2671     007B  141D               	bsf	29,0	;volatile
  2672     007C                     l1199:
  2673                           
  2674                           ;mcc_generated_files/adc.c: 121:     _delay((unsigned long)((5)*(32000000/4000000.0)));
  2675     007C  300D               	movlw	13
  2676     007D                     u267:
  2677     007D  0B89               	decfsz	9,f
  2678     007E  287D               	goto	u267
  2679     007F  0000               	nop
  2680     0080                     l1201:
  2681                           
  2682                           ;mcc_generated_files/adc.c: 124:     ADCON0bits.GO_nDONE = 1;
  2683     0080  0021               	movlb	1	; select bank1
  2684     0081  149D               	bsf	29,1	;volatile
  2685     0082                     l152:	
  2686                           ;mcc_generated_files/adc.c: 128:     {;mcc_generated_files/adc.c: 129:     }
  2687                           
  2688                           
  2689                           ;mcc_generated_files/adc.c: 127:     while (ADCON0bits.GO_nDONE)
  2690     0082  189D               	btfsc	29,1	;volatile
  2691     0083  2885               	goto	u251
  2692     0084  2886               	goto	u250
  2693     0085                     u251:
  2694     0085  2882               	goto	l152
  2695     0086                     u250:
  2696     0086                     l1203:
  2697                           
  2698                           ;mcc_generated_files/adc.c: 132:     return ((adc_result_t)((ADRESH << 8) + ADRESL));
  2699     0086  081C               	movf	28,w	;volatile
  2700     0087  0020               	movlb	0	; select bank0
  2701     0088  00A5               	movwf	?_ADC_GetConversion+1
  2702     0089  0021               	movlb	1	; select bank1
  2703     008A  081B               	movf	27,w	;volatile
  2704     008B  0020               	movlb	0	; select bank0
  2705     008C  00A4               	movwf	?_ADC_GetConversion
  2706     008D                     l155:
  2707     008D  0008               	return
  2708     008E                     __end_of_ADC_GetConversion:
  2709                           
  2710                           	psect	intentry
  2711     0004                     __pintentry:	
  2712 ;; *************** function _INTERRUPT_InterruptManager *****************
  2713 ;; Defined at:
  2714 ;;		line 52 in file "mcc_generated_files/interrupt_manager.c"
  2715 ;; Parameters:    Size  Location     Type
  2716 ;;		None
  2717 ;; Auto vars:     Size  Location     Type
  2718 ;;		None
  2719 ;; Return value:  Size  Location     Type
  2720 ;;                  1    wreg      void 
  2721 ;; Registers used:
  2722 ;;		wreg, status,2, status,0, pclath, cstack
  2723 ;; Tracked objects:
  2724 ;;		On entry : 0/0
  2725 ;;		On exit  : 0/0
  2726 ;;		Unchanged: 0/0
  2727 ;; Data sizes:     COMMON   BANK0   BANK1   BANK2   BANK3   BANK4
  2728 ;;      Params:         0       0       0       0       0       0
  2729 ;;      Locals:         0       0       0       0       0       0
  2730 ;;      Temps:          0       0       0       0       0       0
  2731 ;;      Totals:         0       0       0       0       0       0
  2732 ;;Total ram usage:        0 bytes
  2733 ;; Hardware stack levels used: 1
  2734 ;; Hardware stack levels required when called: 3
  2735 ;; This function calls:
  2736 ;;		_TMR1_ISR
  2737 ;; This function is called by:
  2738 ;;		Interrupt level 1
  2739 ;; This function uses a non-reentrant model
  2740 ;;
  2741                           
  2742     0004                     _INTERRUPT_InterruptManager:
  2743                           
  2744                           ;incstack = 0
  2745     0004  147E               	bsf	int$flags,0	;set compiler interrupt flag (level 1)
  2746                           
  2747                           ; Regs used in _INTERRUPT_InterruptManager: [wreg+status,2+status,0+pclath+cstack]
  2748     0005  3180               	pagesel	$
  2749     0006                     i1l1163:
  2750                           
  2751                           ;mcc_generated_files/interrupt_manager.c: 55:     if(INTCONbits.PEIE == 1)
  2752     0006  1F0B               	btfss	11,6	;volatile
  2753     0007  2809               	goto	u22_21
  2754     0008  280A               	goto	u22_20
  2755     0009                     u22_21:
  2756     0009  2817               	goto	i1l205
  2757     000A                     u22_20:
  2758     000A                     i1l1165:
  2759                           
  2760                           ;mcc_generated_files/interrupt_manager.c: 56:     {;mcc_generated_files/interrupt_manage
      +                          r.c: 57:         if(PIE1bits.TMR1IE == 1 && PIR1bits.TMR1IF == 1)
  2761     000A  0021               	movlb	1	; select bank1
  2762     000B  1C11               	btfss	17,0	;volatile
  2763     000C  280E               	goto	u23_21
  2764     000D  280F               	goto	u23_20
  2765     000E                     u23_21:
  2766     000E  2817               	goto	i1l205
  2767     000F                     u23_20:
  2768     000F                     i1l1167:
  2769     000F  0020               	movlb	0	; select bank0
  2770     0010  1C11               	btfss	17,0	;volatile
  2771     0011  2813               	goto	u24_21
  2772     0012  2814               	goto	u24_20
  2773     0013                     u24_21:
  2774     0013  2817               	goto	i1l205
  2775     0014                     u24_20:
  2776     0014                     i1l1169:
  2777                           
  2778                           ;mcc_generated_files/interrupt_manager.c: 58:         {;mcc_generated_files/interrupt_ma
      +                          nager.c: 59:             TMR1_ISR();
  2779     0014  3181  2108  3180   	fcall	_TMR1_ISR
  2780     0017                     i1l205:	
  2781                           ;mcc_generated_files/interrupt_manager.c: 60:         }
  2782                           
  2783     0017  107E               	bcf	int$flags,0	;clear compiler interrupt flag (level 1)
  2784     0018  0009               	retfie
  2785     0019                     __end_of_INTERRUPT_InterruptManager:
  2786                           
  2787                           	psect	text13
  2788     0108                     __ptext13:	
  2789 ;; *************** function _TMR1_ISR *****************
  2790 ;; Defined at:
  2791 ;;		line 157 in file "mcc_generated_files/tmr1.c"
  2792 ;; Parameters:    Size  Location     Type
  2793 ;;		None
  2794 ;; Auto vars:     Size  Location     Type
  2795 ;;		None
  2796 ;; Return value:  Size  Location     Type
  2797 ;;                  1    wreg      void 
  2798 ;; Registers used:
  2799 ;;		wreg, status,2, status,0, pclath, cstack
  2800 ;; Tracked objects:
  2801 ;;		On entry : 0/0
  2802 ;;		On exit  : 0/0
  2803 ;;		Unchanged: 0/0
  2804 ;; Data sizes:     COMMON   BANK0   BANK1   BANK2   BANK3   BANK4
  2805 ;;      Params:         0       0       0       0       0       0
  2806 ;;      Locals:         0       0       0       0       0       0
  2807 ;;      Temps:          0       0       0       0       0       0
  2808 ;;      Totals:         0       0       0       0       0       0
  2809 ;;Total ram usage:        0 bytes
  2810 ;; Hardware stack levels used: 1
  2811 ;; Hardware stack levels required when called: 2
  2812 ;; This function calls:
  2813 ;;		NULL
  2814 ;;		_TMR1_DefaultInterruptHandler
  2815 ;;		_TMR1_WriteTimer
  2816 ;;		_pwm_acceleration
  2817 ;; This function is called by:
  2818 ;;		_INTERRUPT_InterruptManager
  2819 ;; This function uses a non-reentrant model
  2820 ;;
  2821                           
  2822     0108                     _TMR1_ISR:	
  2823                           ;psect for function _TMR1_ISR
  2824                           
  2825     0108                     i1l1139:	
  2826                           ;incstack = 0
  2827                           ; Regs used in _TMR1_ISR: [wreg+status,2+status,0+pclath+cstack]
  2828                           
  2829                           
  2830                           ;mcc_generated_files/tmr1.c: 161:     PIR1bits.TMR1IF = 0;
  2831     0108  0020               	movlb	0	; select bank0
  2832     0109  1011               	bcf	17,0	;volatile
  2833     010A                     i1l1141:
  2834                           
  2835                           ;mcc_generated_files/tmr1.c: 162:     TMR1_WriteTimer(timer1ReloadVal);
  2836     010A  0875               	movf	_timer1ReloadVal+1,w	;volatile
  2837     010B  00F7               	movwf	TMR1_WriteTimer@timerVal+1
  2838     010C  0874               	movf	_timer1ReloadVal,w	;volatile
  2839     010D  00F6               	movwf	TMR1_WriteTimer@timerVal
  2840     010E  3181  211E  3181   	fcall	_TMR1_WriteTimer
  2841     0111                     i1l1143:
  2842                           
  2843                           ;mcc_generated_files/tmr1.c: 164:     if(TMR1_InterruptHandler)
  2844     0111  0020               	movlb	0	; select bank0
  2845     0112  0822               	movf	_TMR1_InterruptHandler,w
  2846     0113  0423               	iorwf	_TMR1_InterruptHandler+1,w
  2847     0114  1903               	btfsc	3,2
  2848     0115  2917               	goto	u20_21
  2849     0116  2918               	goto	u20_20
  2850     0117                     u20_21:
  2851     0117  291D               	goto	i1l54
  2852     0118                     u20_20:
  2853     0118                     i1l1145:
  2854                           
  2855                           ;mcc_generated_files/tmr1.c: 165:     {;mcc_generated_files/tmr1.c: 166:         TMR1_In
      +                          terruptHandler();
  2856     0118  0823               	movf	_TMR1_InterruptHandler+1,w
  2857     0119  008A               	movwf	10
  2858     011A  0822               	movf	_TMR1_InterruptHandler,w
  2859     011B  000A               	callw
  2860     011C  3181               	pagesel	$
  2861     011D                     i1l54:
  2862     011D  0008               	return
  2863     011E                     __end_of_TMR1_ISR:
  2864                           
  2865                           	psect	text14
  2866     0167                     __ptext14:	
  2867 ;; *************** function _TMR1_DefaultInterruptHandler *****************
  2868 ;; Defined at:
  2869 ;;		line 175 in file "mcc_generated_files/tmr1.c"
  2870 ;; Parameters:    Size  Location     Type
  2871 ;;		None
  2872 ;; Auto vars:     Size  Location     Type
  2873 ;;		None
  2874 ;; Return value:  Size  Location     Type
  2875 ;;                  1    wreg      void 
  2876 ;; Registers used:
  2877 ;;		None
  2878 ;; Tracked objects:
  2879 ;;		On entry : 0/0
  2880 ;;		On exit  : 0/0
  2881 ;;		Unchanged: 0/0
  2882 ;; Data sizes:     COMMON   BANK0   BANK1   BANK2   BANK3   BANK4
  2883 ;;      Params:         0       0       0       0       0       0
  2884 ;;      Locals:         0       0       0       0       0       0
  2885 ;;      Temps:          0       0       0       0       0       0
  2886 ;;      Totals:         0       0       0       0       0       0
  2887 ;;Total ram usage:        0 bytes
  2888 ;; Hardware stack levels used: 1
  2889 ;; This function calls:
  2890 ;;		Nothing
  2891 ;; This function is called by:
  2892 ;;		_TMR1_Initialize
  2893 ;;		_TMR1_ISR
  2894 ;; This function uses a non-reentrant model
  2895 ;;
  2896                           
  2897     0167                     _TMR1_DefaultInterruptHandler:	
  2898                           ;psect for function _TMR1_DefaultInterruptHandler
  2899                           
  2900     0167                     i1l60:	
  2901                           ;incstack = 0
  2902                           ; Regs used in _TMR1_DefaultInterruptHandler: []
  2903                           
  2904     0167  0008               	return
  2905     0168                     __end_of_TMR1_DefaultInterruptHandler:
  2906                           
  2907                           	psect	text15
  2908     002A                     __ptext15:	
  2909 ;; *************** function _pwm_acceleration *****************
  2910 ;; Defined at:
  2911 ;;		line 49 in file "main.c"
  2912 ;; Parameters:    Size  Location     Type
  2913 ;;		None
  2914 ;; Auto vars:     Size  Location     Type
  2915 ;;		None
  2916 ;; Return value:  Size  Location     Type
  2917 ;;                  1    wreg      void 
  2918 ;; Registers used:
  2919 ;;		wreg, status,2, status,0, pclath, cstack
  2920 ;; Tracked objects:
  2921 ;;		On entry : 0/0
  2922 ;;		On exit  : 0/0
  2923 ;;		Unchanged: 0/0
  2924 ;; Data sizes:     COMMON   BANK0   BANK1   BANK2   BANK3   BANK4
  2925 ;;      Params:         0       0       0       0       0       0
  2926 ;;      Locals:         0       0       0       0       0       0
  2927 ;;      Temps:          0       0       0       0       0       0
  2928 ;;      Totals:         0       0       0       0       0       0
  2929 ;;Total ram usage:        0 bytes
  2930 ;; Hardware stack levels used: 1
  2931 ;; Hardware stack levels required when called: 1
  2932 ;; This function calls:
  2933 ;;		_EPWM2_LoadDutyValue
  2934 ;; This function is called by:
  2935 ;;		_main
  2936 ;;		_TMR1_ISR
  2937 ;; This function uses a non-reentrant model
  2938 ;;
  2939                           
  2940     002A                     _pwm_acceleration:	
  2941                           ;psect for function _pwm_acceleration
  2942                           
  2943     002A                     i1l1119:	
  2944                           ;incstack = 0
  2945                           ; Regs used in _pwm_acceleration: [wreg+status,2+status,0+pclath+cstack]
  2946                           
  2947                           
  2948                           ;main.c: 51:     if (pwm_dc < pwm_dc_reference)
  2949     002A  0873               	movf	_pwm_dc_reference+1,w
  2950     002B  0271               	subwf	_pwm_dc+1,w
  2951     002C  1D03               	skipz
  2952     002D  2830               	goto	u16_25
  2953     002E  0872               	movf	_pwm_dc_reference,w
  2954     002F  0270               	subwf	_pwm_dc,w
  2955     0030                     u16_25:
  2956     0030  1803               	skipnc
  2957     0031  2833               	goto	u16_21
  2958     0032  2834               	goto	u16_20
  2959     0033                     u16_21:
  2960     0033  284C               	goto	i1l1127
  2961     0034                     u16_20:
  2962     0034                     i1l1121:
  2963                           
  2964                           ;main.c: 52:     {;main.c: 53:         pwm_dc += 2;
  2965     0034  3002               	movlw	2
  2966     0035  07F0               	addwf	_pwm_dc,f
  2967     0036  3000               	movlw	0
  2968     0037  3DF1               	addwfc	_pwm_dc+1,f
  2969                           
  2970                           ;main.c: 55:         pwm_dc = pwm_dc > pwm_dc_reference? pwm_dc_reference: pwm_dc;
  2971     0038  0871               	movf	_pwm_dc+1,w
  2972     0039  0273               	subwf	_pwm_dc_reference+1,w
  2973     003A  1D03               	skipz
  2974     003B  283E               	goto	u17_25
  2975     003C  0870               	movf	_pwm_dc,w
  2976     003D  0272               	subwf	_pwm_dc_reference,w
  2977     003E                     u17_25:
  2978     003E  1C03               	skipc
  2979     003F  2841               	goto	u17_21
  2980     0040  2842               	goto	u17_20
  2981     0041                     u17_21:
  2982     0041  2847               	goto	i1l1125
  2983     0042                     u17_20:
  2984     0042                     i1l1123:
  2985     0042  0871               	movf	_pwm_dc+1,w
  2986     0043  00F1               	movwf	_pwm_dc+1
  2987     0044  0870               	movf	_pwm_dc,w
  2988     0045  00F0               	movwf	_pwm_dc
  2989     0046  2865               	goto	i1l1135
  2990     0047                     i1l1125:
  2991     0047  0873               	movf	_pwm_dc_reference+1,w
  2992     0048  00F1               	movwf	_pwm_dc+1
  2993     0049  0872               	movf	_pwm_dc_reference,w
  2994     004A  00F0               	movwf	_pwm_dc
  2995     004B  2865               	goto	i1l1135
  2996     004C                     i1l1127:
  2997     004C  0871               	movf	_pwm_dc+1,w
  2998     004D  0273               	subwf	_pwm_dc_reference+1,w
  2999     004E  1D03               	skipz
  3000     004F  2852               	goto	u18_25
  3001     0050  0870               	movf	_pwm_dc,w
  3002     0051  0272               	subwf	_pwm_dc_reference,w
  3003     0052                     u18_25:
  3004     0052  1803               	skipnc
  3005     0053  2855               	goto	u18_21
  3006     0054  2856               	goto	u18_20
  3007     0055                     u18_21:
  3008     0055  2865               	goto	i1l1135
  3009     0056                     u18_20:
  3010     0056                     i1l1129:
  3011                           
  3012                           ;main.c: 59:     {;main.c: 60:         pwm_dc -= 2;
  3013     0056  3002               	movlw	2
  3014     0057  02F0               	subwf	_pwm_dc,f
  3015     0058  3000               	movlw	0
  3016     0059  3BF1               	subwfb	_pwm_dc+1,f
  3017                           
  3018                           ;main.c: 62:         pwm_dc = pwm_dc < pwm_dc_reference? pwm_dc_reference: pwm_dc;
  3019     005A  0873               	movf	_pwm_dc_reference+1,w
  3020     005B  0271               	subwf	_pwm_dc+1,w
  3021     005C  1D03               	skipz
  3022     005D  2860               	goto	u19_25
  3023     005E  0872               	movf	_pwm_dc_reference,w
  3024     005F  0270               	subwf	_pwm_dc,w
  3025     0060                     u19_25:
  3026     0060  1C03               	skipc
  3027     0061  2863               	goto	u19_21
  3028     0062  2864               	goto	u19_20
  3029     0063                     u19_21:
  3030     0063  2847               	goto	i1l1125
  3031     0064                     u19_20:
  3032     0064  2842               	goto	i1l1123
  3033     0065                     i1l1135:
  3034                           
  3035                           ;main.c: 65:     EPWM2_LoadDutyValue(pwm_dc);
  3036     0065  0871               	movf	_pwm_dc+1,w
  3037     0066  00F7               	movwf	EPWM2_LoadDutyValue@dutyValue+1
  3038     0067  0870               	movf	_pwm_dc,w
  3039     0068  00F6               	movwf	EPWM2_LoadDutyValue@dutyValue
  3040     0069  3180  20F1  3180   	fcall	_EPWM2_LoadDutyValue
  3041     006C                     i1l233:
  3042     006C  0008               	return
  3043     006D                     __end_of_pwm_acceleration:
  3044                           
  3045                           	psect	text16
  3046     00F1                     __ptext16:	
  3047 ;; *************** function _EPWM2_LoadDutyValue *****************
  3048 ;; Defined at:
  3049 ;;		line 90 in file "mcc_generated_files/epwm2.c"
  3050 ;; Parameters:    Size  Location     Type
  3051 ;;  dutyValue       2    0[COMMON] unsigned short 
  3052 ;; Auto vars:     Size  Location     Type
  3053 ;;		None
  3054 ;; Return value:  Size  Location     Type
  3055 ;;                  1    wreg      void 
  3056 ;; Registers used:
  3057 ;;		wreg, status,2, status,0
  3058 ;; Tracked objects:
  3059 ;;		On entry : 0/0
  3060 ;;		On exit  : 0/0
  3061 ;;		Unchanged: 0/0
  3062 ;; Data sizes:     COMMON   BANK0   BANK1   BANK2   BANK3   BANK4
  3063 ;;      Params:         2       0       0       0       0       0
  3064 ;;      Locals:         0       0       0       0       0       0
  3065 ;;      Temps:          2       0       0       0       0       0
  3066 ;;      Totals:         4       0       0       0       0       0
  3067 ;;Total ram usage:        4 bytes
  3068 ;; Hardware stack levels used: 1
  3069 ;; This function calls:
  3070 ;;		Nothing
  3071 ;; This function is called by:
  3072 ;;		_pwm_acceleration
  3073 ;; This function uses a non-reentrant model
  3074 ;;
  3075                           
  3076     00F1                     _EPWM2_LoadDutyValue:	
  3077                           ;psect for function _EPWM2_LoadDutyValue
  3078                           
  3079     00F1                     i1l1087:	
  3080                           ;incstack = 0
  3081                           ; Regs used in _EPWM2_LoadDutyValue: [wreg+status,2+status,0]
  3082                           
  3083                           
  3084                           ;mcc_generated_files/epwm2.c: 90: void EPWM2_LoadDutyValue(uint16_t dutyValue);mcc_gener
      +                          ated_files/epwm2.c: 91: {;mcc_generated_files/epwm2.c: 93:     CCPR2L = ((dutyValue & 0x
      +                          03FC)>>2);
  3085     00F1  0877               	movf	EPWM2_LoadDutyValue@dutyValue+1,w
  3086     00F2  00F9               	movwf	??_EPWM2_LoadDutyValue+1
  3087     00F3  0876               	movf	EPWM2_LoadDutyValue@dutyValue,w
  3088     00F4  00F8               	movwf	??_EPWM2_LoadDutyValue
  3089     00F5  36F9               	lsrf	??_EPWM2_LoadDutyValue+1,f
  3090     00F6  0CF8               	rrf	??_EPWM2_LoadDutyValue,f
  3091     00F7  36F9               	lsrf	??_EPWM2_LoadDutyValue+1,f
  3092     00F8  0CF8               	rrf	??_EPWM2_LoadDutyValue,f
  3093     00F9  0878               	movf	??_EPWM2_LoadDutyValue,w
  3094     00FA  0025               	movlb	5	; select bank5
  3095     00FB  0098               	movwf	24	;volatile
  3096                           
  3097                           ;mcc_generated_files/epwm2.c: 96:     CCP2CON = ((uint8_t)(CCP2CON & 0xCF) | ((dutyValue
      +                           & 0x0003)<<4));
  3098     00FC  0876               	movf	EPWM2_LoadDutyValue@dutyValue,w
  3099     00FD  3903               	andlw	3
  3100     00FE  00F8               	movwf	??_EPWM2_LoadDutyValue
  3101     00FF  3004               	movlw	4
  3102     0100                     u14_25:
  3103     0100  35F8               	lslf	??_EPWM2_LoadDutyValue,f
  3104     0101  0B89               	decfsz	9,f
  3105     0102  2900               	goto	u14_25
  3106     0103  081A               	movf	26,w	;volatile
  3107     0104  39CF               	andlw	207
  3108     0105  0478               	iorwf	??_EPWM2_LoadDutyValue,w
  3109     0106  009A               	movwf	26	;volatile
  3110     0107                     i1l188:
  3111     0107  0008               	return
  3112     0108                     __end_of_EPWM2_LoadDutyValue:
  3113                           
  3114                           	psect	text17
  3115     011E                     __ptext17:	
  3116 ;; *************** function _TMR1_WriteTimer *****************
  3117 ;; Defined at:
  3118 ;;		line 120 in file "mcc_generated_files/tmr1.c"
  3119 ;; Parameters:    Size  Location     Type
  3120 ;;  timerVal        2    0[COMMON] unsigned short 
  3121 ;; Auto vars:     Size  Location     Type
  3122 ;;		None
  3123 ;; Return value:  Size  Location     Type
  3124 ;;                  1    wreg      void 
  3125 ;; Registers used:
  3126 ;;		wreg, status,2
  3127 ;; Tracked objects:
  3128 ;;		On entry : 0/0
  3129 ;;		On exit  : 0/0
  3130 ;;		Unchanged: 0/0
  3131 ;; Data sizes:     COMMON   BANK0   BANK1   BANK2   BANK3   BANK4
  3132 ;;      Params:         2       0       0       0       0       0
  3133 ;;      Locals:         0       0       0       0       0       0
  3134 ;;      Temps:          0       0       0       0       0       0
  3135 ;;      Totals:         2       0       0       0       0       0
  3136 ;;Total ram usage:        2 bytes
  3137 ;; Hardware stack levels used: 1
  3138 ;; This function calls:
  3139 ;;		Nothing
  3140 ;; This function is called by:
  3141 ;;		_TMR1_ISR
  3142 ;;		_TMR1_Reload
  3143 ;; This function uses a non-reentrant model
  3144 ;;
  3145                           
  3146     011E                     _TMR1_WriteTimer:	
  3147                           ;psect for function _TMR1_WriteTimer
  3148                           
  3149     011E                     i1l1105:	
  3150                           ;incstack = 0
  3151                           ; Regs used in _TMR1_WriteTimer: [wreg+status,2]
  3152                           
  3153                           
  3154                           ;mcc_generated_files/tmr1.c: 120: void TMR1_WriteTimer(uint16_t timerVal);mcc_generated_
      +                          files/tmr1.c: 121: {;mcc_generated_files/tmr1.c: 122:     if (T1CONbits.nT1SYNC == 1)
  3155     011E  0020               	movlb	0	; select bank0
  3156     011F  1D18               	btfss	24,2	;volatile
  3157     0120  2922               	goto	u15_21
  3158     0121  2923               	goto	u15_20
  3159     0122                     u15_21:
  3160     0122  292A               	goto	i1l1115
  3161     0123                     u15_20:
  3162     0123                     i1l1107:
  3163                           
  3164                           ;mcc_generated_files/tmr1.c: 123:     {;mcc_generated_files/tmr1.c: 125:         T1CONbi
      +                          ts.TMR1ON = 0;
  3165     0123  1018               	bcf	24,0	;volatile
  3166     0124                     i1l1109:
  3167                           
  3168                           ;mcc_generated_files/tmr1.c: 128:         TMR1H = (uint8_t)(timerVal >> 8);
  3169     0124  0877               	movf	TMR1_WriteTimer@timerVal+1,w
  3170     0125  0097               	movwf	23	;volatile
  3171     0126                     i1l1111:
  3172                           
  3173                           ;mcc_generated_files/tmr1.c: 129:         TMR1L = (uint8_t)timerVal;
  3174     0126  0876               	movf	TMR1_WriteTimer@timerVal,w
  3175     0127  0096               	movwf	22	;volatile
  3176     0128                     i1l1113:
  3177                           
  3178                           ;mcc_generated_files/tmr1.c: 132:         T1CONbits.TMR1ON =1;
  3179     0128  1418               	bsf	24,0	;volatile
  3180                           
  3181                           ;mcc_generated_files/tmr1.c: 133:     }
  3182     0129  292E               	goto	i1l41
  3183     012A                     i1l1115:
  3184                           
  3185                           ;mcc_generated_files/tmr1.c: 135:     {;mcc_generated_files/tmr1.c: 137:         TMR1H =
      +                           (uint8_t)(timerVal >> 8);
  3186     012A  0877               	movf	TMR1_WriteTimer@timerVal+1,w
  3187     012B  0097               	movwf	23	;volatile
  3188     012C                     i1l1117:
  3189                           
  3190                           ;mcc_generated_files/tmr1.c: 138:         TMR1L = (uint8_t)timerVal;
  3191     012C  0876               	movf	TMR1_WriteTimer@timerVal,w
  3192     012D  0096               	movwf	22	;volatile
  3193     012E                     i1l41:
  3194     012E  0008               	return
  3195     012F                     __end_of_TMR1_WriteTimer:
  3196     007E                     btemp	set	126	;btemp
  3197     007E                     int$flags	set	126
  3198     007E                     wtemp0	set	126
  3199                           
  3200                           	psect	config
  3201                           
  3202                           ;Config register CONFIG1 @ 0x8007
  3203                           ;	Oscillator Selection
  3204                           ;	FOSC = INTOSC, INTOSC oscillator: I/O function on CLKIN pin
  3205                           ;	Watchdog Timer Enable
  3206                           ;	WDTE = OFF, WDT disabled
  3207                           ;	Power-up Timer Enable
  3208                           ;	PWRTE = OFF, PWRT disabled
  3209                           ;	MCLR Pin Function Select
  3210                           ;	MCLRE = ON, MCLR/VPP pin function is MCLR
  3211                           ;	Flash Program Memory Code Protection
  3212                           ;	CP = OFF, Program memory code protection is disabled
  3213                           ;	Data Memory Code Protection
  3214                           ;	CPD = OFF, Data memory code protection is disabled
  3215                           ;	Brown-out Reset Enable
  3216                           ;	BOREN = ON, Brown-out Reset enabled
  3217                           ;	Clock Out Enable
  3218                           ;	CLKOUTEN = OFF, CLKOUT function is disabled. I/O or oscillator function on the CLKOUT 
      +                          pin
  3219                           ;	Internal/External Switchover
  3220                           ;	IESO = ON, Internal/External Switchover mode is enabled
  3221                           ;	Fail-Safe Clock Monitor Enable
  3222                           ;	FCMEN = ON, Fail-Safe Clock Monitor is enabled
  3223     8007                     	org	32775
  3224     8007  3FE4               	dw	16356
  3225                           
  3226                           ;Config register CONFIG2 @ 0x8008
  3227                           ;	Flash Memory Self-Write Protection
  3228                           ;	WRT = OFF, Write protection off
  3229                           ;	PLL Enable
  3230                           ;	PLLEN = ON, 4x PLL enabled
  3231                           ;	Stack Overflow/Underflow Reset Enable
  3232                           ;	STVREN = ON, Stack Overflow or Underflow will cause a Reset
  3233                           ;	Brown-out Reset Voltage Selection
  3234                           ;	BORV = LO, Brown-out Reset Voltage (Vbor), low trip point selected.
  3235                           ;	In-Circuit Debugger Mode
  3236                           ;	DEBUG = 0x1, unprogrammed default
  3237                           ;	Low-Voltage Programming Enable
  3238                           ;	LVP = ON, Low-voltage programming enabled
  3239     8008                     	org	32776
  3240     8008  3FFF               	dw	16383

Data Sizes:
    Strings     0
    Constant    0
    Data        0
    BSS         10
    Persistent  32
    Stack       0

Auto Spaces:
    Space          Size  Autos    Used
    COMMON           14      4      10
    BANK0            80      4       8
    BANK1            80      0       0
    BANK2            80      0       0
    BANK3            80      0       0
    BANK4            48      0       0

Pointer List with Targets:

    ADC_InterruptHandler	PTR FTN()void  size(2) Largest target is 1
		 -> NULL(), 

    TMR1_InterruptHandler	PTR FTN()void  size(2) Largest target is 1
		 -> pwm_acceleration(), TMR1_DefaultInterruptHandler(), NULL(), 

    TMR1_SetInterruptHandler@InterruptHandler	PTR FTN()void  size(2) Largest target is 1
		 -> pwm_acceleration(), TMR1_DefaultInterruptHandler(), 


Critical Paths under _main in COMMON

    None.

Critical Paths under _INTERRUPT_InterruptManager in COMMON

    _pwm_acceleration->_EPWM2_LoadDutyValue

Critical Paths under _main in BANK0

    _main->_ADC_GetConversion
    _TMR1_Initialize->_TMR1_SetInterruptHandler

Critical Paths under _INTERRUPT_InterruptManager in BANK0

    None.

Critical Paths under _main in BANK1

    None.

Critical Paths under _INTERRUPT_InterruptManager in BANK1

    None.

Critical Paths under _main in BANK2

    None.

Critical Paths under _INTERRUPT_InterruptManager in BANK2

    None.

Critical Paths under _main in BANK3

    None.

Critical Paths under _INTERRUPT_InterruptManager in BANK3

    None.

Critical Paths under _main in BANK4

    None.

Critical Paths under _INTERRUPT_InterruptManager in BANK4

    None.

Call Graph Tables:

 ---------------------------------------------------------------------------------
 (Depth) Function   	        Calls       Base Space   Used Autos Params    Refs
 ---------------------------------------------------------------------------------
 (0) _main                                                 0     0      0     453
                  _ADC_GetConversion
                  _SYSTEM_Initialize
           _TMR1_SetInterruptHandler
 ---------------------------------------------------------------------------------
 (1) _SYSTEM_Initialize                                    0     0      0     211
                     _ADC_Initialize
                   _EPWM2_Initialize
                     _FVR_Initialize
              _OSCILLATOR_Initialize
             _PIN_MANAGER_Initialize
                    _TMR1_Initialize
                    _TMR2_Initialize
                     _WDT_Initialize
 ---------------------------------------------------------------------------------
 (2) _WDT_Initialize                                       0     0      0       0
 ---------------------------------------------------------------------------------
 (2) _TMR2_Initialize                                      0     0      0       0
 ---------------------------------------------------------------------------------
 (2) _TMR1_Initialize                                      0     0      0     211
           _TMR1_SetInterruptHandler
 ---------------------------------------------------------------------------------
 (1) _TMR1_SetInterruptHandler                             2     0      2     211
                                              0 BANK0      2     0      2
 ---------------------------------------------------------------------------------
 (2) _PIN_MANAGER_Initialize                               0     0      0       0
 ---------------------------------------------------------------------------------
 (2) _OSCILLATOR_Initialize                                0     0      0       0
 ---------------------------------------------------------------------------------
 (2) _FVR_Initialize                                       0     0      0       0
 ---------------------------------------------------------------------------------
 (2) _EPWM2_Initialize                                     0     0      0       0
 ---------------------------------------------------------------------------------
 (2) _ADC_Initialize                                       0     0      0       0
 ---------------------------------------------------------------------------------
 (1) _ADC_GetConversion                                    4     2      2      31
                                              0 BANK0      4     2      2
 ---------------------------------------------------------------------------------
 Estimated maximum stack depth 2
 ---------------------------------------------------------------------------------
 (Depth) Function   	        Calls       Base Space   Used Autos Params    Refs
 ---------------------------------------------------------------------------------
 (4) _INTERRUPT_InterruptManager                           0     0      0     360
                           _TMR1_ISR
 ---------------------------------------------------------------------------------
 (5) _TMR1_ISR                                             0     0      0     360
                                NULL *
       _TMR1_DefaultInterruptHandler *
                    _TMR1_WriteTimer
                   _pwm_acceleration *
 ---------------------------------------------------------------------------------
 (6) _pwm_acceleration                                     0     0      0     120
                _EPWM2_LoadDutyValue
 ---------------------------------------------------------------------------------
 (7) _EPWM2_LoadDutyValue                                  4     2      2     120
                                              0 COMMON     4     2      2
 ---------------------------------------------------------------------------------
 (6) _TMR1_WriteTimer                                      2     0      2     240
                                              0 COMMON     2     0      2
 ---------------------------------------------------------------------------------
 (6) _TMR1_DefaultInterruptHandler                         0     0      0       0
 ---------------------------------------------------------------------------------
 (6) NULL(Fake)                                            0     0      0       0
 ---------------------------------------------------------------------------------
 Estimated maximum stack depth 7
 ---------------------------------------------------------------------------------

 Call Graph Graphs:

 _main (ROOT)
   _ADC_GetConversion
   _SYSTEM_Initialize
     _ADC_Initialize
     _EPWM2_Initialize
     _FVR_Initialize
     _OSCILLATOR_Initialize
     _PIN_MANAGER_Initialize
     _TMR1_Initialize
       _TMR1_SetInterruptHandler
     _TMR2_Initialize
     _WDT_Initialize
   _TMR1_SetInterruptHandler

 _INTERRUPT_InterruptManager (ROOT)
   _TMR1_ISR
     NULL(Fake) *
     _TMR1_DefaultInterruptHandler *
     _TMR1_WriteTimer *
     _pwm_acceleration *
       _EPWM2_LoadDutyValue

 Address spaces:
Name               Size   Autos  Total    Cost      Usage
BIGRAM             170      0       0       0        0.0%
EEDATA             100      0       0       0        0.0%
NULL                 0      0       0       0        0.0%
CODE                 0      0       0       0        0.0%
BITCOMMON            E      0       0       1        0.0%
BITSFR0              0      0       0       1        0.0%
SFR0                 0      0       0       1        0.0%
COMMON               E      4       A       2       71.4%
BITSFR1              0      0       0       2        0.0%
SFR1                 0      0       0       2        0.0%
BITSFR2              0      0       0       3        0.0%
SFR2                 0      0       0       3        0.0%
STACK                0      0       0       3        0.0%
BITSFR3              0      0       0       4        0.0%
SFR3                 0      0       0       4        0.0%
ABS                  0      0      12       4        0.0%
BITBANK0            50      0       0       5        0.0%
BITSFR4              0      0       0       5        0.0%
SFR4                 0      0       0       5        0.0%
BANK0               50      4       8       6       10.0%
BITSFR5              0      0       0       6        0.0%
SFR5                 0      0       0       6        0.0%
BITBANK1            50      0       0       7        0.0%
BITSFR6              0      0       0       7        0.0%
SFR6                 0      0       0       7        0.0%
BANK1               50      0       0       8        0.0%
BITSFR7              0      0       0       8        0.0%
SFR7                 0      0       0       8        0.0%
BITBANK2            50      0       0       9        0.0%
BITSFR8              0      0       0       9        0.0%
SFR8                 0      0       0       9        0.0%
BANK2               50      0       0      10        0.0%
BITSFR9              0      0       0      10        0.0%
SFR9                 0      0       0      10        0.0%
BITBANK3            50      0       0      11        0.0%
BITSFR10             0      0       0      11        0.0%
SFR10                0      0       0      11        0.0%
BANK3               50      0       0      12        0.0%
BITSFR11             0      0       0      12        0.0%
SFR11                0      0       0      12        0.0%
BITBANK4            30      0       0      13        0.0%
BITSFR12             0      0       0      13        0.0%
SFR12                0      0       0      13        0.0%
BANK4               30      0       0      14        0.0%
BITSFR13             0      0       0      14        0.0%
SFR13                0      0       0      14        0.0%
BITSFR14             0      0       0      15        0.0%
SFR14                0      0       0      15        0.0%
DATA                 0      0      12      15        0.0%
BITSFR15             0      0       0      16        0.0%
SFR15                0      0       0      16        0.0%
BITSFR16             0      0       0      17        0.0%
SFR16                0      0       0      17        0.0%
BITSFR17             0      0       0      18        0.0%
SFR17                0      0       0      18        0.0%
BITSFR18             0      0       0      19        0.0%
SFR18                0      0       0      19        0.0%
BITSFR19             0      0       0      20        0.0%
SFR19                0      0       0      20        0.0%
BITSFR20             0      0       0      21        0.0%
SFR20                0      0       0      21        0.0%
BITSFR21             0      0       0      22        0.0%
SFR21                0      0       0      22        0.0%
BITSFR22             0      0       0      23        0.0%
SFR22                0      0       0      23        0.0%
BITSFR23             0      0       0      24        0.0%
SFR23                0      0       0      24        0.0%
BITSFR24             0      0       0      25        0.0%
SFR24                0      0       0      25        0.0%
BITSFR25             0      0       0      26        0.0%
SFR25                0      0       0      26        0.0%
BITSFR26             0      0       0      27        0.0%
SFR26                0      0       0      27        0.0%
BITSFR27             0      0       0      28        0.0%
SFR27                0      0       0      28        0.0%
BITSFR28             0      0       0      29        0.0%
SFR28                0      0       0      29        0.0%
BITSFR29             0      0       0      30        0.0%
SFR29                0      0       0      30        0.0%
BITSFR30             0      0       0      31        0.0%
SFR30                0      0       0      31        0.0%
BITSFR31             0      0       0      32        0.0%
SFR31                0      0       0      32        0.0%


Microchip Technology PIC Macro Assembler V2.45 build 20230818022343 
Symbol Table                                                                                   Thu Oct 26 00:11:27 2023

                                      l27 00D8                                        l57 015E  
                                      l73 0150                                        u70 0148  
                                      u71 0147                    __end_of_FVR_Initialize 0167  
                                     l117 00F0                                       l152 0082  
                                     l137 0158                                       l155 008D  
                                     l165 0166                                       l270 00BF  
                                     l238 009B                                       l185 013C  
                                     l273 0143                                       l276 0148  
                                     l279 0162                                       l921 0149  
                                     l931 00DC                                       l923 014C  
                                     l941 00E9                                       l933 00DF  
                                     l925 014D                                       l951 0155  
                                     l943 00EA                                       l935 00E1  
                                     l927 014E                                       l961 0135  
                                     l953 0163                                       l945 00EF  
                                     l937 00E4                                       l929 00D9  
                                     l947 0151                                       l963 0137  
                                     l955 012F                                       l939 00E6  
                                     l949 0154                                       l965 013A  
                                     l957 0132                                       l959 0133  
                                     l991 0141                                       l993 015F  
                                     l987 013D                                       l989 0140  
                                     u250 0086                                       u251 0085  
                                     _PR2 001B                                       u267 007D  
                         _timer1ReloadVal 0074                           _TMR2_Initialize 0149  
                                     wreg 0009                  __end_of_EPWM2_Initialize 013D  
                                    l1201 0080                                      l1203 0086  
                                    l1211 0091                                      l1213 0092  
                                    l1207 00A7                                      l1209 008E  
                                    l1181 00C2                                      l1191 00CD  
                                    l1183 00C4                                      l1177 0159  
                                    l1193 00D5                                      l1185 00C6  
                                    l1195 006F                                      l1187 00C7  
                                    l1179 00C0                                      l1197 007B  
                                    l1189 00CB                                      l1199 007C  
                                    _LATA 010C                                      _LATB 010D  
                                    i1l41 012E                                      i1l60 0167  
                                    i1l54 011D                                      _PLLR 04D6  
                                    _TMR2 001A                                      _WPUA 020C  
                                    _WPUB 020D                                      _main 008E  
                                    btemp 007E                                      start 0019  
              ??_TMR1_SetInterruptHandler 007A                           ?_FVR_Initialize 0076  
           __end_of_OSCILLATOR_Initialize 0149                                     ?_main 0076  
                                   _T1CON 0018                                     _T2CON 001C  
                                   i1l205 0017                                     i1l233 006C  
                                   i1l188 0107                                     u20_20 0118  
                                   u20_21 0117                                     u22_20 000A  
                                   u22_21 0009                                     u14_25 0100  
                                   u15_20 0123                                     u23_20 000F  
                                   u15_21 0122                                     u23_21 000E  
                                   u16_20 0034                                     u24_20 0014  
                                   u16_21 0033                                     u24_21 0013  
                                   u16_25 0030                                     u17_20 0042  
                                   u17_21 0041                                     _TMR1H 0017  
                                   u17_25 003E                                     _TMR1L 0016  
                                   u18_20 0056                                     u18_21 0055  
                                   u18_25 0052                                     u19_20 0064  
                                   u19_21 0063                                     u19_25 0060  
                                   _TRISA 008C                                     _TRISB 008D  
                        __end_of_TMR1_ISR 011E                            _WDT_Initialize 015F  
                 __end_of_TMR1_Initialize 00D9                                     pclath 000A  
                                   status 0003                                     wtemp0 007E  
                         _TMR1_WriteTimer 011E                           __initialization 001B  
                            __end_of_main 00A7                   __end_of_TMR2_Initialize 0151  
             ?_INTERRUPT_InterruptManager 0076                                    ??_main 007A  
                  __end_of_WDT_Initialize 0163                                    _ADCON0 009D  
                                  _ADCON1 009E                                    _ADRESH 009C  
                                  _ADRESL 009B                                    _CCPR2H 0299  
                                  _CCPR2L 0298                                    _ANSELA 018C  
                                  _ANSELB 018D                                    _BORCON 0116  
                                  _T1GCON 0019                                    i1l1111 0126  
                                  i1l1113 0128                                    i1l1105 011E  
                                  i1l1121 0034                   TMR1_WriteTimer@timerVal 0076  
                                  i1l1107 0123                                    i1l1115 012A  
                                  i1l1123 0042                                    i1l1117 012C  
                                  i1l1109 0124                                    i1l1125 0047  
                                  i1l1141 010A                                    i1l1135 0065  
                                  i1l1127 004C                                    i1l1119 002A  
                                  i1l1143 0111                                    i1l1129 0056  
                                  i1l1145 0118                                    i1l1139 0108  
                                  i1l1163 0006                                    i1l1165 000A  
                                  i1l1087 00F1                                    i1l1167 000F  
                                  i1l1169 0014                                    _FVRCON 0117  
                                  _OSCCON 0099                                    _WDTCON 0097  
                       ?_pwm_acceleration 0076                        ??_pwm_acceleration 007A  
    __end_of_TMR1_DefaultInterruptHandler 0168              _TMR1_DefaultInterruptHandler 0167  
                            _CCPTMRS0bits 029E                                    _pwm_dc 0070  
                         ?_WDT_Initialize 0076                  ADC_GetConversion@channel 0027  
                     _EPWM2_LoadDutyValue 00F1  TMR1_SetInterruptHandler@InterruptHandler 0024  
                 __end_of_TMR1_WriteTimer 012F                          ?_TMR1_Initialize 0076  
                       _SYSTEM_Initialize 00A7                   __end_of__initialization 0026  
                      ?_SYSTEM_Initialize 0076                            __pcstackCOMMON 0076  
                    ?_EPWM2_LoadDutyValue 0076                       ??_SYSTEM_Initialize 007A  
                               ?_TMR1_ISR 0076             ?_TMR1_DefaultInterruptHandler 0076  
                        ?_TMR2_Initialize 0076                            _OPTION_REGbits 0095  
                       ?_EPWM2_Initialize 0076                 __end_of_SYSTEM_Initialize 00C0  
                      ??_EPWM2_Initialize 007A                                __pbssBANK0 0020  
                        ??_FVR_Initialize 007A                                __pmaintext 008E  
                   ??_EPWM2_LoadDutyValue 0078                                ??_TMR1_ISR 007A  
                              __pintentry 0004                                   _CCP2CON 029A  
                                 _ECCP2AS 029C                                   _APFCON0 011D  
                                 _APFCON1 011E                                   _OSCTUNE 0098  
                                 _PWM2CON 029B                          ?_TMR1_WriteTimer 0076  
                    _ADC_InterruptHandler 0020                                   __ptext1 00A7  
                                 __ptext2 015F                                   __ptext3 0149  
                                 __ptext4 00C0                                   __ptext5 0159  
                                 __ptext6 00D9                                   __ptext7 013D  
                                 __ptext8 0163                                   __ptext9 012F  
          ??_TMR1_DefaultInterruptHandler 0076                                 _T1CONbits 0018  
                   _OSCILLATOR_Initialize 013D                                 _T2CONbits 001C  
                ??_PIN_MANAGER_Initialize 007A                 ?_TMR1_SetInterruptHandler 0024  
                    end_of_initialization 0026                          ??_WDT_Initialize 007A  
                          _ADC_Initialize 0151                    ?_OSCILLATOR_Initialize 0076  
                     start_initialization 001B                    __end_of_ADC_Initialize 0159  
                             __pbssCOMMON 0070                                 ___latbits 0001  
                           __pcstackBANK0 0024               __end_of_EPWM2_LoadDutyValue 0108  
                  _PIN_MANAGER_Initialize 00D9          __end_of_TMR1_SetInterruptHandler 015F  
                         ?_ADC_Initialize 0076              ??_INTERRUPT_InterruptManager 007A  
                        _pwm_acceleration 002A                                  _PIE1bits 0091  
                                _PIR1bits 0011                                  _TMR1_ISR 0108  
                                _PSTR2CON 029D                         ??_TMR1_Initialize 007A  
                              _ADCON0bits 009D                         ??_TMR2_Initialize 007A  
                        _pwm_dc_reference 0072                          _EPWM2_Initialize 012F  
                       _ADC_GetConversion 006D                   ??_OSCILLATOR_Initialize 007A  
                      ?_ADC_GetConversion 0024                  _TMR1_SetInterruptHandler 0159  
                   _TMR1_InterruptHandler 0022                       ??_ADC_GetConversion 0026  
                                __ptext10 0151                                  __ptext11 006D  
                                __ptext13 0108                                _T1GCONbits 0019  
                                __ptext14 0167                                  __ptext15 002A  
                                __ptext16 00F1                                  __ptext17 011E  
               __end_of_ADC_GetConversion 008E                                  int$flags 007E  
      __end_of_INTERRUPT_InterruptManager 0019                _INTERRUPT_InterruptManager 0004  
                       ??_TMR1_WriteTimer 0078                                _INTCONbits 000B  
                              _FVRCONbits 0117                                  intlevel1 0000  
            EPWM2_LoadDutyValue@dutyValue 0076                   ?_PIN_MANAGER_Initialize 0076  
                __end_of_pwm_acceleration 006D                          ??_ADC_Initialize 007A  
                          _FVR_Initialize 0163            __end_of_PIN_MANAGER_Initialize 00F1  
                         _TMR1_Initialize 00C0  
