

Microchip MPLAB XC8 Assembler V2.45 build 20230818022343 
                                                                                               Sat Nov 04 18:51:18 2023

Microchip MPLAB XC8 C Compiler v2.45 (Free license) build 20230818022343 Og1 
     1                           	processor	16F1827
     2                           	pagewidth 120
     3                           	opt	flic
     4                           	psect	nvBANK0,global,class=BANK0,space=1,delta=1,noexec
     5                           	psect	cinit,global,class=CODE,merge=1,delta=2
     6                           	psect	bssBANK0,global,class=BANK0,space=1,delta=1,noexec
     7                           	psect	cstackCOMMON,global,class=COMMON,space=1,delta=1,noexec
     8                           	psect	cstackBANK0,global,class=BANK0,space=1,delta=1,noexec
     9                           	psect	maintext,global,class=CODE,merge=1,split=1,delta=2
    10                           	psect	text1,local,class=CODE,merge=1,delta=2
    11                           	psect	text2,local,class=CODE,merge=1,delta=2
    12                           	psect	text3,local,class=CODE,merge=1,delta=2
    13                           	psect	text4,local,class=CODE,merge=1,delta=2
    14                           	psect	text5,local,class=CODE,merge=1,delta=2
    15                           	psect	text6,local,class=CODE,merge=1,delta=2
    16                           	psect	text7,local,class=CODE,merge=1,delta=2
    17                           	psect	text8,local,class=CODE,merge=1,delta=2
    18                           	psect	text9,local,class=CODE,merge=1,delta=2
    19                           	psect	text10,local,class=CODE,merge=1,delta=2
    20                           	psect	text11,local,class=CODE,merge=1,delta=2
    21                           	psect	text12,local,class=CODE,merge=1,delta=2
    22                           	psect	intentry,global,class=CODE,delta=2
    23                           	psect	text14,local,class=CODE,merge=1,delta=2
    24                           	psect	text15,local,class=CODE,merge=1,delta=2
    25                           	psect	text16,local,class=CODE,merge=1,delta=2,group=1
    26                           	psect	text17,local,class=CODE,merge=1,delta=2,group=1
    27                           	psect	text18,local,class=CODE,merge=1,delta=2,group=1
    28                           	psect	text19,local,class=CODE,merge=1,delta=2,group=1
    29                           	psect	config,global,abs,ovrld,class=CONFIG,space=4,delta=2,noexec
    30                           	dabs	1,0x7E,2
    31     0000                     
    32                           ; Generated 06/07/2023 GMT
    33                           ; 
    34                           ; Copyright © 2023, Microchip Technology Inc. and its subsidiaries ("Microchip")
    35                           ; All rights reserved.
    36                           ; 
    37                           ; This software is developed by Microchip Technology Inc. and its subsidiaries ("Microch
      +                          ip").
    38                           ; 
    39                           ; Redistribution and use in source and binary forms, with or without modification, are
    40                           ; permitted provided that the following conditions are met:
    41                           ; 
    42                           ;     1. Redistributions of source code must retain the above copyright notice, this lis
      +                          t of
    43                           ;        conditions and the following disclaimer.
    44                           ; 
    45                           ;     2. Redistributions in binary form must reproduce the above copyright notice, this 
      +                          list
    46                           ;        of conditions and the following disclaimer in the documentation and/or other
    47                           ;        materials provided with the distribution. Publication is not required when
    48                           ;        this file is used in an embedded application.
    49                           ; 
    50                           ;     3. Microchip's name may not be used to endorse or promote products derived from th
      +                          is
    51                           ;        software without specific prior written permission.
    52                           ; 
    53                           ; THIS SOFTWARE IS PROVIDED BY MICROCHIP "AS IS" AND ANY EXPRESS OR IMPLIED WARRANTIES,
    54                           ; INCLUDING, BUT NOT LIMITED TO, THE IMPLIED WARRANTIES OF MERCHANTABILITY AND FITNESS F
      +                          OR
    55                           ; PURPOSE ARE DISCLAIMED.  IN NO EVENT SHALL MICROCHIP BE LIABLE FOR ANY DIRECT, INDIREC
      +                          T,
    56                           ; INCIDENTAL, SPECIAL, EXEMPLARY, OR CONSEQUENTIAL DAMAGES (INCLUDING BUT NOT LIMITED TO
    57                           ; PROCUREMENT OF SUBSTITUTE GOODS OR SERVICES; LOSS OF USE, DATA OR PROFITS; OR BUSINESS
    58                           ; INTERRUPTION) HOWSOEVER CAUSED AND ON ANY THEORY OF LIABILITY, WHETHER IN CONTRACT, ST
      +                          RICT
    59                           ; LIABILITY, OR TORT (INCLUDING NEGLIGENCE OR OTHERWISE) ARISING IN ANY WAY OUT OF THE U
      +                          SE OF
    60                           ; THIS SOFTWARE, EVEN IF ADVISED OF THE POSSIBILITY OF SUCH DAMAGE.
    61                           ; 
    62                           ; 
    63                           ; Code-generator required, PIC16F1827 Definitions
    64                           ; 
    65                           ; SFR Addresses
    66     0000                     	;# 
    67     0001                     	;# 
    68     0002                     	;# 
    69     0003                     	;# 
    70     0004                     	;# 
    71     0005                     	;# 
    72     0006                     	;# 
    73     0007                     	;# 
    74     0008                     	;# 
    75     0009                     	;# 
    76     000A                     	;# 
    77     000B                     	;# 
    78     000C                     	;# 
    79     000D                     	;# 
    80     0011                     	;# 
    81     0012                     	;# 
    82     0013                     	;# 
    83     0014                     	;# 
    84     0015                     	;# 
    85     0016                     	;# 
    86     0016                     	;# 
    87     0017                     	;# 
    88     0018                     	;# 
    89     0019                     	;# 
    90     001A                     	;# 
    91     001B                     	;# 
    92     001C                     	;# 
    93     001E                     	;# 
    94     001F                     	;# 
    95     008C                     	;# 
    96     008D                     	;# 
    97     0091                     	;# 
    98     0092                     	;# 
    99     0093                     	;# 
   100     0094                     	;# 
   101     0095                     	;# 
   102     0096                     	;# 
   103     0097                     	;# 
   104     0098                     	;# 
   105     0099                     	;# 
   106     009A                     	;# 
   107     009B                     	;# 
   108     009B                     	;# 
   109     009C                     	;# 
   110     009D                     	;# 
   111     009E                     	;# 
   112     010C                     	;# 
   113     010D                     	;# 
   114     0111                     	;# 
   115     0112                     	;# 
   116     0113                     	;# 
   117     0114                     	;# 
   118     0115                     	;# 
   119     0116                     	;# 
   120     0117                     	;# 
   121     0118                     	;# 
   122     0119                     	;# 
   123     011A                     	;# 
   124     011B                     	;# 
   125     011D                     	;# 
   126     011E                     	;# 
   127     018C                     	;# 
   128     018D                     	;# 
   129     0191                     	;# 
   130     0191                     	;# 
   131     0192                     	;# 
   132     0193                     	;# 
   133     0193                     	;# 
   134     0193                     	;# 
   135     0194                     	;# 
   136     0195                     	;# 
   137     0196                     	;# 
   138     0199                     	;# 
   139     019A                     	;# 
   140     019B                     	;# 
   141     019B                     	;# 
   142     019B                     	;# 
   143     019B                     	;# 
   144     019C                     	;# 
   145     019C                     	;# 
   146     019D                     	;# 
   147     019E                     	;# 
   148     019F                     	;# 
   149     020C                     	;# 
   150     020D                     	;# 
   151     0211                     	;# 
   152     0211                     	;# 
   153     0212                     	;# 
   154     0212                     	;# 
   155     0213                     	;# 
   156     0213                     	;# 
   157     0214                     	;# 
   158     0214                     	;# 
   159     0215                     	;# 
   160     0215                     	;# 
   161     0215                     	;# 
   162     0216                     	;# 
   163     0216                     	;# 
   164     0217                     	;# 
   165     0217                     	;# 
   166     0219                     	;# 
   167     021A                     	;# 
   168     021B                     	;# 
   169     021C                     	;# 
   170     021D                     	;# 
   171     021E                     	;# 
   172     021F                     	;# 
   173     0291                     	;# 
   174     0291                     	;# 
   175     0292                     	;# 
   176     0293                     	;# 
   177     0294                     	;# 
   178     0295                     	;# 
   179     0295                     	;# 
   180     0296                     	;# 
   181     0298                     	;# 
   182     0298                     	;# 
   183     0299                     	;# 
   184     029A                     	;# 
   185     029B                     	;# 
   186     029C                     	;# 
   187     029C                     	;# 
   188     029D                     	;# 
   189     029E                     	;# 
   190     029E                     	;# 
   191     0311                     	;# 
   192     0311                     	;# 
   193     0312                     	;# 
   194     0313                     	;# 
   195     0318                     	;# 
   196     0318                     	;# 
   197     0319                     	;# 
   198     031A                     	;# 
   199     0394                     	;# 
   200     0395                     	;# 
   201     0396                     	;# 
   202     039A                     	;# 
   203     039C                     	;# 
   204     039D                     	;# 
   205     039E                     	;# 
   206     039F                     	;# 
   207     0415                     	;# 
   208     0416                     	;# 
   209     0417                     	;# 
   210     041C                     	;# 
   211     041D                     	;# 
   212     041E                     	;# 
   213     0FE4                     	;# 
   214     0FE5                     	;# 
   215     0FE6                     	;# 
   216     0FE7                     	;# 
   217     0FE8                     	;# 
   218     0FE9                     	;# 
   219     0FEA                     	;# 
   220     0FEB                     	;# 
   221     0FED                     	;# 
   222     0FEE                     	;# 
   223     0FEF                     	;# 
   224     0000                     	;# 
   225     0001                     	;# 
   226     0002                     	;# 
   227     0003                     	;# 
   228     0004                     	;# 
   229     0005                     	;# 
   230     0006                     	;# 
   231     0007                     	;# 
   232     0008                     	;# 
   233     0009                     	;# 
   234     000A                     	;# 
   235     000B                     	;# 
   236     000C                     	;# 
   237     000D                     	;# 
   238     0011                     	;# 
   239     0012                     	;# 
   240     0013                     	;# 
   241     0014                     	;# 
   242     0015                     	;# 
   243     0016                     	;# 
   244     0016                     	;# 
   245     0017                     	;# 
   246     0018                     	;# 
   247     0019                     	;# 
   248     001A                     	;# 
   249     001B                     	;# 
   250     001C                     	;# 
   251     001E                     	;# 
   252     001F                     	;# 
   253     008C                     	;# 
   254     008D                     	;# 
   255     0091                     	;# 
   256     0092                     	;# 
   257     0093                     	;# 
   258     0094                     	;# 
   259     0095                     	;# 
   260     0096                     	;# 
   261     0097                     	;# 
   262     0098                     	;# 
   263     0099                     	;# 
   264     009A                     	;# 
   265     009B                     	;# 
   266     009B                     	;# 
   267     009C                     	;# 
   268     009D                     	;# 
   269     009E                     	;# 
   270     010C                     	;# 
   271     010D                     	;# 
   272     0111                     	;# 
   273     0112                     	;# 
   274     0113                     	;# 
   275     0114                     	;# 
   276     0115                     	;# 
   277     0116                     	;# 
   278     0117                     	;# 
   279     0118                     	;# 
   280     0119                     	;# 
   281     011A                     	;# 
   282     011B                     	;# 
   283     011D                     	;# 
   284     011E                     	;# 
   285     018C                     	;# 
   286     018D                     	;# 
   287     0191                     	;# 
   288     0191                     	;# 
   289     0192                     	;# 
   290     0193                     	;# 
   291     0193                     	;# 
   292     0193                     	;# 
   293     0194                     	;# 
   294     0195                     	;# 
   295     0196                     	;# 
   296     0199                     	;# 
   297     019A                     	;# 
   298     019B                     	;# 
   299     019B                     	;# 
   300     019B                     	;# 
   301     019B                     	;# 
   302     019C                     	;# 
   303     019C                     	;# 
   304     019D                     	;# 
   305     019E                     	;# 
   306     019F                     	;# 
   307     020C                     	;# 
   308     020D                     	;# 
   309     0211                     	;# 
   310     0211                     	;# 
   311     0212                     	;# 
   312     0212                     	;# 
   313     0213                     	;# 
   314     0213                     	;# 
   315     0214                     	;# 
   316     0214                     	;# 
   317     0215                     	;# 
   318     0215                     	;# 
   319     0215                     	;# 
   320     0216                     	;# 
   321     0216                     	;# 
   322     0217                     	;# 
   323     0217                     	;# 
   324     0219                     	;# 
   325     021A                     	;# 
   326     021B                     	;# 
   327     021C                     	;# 
   328     021D                     	;# 
   329     021E                     	;# 
   330     021F                     	;# 
   331     0291                     	;# 
   332     0291                     	;# 
   333     0292                     	;# 
   334     0293                     	;# 
   335     0294                     	;# 
   336     0295                     	;# 
   337     0295                     	;# 
   338     0296                     	;# 
   339     0298                     	;# 
   340     0298                     	;# 
   341     0299                     	;# 
   342     029A                     	;# 
   343     029B                     	;# 
   344     029C                     	;# 
   345     029C                     	;# 
   346     029D                     	;# 
   347     029E                     	;# 
   348     029E                     	;# 
   349     0311                     	;# 
   350     0311                     	;# 
   351     0312                     	;# 
   352     0313                     	;# 
   353     0318                     	;# 
   354     0318                     	;# 
   355     0319                     	;# 
   356     031A                     	;# 
   357     0394                     	;# 
   358     0395                     	;# 
   359     0396                     	;# 
   360     039A                     	;# 
   361     039C                     	;# 
   362     039D                     	;# 
   363     039E                     	;# 
   364     039F                     	;# 
   365     0415                     	;# 
   366     0416                     	;# 
   367     0417                     	;# 
   368     041C                     	;# 
   369     041D                     	;# 
   370     041E                     	;# 
   371     0FE4                     	;# 
   372     0FE5                     	;# 
   373     0FE6                     	;# 
   374     0FE7                     	;# 
   375     0FE8                     	;# 
   376     0FE9                     	;# 
   377     0FEA                     	;# 
   378     0FEB                     	;# 
   379     0FED                     	;# 
   380     0FEE                     	;# 
   381     0FEF                     	;# 
   382     0000                     	;# 
   383     0001                     	;# 
   384     0002                     	;# 
   385     0003                     	;# 
   386     0004                     	;# 
   387     0005                     	;# 
   388     0006                     	;# 
   389     0007                     	;# 
   390     0008                     	;# 
   391     0009                     	;# 
   392     000A                     	;# 
   393     000B                     	;# 
   394     000C                     	;# 
   395     000D                     	;# 
   396     0011                     	;# 
   397     0012                     	;# 
   398     0013                     	;# 
   399     0014                     	;# 
   400     0015                     	;# 
   401     0016                     	;# 
   402     0016                     	;# 
   403     0017                     	;# 
   404     0018                     	;# 
   405     0019                     	;# 
   406     001A                     	;# 
   407     001B                     	;# 
   408     001C                     	;# 
   409     001E                     	;# 
   410     001F                     	;# 
   411     008C                     	;# 
   412     008D                     	;# 
   413     0091                     	;# 
   414     0092                     	;# 
   415     0093                     	;# 
   416     0094                     	;# 
   417     0095                     	;# 
   418     0096                     	;# 
   419     0097                     	;# 
   420     0098                     	;# 
   421     0099                     	;# 
   422     009A                     	;# 
   423     009B                     	;# 
   424     009B                     	;# 
   425     009C                     	;# 
   426     009D                     	;# 
   427     009E                     	;# 
   428     010C                     	;# 
   429     010D                     	;# 
   430     0111                     	;# 
   431     0112                     	;# 
   432     0113                     	;# 
   433     0114                     	;# 
   434     0115                     	;# 
   435     0116                     	;# 
   436     0117                     	;# 
   437     0118                     	;# 
   438     0119                     	;# 
   439     011A                     	;# 
   440     011B                     	;# 
   441     011D                     	;# 
   442     011E                     	;# 
   443     018C                     	;# 
   444     018D                     	;# 
   445     0191                     	;# 
   446     0191                     	;# 
   447     0192                     	;# 
   448     0193                     	;# 
   449     0193                     	;# 
   450     0193                     	;# 
   451     0194                     	;# 
   452     0195                     	;# 
   453     0196                     	;# 
   454     0199                     	;# 
   455     019A                     	;# 
   456     019B                     	;# 
   457     019B                     	;# 
   458     019B                     	;# 
   459     019B                     	;# 
   460     019C                     	;# 
   461     019C                     	;# 
   462     019D                     	;# 
   463     019E                     	;# 
   464     019F                     	;# 
   465     020C                     	;# 
   466     020D                     	;# 
   467     0211                     	;# 
   468     0211                     	;# 
   469     0212                     	;# 
   470     0212                     	;# 
   471     0213                     	;# 
   472     0213                     	;# 
   473     0214                     	;# 
   474     0214                     	;# 
   475     0215                     	;# 
   476     0215                     	;# 
   477     0215                     	;# 
   478     0216                     	;# 
   479     0216                     	;# 
   480     0217                     	;# 
   481     0217                     	;# 
   482     0219                     	;# 
   483     021A                     	;# 
   484     021B                     	;# 
   485     021C                     	;# 
   486     021D                     	;# 
   487     021E                     	;# 
   488     021F                     	;# 
   489     0291                     	;# 
   490     0291                     	;# 
   491     0292                     	;# 
   492     0293                     	;# 
   493     0294                     	;# 
   494     0295                     	;# 
   495     0295                     	;# 
   496     0296                     	;# 
   497     0298                     	;# 
   498     0298                     	;# 
   499     0299                     	;# 
   500     029A                     	;# 
   501     029B                     	;# 
   502     029C                     	;# 
   503     029C                     	;# 
   504     029D                     	;# 
   505     029E                     	;# 
   506     029E                     	;# 
   507     0311                     	;# 
   508     0311                     	;# 
   509     0312                     	;# 
   510     0313                     	;# 
   511     0318                     	;# 
   512     0318                     	;# 
   513     0319                     	;# 
   514     031A                     	;# 
   515     0394                     	;# 
   516     0395                     	;# 
   517     0396                     	;# 
   518     039A                     	;# 
   519     039C                     	;# 
   520     039D                     	;# 
   521     039E                     	;# 
   522     039F                     	;# 
   523     0415                     	;# 
   524     0416                     	;# 
   525     0417                     	;# 
   526     041C                     	;# 
   527     041D                     	;# 
   528     041E                     	;# 
   529     0FE4                     	;# 
   530     0FE5                     	;# 
   531     0FE6                     	;# 
   532     0FE7                     	;# 
   533     0FE8                     	;# 
   534     0FE9                     	;# 
   535     0FEA                     	;# 
   536     0FEB                     	;# 
   537     0FED                     	;# 
   538     0FEE                     	;# 
   539     0FEF                     	;# 
   540     0000                     	;# 
   541     0001                     	;# 
   542     0002                     	;# 
   543     0003                     	;# 
   544     0004                     	;# 
   545     0005                     	;# 
   546     0006                     	;# 
   547     0007                     	;# 
   548     0008                     	;# 
   549     0009                     	;# 
   550     000A                     	;# 
   551     000B                     	;# 
   552     000C                     	;# 
   553     000D                     	;# 
   554     0011                     	;# 
   555     0012                     	;# 
   556     0013                     	;# 
   557     0014                     	;# 
   558     0015                     	;# 
   559     0016                     	;# 
   560     0016                     	;# 
   561     0017                     	;# 
   562     0018                     	;# 
   563     0019                     	;# 
   564     001A                     	;# 
   565     001B                     	;# 
   566     001C                     	;# 
   567     001E                     	;# 
   568     001F                     	;# 
   569     008C                     	;# 
   570     008D                     	;# 
   571     0091                     	;# 
   572     0092                     	;# 
   573     0093                     	;# 
   574     0094                     	;# 
   575     0095                     	;# 
   576     0096                     	;# 
   577     0097                     	;# 
   578     0098                     	;# 
   579     0099                     	;# 
   580     009A                     	;# 
   581     009B                     	;# 
   582     009B                     	;# 
   583     009C                     	;# 
   584     009D                     	;# 
   585     009E                     	;# 
   586     010C                     	;# 
   587     010D                     	;# 
   588     0111                     	;# 
   589     0112                     	;# 
   590     0113                     	;# 
   591     0114                     	;# 
   592     0115                     	;# 
   593     0116                     	;# 
   594     0117                     	;# 
   595     0118                     	;# 
   596     0119                     	;# 
   597     011A                     	;# 
   598     011B                     	;# 
   599     011D                     	;# 
   600     011E                     	;# 
   601     018C                     	;# 
   602     018D                     	;# 
   603     0191                     	;# 
   604     0191                     	;# 
   605     0192                     	;# 
   606     0193                     	;# 
   607     0193                     	;# 
   608     0193                     	;# 
   609     0194                     	;# 
   610     0195                     	;# 
   611     0196                     	;# 
   612     0199                     	;# 
   613     019A                     	;# 
   614     019B                     	;# 
   615     019B                     	;# 
   616     019B                     	;# 
   617     019B                     	;# 
   618     019C                     	;# 
   619     019C                     	;# 
   620     019D                     	;# 
   621     019E                     	;# 
   622     019F                     	;# 
   623     020C                     	;# 
   624     020D                     	;# 
   625     0211                     	;# 
   626     0211                     	;# 
   627     0212                     	;# 
   628     0212                     	;# 
   629     0213                     	;# 
   630     0213                     	;# 
   631     0214                     	;# 
   632     0214                     	;# 
   633     0215                     	;# 
   634     0215                     	;# 
   635     0215                     	;# 
   636     0216                     	;# 
   637     0216                     	;# 
   638     0217                     	;# 
   639     0217                     	;# 
   640     0219                     	;# 
   641     021A                     	;# 
   642     021B                     	;# 
   643     021C                     	;# 
   644     021D                     	;# 
   645     021E                     	;# 
   646     021F                     	;# 
   647     0291                     	;# 
   648     0291                     	;# 
   649     0292                     	;# 
   650     0293                     	;# 
   651     0294                     	;# 
   652     0295                     	;# 
   653     0295                     	;# 
   654     0296                     	;# 
   655     0298                     	;# 
   656     0298                     	;# 
   657     0299                     	;# 
   658     029A                     	;# 
   659     029B                     	;# 
   660     029C                     	;# 
   661     029C                     	;# 
   662     029D                     	;# 
   663     029E                     	;# 
   664     029E                     	;# 
   665     0311                     	;# 
   666     0311                     	;# 
   667     0312                     	;# 
   668     0313                     	;# 
   669     0318                     	;# 
   670     0318                     	;# 
   671     0319                     	;# 
   672     031A                     	;# 
   673     0394                     	;# 
   674     0395                     	;# 
   675     0396                     	;# 
   676     039A                     	;# 
   677     039C                     	;# 
   678     039D                     	;# 
   679     039E                     	;# 
   680     039F                     	;# 
   681     0415                     	;# 
   682     0416                     	;# 
   683     0417                     	;# 
   684     041C                     	;# 
   685     041D                     	;# 
   686     041E                     	;# 
   687     0FE4                     	;# 
   688     0FE5                     	;# 
   689     0FE6                     	;# 
   690     0FE7                     	;# 
   691     0FE8                     	;# 
   692     0FE9                     	;# 
   693     0FEA                     	;# 
   694     0FEB                     	;# 
   695     0FED                     	;# 
   696     0FEE                     	;# 
   697     0FEF                     	;# 
   698     0000                     	;# 
   699     0001                     	;# 
   700     0002                     	;# 
   701     0003                     	;# 
   702     0004                     	;# 
   703     0005                     	;# 
   704     0006                     	;# 
   705     0007                     	;# 
   706     0008                     	;# 
   707     0009                     	;# 
   708     000A                     	;# 
   709     000B                     	;# 
   710     000C                     	;# 
   711     000D                     	;# 
   712     0011                     	;# 
   713     0012                     	;# 
   714     0013                     	;# 
   715     0014                     	;# 
   716     0015                     	;# 
   717     0016                     	;# 
   718     0016                     	;# 
   719     0017                     	;# 
   720     0018                     	;# 
   721     0019                     	;# 
   722     001A                     	;# 
   723     001B                     	;# 
   724     001C                     	;# 
   725     001E                     	;# 
   726     001F                     	;# 
   727     008C                     	;# 
   728     008D                     	;# 
   729     0091                     	;# 
   730     0092                     	;# 
   731     0093                     	;# 
   732     0094                     	;# 
   733     0095                     	;# 
   734     0096                     	;# 
   735     0097                     	;# 
   736     0098                     	;# 
   737     0099                     	;# 
   738     009A                     	;# 
   739     009B                     	;# 
   740     009B                     	;# 
   741     009C                     	;# 
   742     009D                     	;# 
   743     009E                     	;# 
   744     010C                     	;# 
   745     010D                     	;# 
   746     0111                     	;# 
   747     0112                     	;# 
   748     0113                     	;# 
   749     0114                     	;# 
   750     0115                     	;# 
   751     0116                     	;# 
   752     0117                     	;# 
   753     0118                     	;# 
   754     0119                     	;# 
   755     011A                     	;# 
   756     011B                     	;# 
   757     011D                     	;# 
   758     011E                     	;# 
   759     018C                     	;# 
   760     018D                     	;# 
   761     0191                     	;# 
   762     0191                     	;# 
   763     0192                     	;# 
   764     0193                     	;# 
   765     0193                     	;# 
   766     0193                     	;# 
   767     0194                     	;# 
   768     0195                     	;# 
   769     0196                     	;# 
   770     0199                     	;# 
   771     019A                     	;# 
   772     019B                     	;# 
   773     019B                     	;# 
   774     019B                     	;# 
   775     019B                     	;# 
   776     019C                     	;# 
   777     019C                     	;# 
   778     019D                     	;# 
   779     019E                     	;# 
   780     019F                     	;# 
   781     020C                     	;# 
   782     020D                     	;# 
   783     0211                     	;# 
   784     0211                     	;# 
   785     0212                     	;# 
   786     0212                     	;# 
   787     0213                     	;# 
   788     0213                     	;# 
   789     0214                     	;# 
   790     0214                     	;# 
   791     0215                     	;# 
   792     0215                     	;# 
   793     0215                     	;# 
   794     0216                     	;# 
   795     0216                     	;# 
   796     0217                     	;# 
   797     0217                     	;# 
   798     0219                     	;# 
   799     021A                     	;# 
   800     021B                     	;# 
   801     021C                     	;# 
   802     021D                     	;# 
   803     021E                     	;# 
   804     021F                     	;# 
   805     0291                     	;# 
   806     0291                     	;# 
   807     0292                     	;# 
   808     0293                     	;# 
   809     0294                     	;# 
   810     0295                     	;# 
   811     0295                     	;# 
   812     0296                     	;# 
   813     0298                     	;# 
   814     0298                     	;# 
   815     0299                     	;# 
   816     029A                     	;# 
   817     029B                     	;# 
   818     029C                     	;# 
   819     029C                     	;# 
   820     029D                     	;# 
   821     029E                     	;# 
   822     029E                     	;# 
   823     0311                     	;# 
   824     0311                     	;# 
   825     0312                     	;# 
   826     0313                     	;# 
   827     0318                     	;# 
   828     0318                     	;# 
   829     0319                     	;# 
   830     031A                     	;# 
   831     0394                     	;# 
   832     0395                     	;# 
   833     0396                     	;# 
   834     039A                     	;# 
   835     039C                     	;# 
   836     039D                     	;# 
   837     039E                     	;# 
   838     039F                     	;# 
   839     0415                     	;# 
   840     0416                     	;# 
   841     0417                     	;# 
   842     041C                     	;# 
   843     041D                     	;# 
   844     041E                     	;# 
   845     0FE4                     	;# 
   846     0FE5                     	;# 
   847     0FE6                     	;# 
   848     0FE7                     	;# 
   849     0FE8                     	;# 
   850     0FE9                     	;# 
   851     0FEA                     	;# 
   852     0FEB                     	;# 
   853     0FED                     	;# 
   854     0FEE                     	;# 
   855     0FEF                     	;# 
   856     0000                     	;# 
   857     0001                     	;# 
   858     0002                     	;# 
   859     0003                     	;# 
   860     0004                     	;# 
   861     0005                     	;# 
   862     0006                     	;# 
   863     0007                     	;# 
   864     0008                     	;# 
   865     0009                     	;# 
   866     000A                     	;# 
   867     000B                     	;# 
   868     000C                     	;# 
   869     000D                     	;# 
   870     0011                     	;# 
   871     0012                     	;# 
   872     0013                     	;# 
   873     0014                     	;# 
   874     0015                     	;# 
   875     0016                     	;# 
   876     0016                     	;# 
   877     0017                     	;# 
   878     0018                     	;# 
   879     0019                     	;# 
   880     001A                     	;# 
   881     001B                     	;# 
   882     001C                     	;# 
   883     001E                     	;# 
   884     001F                     	;# 
   885     008C                     	;# 
   886     008D                     	;# 
   887     0091                     	;# 
   888     0092                     	;# 
   889     0093                     	;# 
   890     0094                     	;# 
   891     0095                     	;# 
   892     0096                     	;# 
   893     0097                     	;# 
   894     0098                     	;# 
   895     0099                     	;# 
   896     009A                     	;# 
   897     009B                     	;# 
   898     009B                     	;# 
   899     009C                     	;# 
   900     009D                     	;# 
   901     009E                     	;# 
   902     010C                     	;# 
   903     010D                     	;# 
   904     0111                     	;# 
   905     0112                     	;# 
   906     0113                     	;# 
   907     0114                     	;# 
   908     0115                     	;# 
   909     0116                     	;# 
   910     0117                     	;# 
   911     0118                     	;# 
   912     0119                     	;# 
   913     011A                     	;# 
   914     011B                     	;# 
   915     011D                     	;# 
   916     011E                     	;# 
   917     018C                     	;# 
   918     018D                     	;# 
   919     0191                     	;# 
   920     0191                     	;# 
   921     0192                     	;# 
   922     0193                     	;# 
   923     0193                     	;# 
   924     0193                     	;# 
   925     0194                     	;# 
   926     0195                     	;# 
   927     0196                     	;# 
   928     0199                     	;# 
   929     019A                     	;# 
   930     019B                     	;# 
   931     019B                     	;# 
   932     019B                     	;# 
   933     019B                     	;# 
   934     019C                     	;# 
   935     019C                     	;# 
   936     019D                     	;# 
   937     019E                     	;# 
   938     019F                     	;# 
   939     020C                     	;# 
   940     020D                     	;# 
   941     0211                     	;# 
   942     0211                     	;# 
   943     0212                     	;# 
   944     0212                     	;# 
   945     0213                     	;# 
   946     0213                     	;# 
   947     0214                     	;# 
   948     0214                     	;# 
   949     0215                     	;# 
   950     0215                     	;# 
   951     0215                     	;# 
   952     0216                     	;# 
   953     0216                     	;# 
   954     0217                     	;# 
   955     0217                     	;# 
   956     0219                     	;# 
   957     021A                     	;# 
   958     021B                     	;# 
   959     021C                     	;# 
   960     021D                     	;# 
   961     021E                     	;# 
   962     021F                     	;# 
   963     0291                     	;# 
   964     0291                     	;# 
   965     0292                     	;# 
   966     0293                     	;# 
   967     0294                     	;# 
   968     0295                     	;# 
   969     0295                     	;# 
   970     0296                     	;# 
   971     0298                     	;# 
   972     0298                     	;# 
   973     0299                     	;# 
   974     029A                     	;# 
   975     029B                     	;# 
   976     029C                     	;# 
   977     029C                     	;# 
   978     029D                     	;# 
   979     029E                     	;# 
   980     029E                     	;# 
   981     0311                     	;# 
   982     0311                     	;# 
   983     0312                     	;# 
   984     0313                     	;# 
   985     0318                     	;# 
   986     0318                     	;# 
   987     0319                     	;# 
   988     031A                     	;# 
   989     0394                     	;# 
   990     0395                     	;# 
   991     0396                     	;# 
   992     039A                     	;# 
   993     039C                     	;# 
   994     039D                     	;# 
   995     039E                     	;# 
   996     039F                     	;# 
   997     0415                     	;# 
   998     0416                     	;# 
   999     0417                     	;# 
  1000     041C                     	;# 
  1001     041D                     	;# 
  1002     041E                     	;# 
  1003     0FE4                     	;# 
  1004     0FE5                     	;# 
  1005     0FE6                     	;# 
  1006     0FE7                     	;# 
  1007     0FE8                     	;# 
  1008     0FE9                     	;# 
  1009     0FEA                     	;# 
  1010     0FEB                     	;# 
  1011     0FED                     	;# 
  1012     0FEE                     	;# 
  1013     0FEF                     	;# 
  1014     0000                     	;# 
  1015     0001                     	;# 
  1016     0002                     	;# 
  1017     0003                     	;# 
  1018     0004                     	;# 
  1019     0005                     	;# 
  1020     0006                     	;# 
  1021     0007                     	;# 
  1022     0008                     	;# 
  1023     0009                     	;# 
  1024     000A                     	;# 
  1025     000B                     	;# 
  1026     000C                     	;# 
  1027     000D                     	;# 
  1028     0011                     	;# 
  1029     0012                     	;# 
  1030     0013                     	;# 
  1031     0014                     	;# 
  1032     0015                     	;# 
  1033     0016                     	;# 
  1034     0016                     	;# 
  1035     0017                     	;# 
  1036     0018                     	;# 
  1037     0019                     	;# 
  1038     001A                     	;# 
  1039     001B                     	;# 
  1040     001C                     	;# 
  1041     001E                     	;# 
  1042     001F                     	;# 
  1043     008C                     	;# 
  1044     008D                     	;# 
  1045     0091                     	;# 
  1046     0092                     	;# 
  1047     0093                     	;# 
  1048     0094                     	;# 
  1049     0095                     	;# 
  1050     0096                     	;# 
  1051     0097                     	;# 
  1052     0098                     	;# 
  1053     0099                     	;# 
  1054     009A                     	;# 
  1055     009B                     	;# 
  1056     009B                     	;# 
  1057     009C                     	;# 
  1058     009D                     	;# 
  1059     009E                     	;# 
  1060     010C                     	;# 
  1061     010D                     	;# 
  1062     0111                     	;# 
  1063     0112                     	;# 
  1064     0113                     	;# 
  1065     0114                     	;# 
  1066     0115                     	;# 
  1067     0116                     	;# 
  1068     0117                     	;# 
  1069     0118                     	;# 
  1070     0119                     	;# 
  1071     011A                     	;# 
  1072     011B                     	;# 
  1073     011D                     	;# 
  1074     011E                     	;# 
  1075     018C                     	;# 
  1076     018D                     	;# 
  1077     0191                     	;# 
  1078     0191                     	;# 
  1079     0192                     	;# 
  1080     0193                     	;# 
  1081     0193                     	;# 
  1082     0193                     	;# 
  1083     0194                     	;# 
  1084     0195                     	;# 
  1085     0196                     	;# 
  1086     0199                     	;# 
  1087     019A                     	;# 
  1088     019B                     	;# 
  1089     019B                     	;# 
  1090     019B                     	;# 
  1091     019B                     	;# 
  1092     019C                     	;# 
  1093     019C                     	;# 
  1094     019D                     	;# 
  1095     019E                     	;# 
  1096     019F                     	;# 
  1097     020C                     	;# 
  1098     020D                     	;# 
  1099     0211                     	;# 
  1100     0211                     	;# 
  1101     0212                     	;# 
  1102     0212                     	;# 
  1103     0213                     	;# 
  1104     0213                     	;# 
  1105     0214                     	;# 
  1106     0214                     	;# 
  1107     0215                     	;# 
  1108     0215                     	;# 
  1109     0215                     	;# 
  1110     0216                     	;# 
  1111     0216                     	;# 
  1112     0217                     	;# 
  1113     0217                     	;# 
  1114     0219                     	;# 
  1115     021A                     	;# 
  1116     021B                     	;# 
  1117     021C                     	;# 
  1118     021D                     	;# 
  1119     021E                     	;# 
  1120     021F                     	;# 
  1121     0291                     	;# 
  1122     0291                     	;# 
  1123     0292                     	;# 
  1124     0293                     	;# 
  1125     0294                     	;# 
  1126     0295                     	;# 
  1127     0295                     	;# 
  1128     0296                     	;# 
  1129     0298                     	;# 
  1130     0298                     	;# 
  1131     0299                     	;# 
  1132     029A                     	;# 
  1133     029B                     	;# 
  1134     029C                     	;# 
  1135     029C                     	;# 
  1136     029D                     	;# 
  1137     029E                     	;# 
  1138     029E                     	;# 
  1139     0311                     	;# 
  1140     0311                     	;# 
  1141     0312                     	;# 
  1142     0313                     	;# 
  1143     0318                     	;# 
  1144     0318                     	;# 
  1145     0319                     	;# 
  1146     031A                     	;# 
  1147     0394                     	;# 
  1148     0395                     	;# 
  1149     0396                     	;# 
  1150     039A                     	;# 
  1151     039C                     	;# 
  1152     039D                     	;# 
  1153     039E                     	;# 
  1154     039F                     	;# 
  1155     0415                     	;# 
  1156     0416                     	;# 
  1157     0417                     	;# 
  1158     041C                     	;# 
  1159     041D                     	;# 
  1160     041E                     	;# 
  1161     0FE4                     	;# 
  1162     0FE5                     	;# 
  1163     0FE6                     	;# 
  1164     0FE7                     	;# 
  1165     0FE8                     	;# 
  1166     0FE9                     	;# 
  1167     0FEA                     	;# 
  1168     0FEB                     	;# 
  1169     0FED                     	;# 
  1170     0FEE                     	;# 
  1171     0FEF                     	;# 
  1172     0000                     	;# 
  1173     0001                     	;# 
  1174     0002                     	;# 
  1175     0003                     	;# 
  1176     0004                     	;# 
  1177     0005                     	;# 
  1178     0006                     	;# 
  1179     0007                     	;# 
  1180     0008                     	;# 
  1181     0009                     	;# 
  1182     000A                     	;# 
  1183     000B                     	;# 
  1184     000C                     	;# 
  1185     000D                     	;# 
  1186     0011                     	;# 
  1187     0012                     	;# 
  1188     0013                     	;# 
  1189     0014                     	;# 
  1190     0015                     	;# 
  1191     0016                     	;# 
  1192     0016                     	;# 
  1193     0017                     	;# 
  1194     0018                     	;# 
  1195     0019                     	;# 
  1196     001A                     	;# 
  1197     001B                     	;# 
  1198     001C                     	;# 
  1199     001E                     	;# 
  1200     001F                     	;# 
  1201     008C                     	;# 
  1202     008D                     	;# 
  1203     0091                     	;# 
  1204     0092                     	;# 
  1205     0093                     	;# 
  1206     0094                     	;# 
  1207     0095                     	;# 
  1208     0096                     	;# 
  1209     0097                     	;# 
  1210     0098                     	;# 
  1211     0099                     	;# 
  1212     009A                     	;# 
  1213     009B                     	;# 
  1214     009B                     	;# 
  1215     009C                     	;# 
  1216     009D                     	;# 
  1217     009E                     	;# 
  1218     010C                     	;# 
  1219     010D                     	;# 
  1220     0111                     	;# 
  1221     0112                     	;# 
  1222     0113                     	;# 
  1223     0114                     	;# 
  1224     0115                     	;# 
  1225     0116                     	;# 
  1226     0117                     	;# 
  1227     0118                     	;# 
  1228     0119                     	;# 
  1229     011A                     	;# 
  1230     011B                     	;# 
  1231     011D                     	;# 
  1232     011E                     	;# 
  1233     018C                     	;# 
  1234     018D                     	;# 
  1235     0191                     	;# 
  1236     0191                     	;# 
  1237     0192                     	;# 
  1238     0193                     	;# 
  1239     0193                     	;# 
  1240     0193                     	;# 
  1241     0194                     	;# 
  1242     0195                     	;# 
  1243     0196                     	;# 
  1244     0199                     	;# 
  1245     019A                     	;# 
  1246     019B                     	;# 
  1247     019B                     	;# 
  1248     019B                     	;# 
  1249     019B                     	;# 
  1250     019C                     	;# 
  1251     019C                     	;# 
  1252     019D                     	;# 
  1253     019E                     	;# 
  1254     019F                     	;# 
  1255     020C                     	;# 
  1256     020D                     	;# 
  1257     0211                     	;# 
  1258     0211                     	;# 
  1259     0212                     	;# 
  1260     0212                     	;# 
  1261     0213                     	;# 
  1262     0213                     	;# 
  1263     0214                     	;# 
  1264     0214                     	;# 
  1265     0215                     	;# 
  1266     0215                     	;# 
  1267     0215                     	;# 
  1268     0216                     	;# 
  1269     0216                     	;# 
  1270     0217                     	;# 
  1271     0217                     	;# 
  1272     0219                     	;# 
  1273     021A                     	;# 
  1274     021B                     	;# 
  1275     021C                     	;# 
  1276     021D                     	;# 
  1277     021E                     	;# 
  1278     021F                     	;# 
  1279     0291                     	;# 
  1280     0291                     	;# 
  1281     0292                     	;# 
  1282     0293                     	;# 
  1283     0294                     	;# 
  1284     0295                     	;# 
  1285     0295                     	;# 
  1286     0296                     	;# 
  1287     0298                     	;# 
  1288     0298                     	;# 
  1289     0299                     	;# 
  1290     029A                     	;# 
  1291     029B                     	;# 
  1292     029C                     	;# 
  1293     029C                     	;# 
  1294     029D                     	;# 
  1295     029E                     	;# 
  1296     029E                     	;# 
  1297     0311                     	;# 
  1298     0311                     	;# 
  1299     0312                     	;# 
  1300     0313                     	;# 
  1301     0318                     	;# 
  1302     0318                     	;# 
  1303     0319                     	;# 
  1304     031A                     	;# 
  1305     0394                     	;# 
  1306     0395                     	;# 
  1307     0396                     	;# 
  1308     039A                     	;# 
  1309     039C                     	;# 
  1310     039D                     	;# 
  1311     039E                     	;# 
  1312     039F                     	;# 
  1313     0415                     	;# 
  1314     0416                     	;# 
  1315     0417                     	;# 
  1316     041C                     	;# 
  1317     041D                     	;# 
  1318     041E                     	;# 
  1319     0FE4                     	;# 
  1320     0FE5                     	;# 
  1321     0FE6                     	;# 
  1322     0FE7                     	;# 
  1323     0FE8                     	;# 
  1324     0FE9                     	;# 
  1325     0FEA                     	;# 
  1326     0FEB                     	;# 
  1327     0FED                     	;# 
  1328     0FEE                     	;# 
  1329     0FEF                     	;# 
  1330     0000                     	;# 
  1331     0001                     	;# 
  1332     0002                     	;# 
  1333     0003                     	;# 
  1334     0004                     	;# 
  1335     0005                     	;# 
  1336     0006                     	;# 
  1337     0007                     	;# 
  1338     0008                     	;# 
  1339     0009                     	;# 
  1340     000A                     	;# 
  1341     000B                     	;# 
  1342     000C                     	;# 
  1343     000D                     	;# 
  1344     0011                     	;# 
  1345     0012                     	;# 
  1346     0013                     	;# 
  1347     0014                     	;# 
  1348     0015                     	;# 
  1349     0016                     	;# 
  1350     0016                     	;# 
  1351     0017                     	;# 
  1352     0018                     	;# 
  1353     0019                     	;# 
  1354     001A                     	;# 
  1355     001B                     	;# 
  1356     001C                     	;# 
  1357     001E                     	;# 
  1358     001F                     	;# 
  1359     008C                     	;# 
  1360     008D                     	;# 
  1361     0091                     	;# 
  1362     0092                     	;# 
  1363     0093                     	;# 
  1364     0094                     	;# 
  1365     0095                     	;# 
  1366     0096                     	;# 
  1367     0097                     	;# 
  1368     0098                     	;# 
  1369     0099                     	;# 
  1370     009A                     	;# 
  1371     009B                     	;# 
  1372     009B                     	;# 
  1373     009C                     	;# 
  1374     009D                     	;# 
  1375     009E                     	;# 
  1376     010C                     	;# 
  1377     010D                     	;# 
  1378     0111                     	;# 
  1379     0112                     	;# 
  1380     0113                     	;# 
  1381     0114                     	;# 
  1382     0115                     	;# 
  1383     0116                     	;# 
  1384     0117                     	;# 
  1385     0118                     	;# 
  1386     0119                     	;# 
  1387     011A                     	;# 
  1388     011B                     	;# 
  1389     011D                     	;# 
  1390     011E                     	;# 
  1391     018C                     	;# 
  1392     018D                     	;# 
  1393     0191                     	;# 
  1394     0191                     	;# 
  1395     0192                     	;# 
  1396     0193                     	;# 
  1397     0193                     	;# 
  1398     0193                     	;# 
  1399     0194                     	;# 
  1400     0195                     	;# 
  1401     0196                     	;# 
  1402     0199                     	;# 
  1403     019A                     	;# 
  1404     019B                     	;# 
  1405     019B                     	;# 
  1406     019B                     	;# 
  1407     019B                     	;# 
  1408     019C                     	;# 
  1409     019C                     	;# 
  1410     019D                     	;# 
  1411     019E                     	;# 
  1412     019F                     	;# 
  1413     020C                     	;# 
  1414     020D                     	;# 
  1415     0211                     	;# 
  1416     0211                     	;# 
  1417     0212                     	;# 
  1418     0212                     	;# 
  1419     0213                     	;# 
  1420     0213                     	;# 
  1421     0214                     	;# 
  1422     0214                     	;# 
  1423     0215                     	;# 
  1424     0215                     	;# 
  1425     0215                     	;# 
  1426     0216                     	;# 
  1427     0216                     	;# 
  1428     0217                     	;# 
  1429     0217                     	;# 
  1430     0219                     	;# 
  1431     021A                     	;# 
  1432     021B                     	;# 
  1433     021C                     	;# 
  1434     021D                     	;# 
  1435     021E                     	;# 
  1436     021F                     	;# 
  1437     0291                     	;# 
  1438     0291                     	;# 
  1439     0292                     	;# 
  1440     0293                     	;# 
  1441     0294                     	;# 
  1442     0295                     	;# 
  1443     0295                     	;# 
  1444     0296                     	;# 
  1445     0298                     	;# 
  1446     0298                     	;# 
  1447     0299                     	;# 
  1448     029A                     	;# 
  1449     029B                     	;# 
  1450     029C                     	;# 
  1451     029C                     	;# 
  1452     029D                     	;# 
  1453     029E                     	;# 
  1454     029E                     	;# 
  1455     0311                     	;# 
  1456     0311                     	;# 
  1457     0312                     	;# 
  1458     0313                     	;# 
  1459     0318                     	;# 
  1460     0318                     	;# 
  1461     0319                     	;# 
  1462     031A                     	;# 
  1463     0394                     	;# 
  1464     0395                     	;# 
  1465     0396                     	;# 
  1466     039A                     	;# 
  1467     039C                     	;# 
  1468     039D                     	;# 
  1469     039E                     	;# 
  1470     039F                     	;# 
  1471     0415                     	;# 
  1472     0416                     	;# 
  1473     0417                     	;# 
  1474     041C                     	;# 
  1475     041D                     	;# 
  1476     041E                     	;# 
  1477     0FE4                     	;# 
  1478     0FE5                     	;# 
  1479     0FE6                     	;# 
  1480     0FE7                     	;# 
  1481     0FE8                     	;# 
  1482     0FE9                     	;# 
  1483     0FEA                     	;# 
  1484     0FEB                     	;# 
  1485     0FED                     	;# 
  1486     0FEE                     	;# 
  1487     0FEF                     	;# 
  1488     0000                     	;# 
  1489     0001                     	;# 
  1490     0002                     	;# 
  1491     0003                     	;# 
  1492     0004                     	;# 
  1493     0005                     	;# 
  1494     0006                     	;# 
  1495     0007                     	;# 
  1496     0008                     	;# 
  1497     0009                     	;# 
  1498     000A                     	;# 
  1499     000B                     	;# 
  1500     000C                     	;# 
  1501     000D                     	;# 
  1502     0011                     	;# 
  1503     0012                     	;# 
  1504     0013                     	;# 
  1505     0014                     	;# 
  1506     0015                     	;# 
  1507     0016                     	;# 
  1508     0016                     	;# 
  1509     0017                     	;# 
  1510     0018                     	;# 
  1511     0019                     	;# 
  1512     001A                     	;# 
  1513     001B                     	;# 
  1514     001C                     	;# 
  1515     001E                     	;# 
  1516     001F                     	;# 
  1517     008C                     	;# 
  1518     008D                     	;# 
  1519     0091                     	;# 
  1520     0092                     	;# 
  1521     0093                     	;# 
  1522     0094                     	;# 
  1523     0095                     	;# 
  1524     0096                     	;# 
  1525     0097                     	;# 
  1526     0098                     	;# 
  1527     0099                     	;# 
  1528     009A                     	;# 
  1529     009B                     	;# 
  1530     009B                     	;# 
  1531     009C                     	;# 
  1532     009D                     	;# 
  1533     009E                     	;# 
  1534     010C                     	;# 
  1535     010D                     	;# 
  1536     0111                     	;# 
  1537     0112                     	;# 
  1538     0113                     	;# 
  1539     0114                     	;# 
  1540     0115                     	;# 
  1541     0116                     	;# 
  1542     0117                     	;# 
  1543     0118                     	;# 
  1544     0119                     	;# 
  1545     011A                     	;# 
  1546     011B                     	;# 
  1547     011D                     	;# 
  1548     011E                     	;# 
  1549     018C                     	;# 
  1550     018D                     	;# 
  1551     0191                     	;# 
  1552     0191                     	;# 
  1553     0192                     	;# 
  1554     0193                     	;# 
  1555     0193                     	;# 
  1556     0193                     	;# 
  1557     0194                     	;# 
  1558     0195                     	;# 
  1559     0196                     	;# 
  1560     0199                     	;# 
  1561     019A                     	;# 
  1562     019B                     	;# 
  1563     019B                     	;# 
  1564     019B                     	;# 
  1565     019B                     	;# 
  1566     019C                     	;# 
  1567     019C                     	;# 
  1568     019D                     	;# 
  1569     019E                     	;# 
  1570     019F                     	;# 
  1571     020C                     	;# 
  1572     020D                     	;# 
  1573     0211                     	;# 
  1574     0211                     	;# 
  1575     0212                     	;# 
  1576     0212                     	;# 
  1577     0213                     	;# 
  1578     0213                     	;# 
  1579     0214                     	;# 
  1580     0214                     	;# 
  1581     0215                     	;# 
  1582     0215                     	;# 
  1583     0215                     	;# 
  1584     0216                     	;# 
  1585     0216                     	;# 
  1586     0217                     	;# 
  1587     0217                     	;# 
  1588     0219                     	;# 
  1589     021A                     	;# 
  1590     021B                     	;# 
  1591     021C                     	;# 
  1592     021D                     	;# 
  1593     021E                     	;# 
  1594     021F                     	;# 
  1595     0291                     	;# 
  1596     0291                     	;# 
  1597     0292                     	;# 
  1598     0293                     	;# 
  1599     0294                     	;# 
  1600     0295                     	;# 
  1601     0295                     	;# 
  1602     0296                     	;# 
  1603     0298                     	;# 
  1604     0298                     	;# 
  1605     0299                     	;# 
  1606     029A                     	;# 
  1607     029B                     	;# 
  1608     029C                     	;# 
  1609     029C                     	;# 
  1610     029D                     	;# 
  1611     029E                     	;# 
  1612     029E                     	;# 
  1613     0311                     	;# 
  1614     0311                     	;# 
  1615     0312                     	;# 
  1616     0313                     	;# 
  1617     0318                     	;# 
  1618     0318                     	;# 
  1619     0319                     	;# 
  1620     031A                     	;# 
  1621     0394                     	;# 
  1622     0395                     	;# 
  1623     0396                     	;# 
  1624     039A                     	;# 
  1625     039C                     	;# 
  1626     039D                     	;# 
  1627     039E                     	;# 
  1628     039F                     	;# 
  1629     0415                     	;# 
  1630     0416                     	;# 
  1631     0417                     	;# 
  1632     041C                     	;# 
  1633     041D                     	;# 
  1634     041E                     	;# 
  1635     0FE4                     	;# 
  1636     0FE5                     	;# 
  1637     0FE6                     	;# 
  1638     0FE7                     	;# 
  1639     0FE8                     	;# 
  1640     0FE9                     	;# 
  1641     0FEA                     	;# 
  1642     0FEB                     	;# 
  1643     0FED                     	;# 
  1644     0FEE                     	;# 
  1645     0FEF                     	;# 
  1646     0000                     	;# 
  1647     0001                     	;# 
  1648     0002                     	;# 
  1649     0003                     	;# 
  1650     0004                     	;# 
  1651     0005                     	;# 
  1652     0006                     	;# 
  1653     0007                     	;# 
  1654     0008                     	;# 
  1655     0009                     	;# 
  1656     000A                     	;# 
  1657     000B                     	;# 
  1658     000C                     	;# 
  1659     000D                     	;# 
  1660     0011                     	;# 
  1661     0012                     	;# 
  1662     0013                     	;# 
  1663     0014                     	;# 
  1664     0015                     	;# 
  1665     0016                     	;# 
  1666     0016                     	;# 
  1667     0017                     	;# 
  1668     0018                     	;# 
  1669     0019                     	;# 
  1670     001A                     	;# 
  1671     001B                     	;# 
  1672     001C                     	;# 
  1673     001E                     	;# 
  1674     001F                     	;# 
  1675     008C                     	;# 
  1676     008D                     	;# 
  1677     0091                     	;# 
  1678     0092                     	;# 
  1679     0093                     	;# 
  1680     0094                     	;# 
  1681     0095                     	;# 
  1682     0096                     	;# 
  1683     0097                     	;# 
  1684     0098                     	;# 
  1685     0099                     	;# 
  1686     009A                     	;# 
  1687     009B                     	;# 
  1688     009B                     	;# 
  1689     009C                     	;# 
  1690     009D                     	;# 
  1691     009E                     	;# 
  1692     010C                     	;# 
  1693     010D                     	;# 
  1694     0111                     	;# 
  1695     0112                     	;# 
  1696     0113                     	;# 
  1697     0114                     	;# 
  1698     0115                     	;# 
  1699     0116                     	;# 
  1700     0117                     	;# 
  1701     0118                     	;# 
  1702     0119                     	;# 
  1703     011A                     	;# 
  1704     011B                     	;# 
  1705     011D                     	;# 
  1706     011E                     	;# 
  1707     018C                     	;# 
  1708     018D                     	;# 
  1709     0191                     	;# 
  1710     0191                     	;# 
  1711     0192                     	;# 
  1712     0193                     	;# 
  1713     0193                     	;# 
  1714     0193                     	;# 
  1715     0194                     	;# 
  1716     0195                     	;# 
  1717     0196                     	;# 
  1718     0199                     	;# 
  1719     019A                     	;# 
  1720     019B                     	;# 
  1721     019B                     	;# 
  1722     019B                     	;# 
  1723     019B                     	;# 
  1724     019C                     	;# 
  1725     019C                     	;# 
  1726     019D                     	;# 
  1727     019E                     	;# 
  1728     019F                     	;# 
  1729     020C                     	;# 
  1730     020D                     	;# 
  1731     0211                     	;# 
  1732     0211                     	;# 
  1733     0212                     	;# 
  1734     0212                     	;# 
  1735     0213                     	;# 
  1736     0213                     	;# 
  1737     0214                     	;# 
  1738     0214                     	;# 
  1739     0215                     	;# 
  1740     0215                     	;# 
  1741     0215                     	;# 
  1742     0216                     	;# 
  1743     0216                     	;# 
  1744     0217                     	;# 
  1745     0217                     	;# 
  1746     0219                     	;# 
  1747     021A                     	;# 
  1748     021B                     	;# 
  1749     021C                     	;# 
  1750     021D                     	;# 
  1751     021E                     	;# 
  1752     021F                     	;# 
  1753     0291                     	;# 
  1754     0291                     	;# 
  1755     0292                     	;# 
  1756     0293                     	;# 
  1757     0294                     	;# 
  1758     0295                     	;# 
  1759     0295                     	;# 
  1760     0296                     	;# 
  1761     0298                     	;# 
  1762     0298                     	;# 
  1763     0299                     	;# 
  1764     029A                     	;# 
  1765     029B                     	;# 
  1766     029C                     	;# 
  1767     029C                     	;# 
  1768     029D                     	;# 
  1769     029E                     	;# 
  1770     029E                     	;# 
  1771     0311                     	;# 
  1772     0311                     	;# 
  1773     0312                     	;# 
  1774     0313                     	;# 
  1775     0318                     	;# 
  1776     0318                     	;# 
  1777     0319                     	;# 
  1778     031A                     	;# 
  1779     0394                     	;# 
  1780     0395                     	;# 
  1781     0396                     	;# 
  1782     039A                     	;# 
  1783     039C                     	;# 
  1784     039D                     	;# 
  1785     039E                     	;# 
  1786     039F                     	;# 
  1787     0415                     	;# 
  1788     0416                     	;# 
  1789     0417                     	;# 
  1790     041C                     	;# 
  1791     041D                     	;# 
  1792     041E                     	;# 
  1793     0FE4                     	;# 
  1794     0FE5                     	;# 
  1795     0FE6                     	;# 
  1796     0FE7                     	;# 
  1797     0FE8                     	;# 
  1798     0FE9                     	;# 
  1799     0FEA                     	;# 
  1800     0FEB                     	;# 
  1801     0FED                     	;# 
  1802     0FEE                     	;# 
  1803     0FEF                     	;# 
  1804                           
  1805                           	psect	nvBANK0
  1806     0042                     __pnvBANK0:
  1807     0042                     _V_RPM:
  1808     0042                     	ds	4
  1809     0046                     _Lum:
  1810     0046                     	ds	2
  1811     0048                     _T:
  1812     0048                     	ds	4
  1813     000B                     _INTCONbits	set	11
  1814     0019                     _T1GCONbits	set	25
  1815     0018                     _T1CONbits	set	24
  1816     0018                     _T1CON	set	24
  1817     0016                     _TMR1L	set	22
  1818     0017                     _TMR1H	set	23
  1819     0019                     _T1GCON	set	25
  1820     001C                     _T2CONbits	set	28
  1821     001C                     _T2CON	set	28
  1822     001A                     _TMR2	set	26
  1823     001B                     _PR2	set	27
  1824     0011                     _PIR1bits	set	17
  1825     0095                     _OPTION_REGbits	set	149
  1826     008D                     _TRISB	set	141
  1827     008C                     _TRISA	set	140
  1828     009D                     _ADCON0bits	set	157
  1829     009D                     _ADCON0	set	157
  1830     009C                     _ADRESH	set	156
  1831     009B                     _ADRESL	set	155
  1832     009E                     _ADCON1	set	158
  1833     0091                     _PIE1bits	set	145
  1834     0097                     _WDTCON	set	151
  1835     0098                     _OSCTUNE	set	152
  1836     0099                     _OSCCON	set	153
  1837     011E                     _APFCON1	set	286
  1838     011D                     _APFCON0	set	285
  1839     010D                     _LATB	set	269
  1840     010C                     _LATA	set	268
  1841     0117                     _FVRCONbits	set	279
  1842     0117                     _FVRCON	set	279
  1843     0116                     _BORCON	set	278
  1844     018C                     _ANSELA	set	396
  1845     018D                     _ANSELB	set	397
  1846     020C                     _WPUA	set	524
  1847     020D                     _WPUB	set	525
  1848     029E                     _CCPTMRS0bits	set	670
  1849     0298                     _CCPR2L	set	664
  1850     0299                     _CCPR2H	set	665
  1851     029D                     _PSTR2CON	set	669
  1852     029B                     _PWM2CON	set	667
  1853     029C                     _ECCP2AS	set	668
  1854     029A                     _CCP2CON	set	666
  1855     0291                     _CCPR1L	set	657
  1856     0292                     _CCPR1H	set	658
  1857     0293                     _CCP1CON	set	659
  1858                           
  1859                           	psect	cinit
  1860     001B                     start_initialization:	
  1861                           ; #config settings
  1862                           
  1863     001B                     __initialization:
  1864                           
  1865                           ; Clear objects allocated to BANK0
  1866     001B  0020               	movlb	0	; select bank0
  1867     001C  01CC               	clrf	__pbssBANK0& (0+127)
  1868     001D  01CD               	clrf	(__pbssBANK0+1)& (0+127)
  1869     001E  01CE               	clrf	(__pbssBANK0+2)& (0+127)
  1870     001F  01CF               	clrf	(__pbssBANK0+3)& (0+127)
  1871     0020                     end_of_initialization:	
  1872                           ;End of C runtime variable initialization code
  1873                           
  1874     0020                     __end_of__initialization:
  1875     0020  107E               	bcf	int$flags,0	;clear compiler interrupt flag (level 1)
  1876     0021  0020               	movlb	0
  1877     0022  3184  2CF8         	ljmp	_main	;jump to C main() function
  1878                           
  1879                           	psect	bssBANK0
  1880     004C                     __pbssBANK0:
  1881     004C                     _timer1ReloadVal:
  1882     004C                     	ds	2
  1883     004E                     _ADC_InterruptHandler:
  1884     004E                     	ds	2
  1885                           
  1886                           	psect	cstackCOMMON
  1887     0070                     __pcstackCOMMON:
  1888     0070                     ?_PIN_MANAGER_Initialize:
  1889     0070                     ?_OSCILLATOR_Initialize:	
  1890                           ; 1 bytes @ 0x0
  1891                           
  1892     0070                     ?_WDT_Initialize:	
  1893                           ; 1 bytes @ 0x0
  1894                           
  1895     0070                     ?_FVR_Initialize:	
  1896                           ; 1 bytes @ 0x0
  1897                           
  1898     0070                     ?_ECCP1_Initialize:	
  1899                           ; 1 bytes @ 0x0
  1900                           
  1901     0070                     ?_EPWM2_Initialize:	
  1902                           ; 1 bytes @ 0x0
  1903                           
  1904     0070                     ?_ADC_Initialize:	
  1905                           ; 1 bytes @ 0x0
  1906                           
  1907     0070                     ?_TMR2_Initialize:	
  1908                           ; 1 bytes @ 0x0
  1909                           
  1910     0070                     ?_TMR1_Initialize:	
  1911                           ; 1 bytes @ 0x0
  1912                           
  1913     0070                     ?_SYSTEM_Initialize:	
  1914                           ; 1 bytes @ 0x0
  1915                           
  1916     0070                     ?_ECCP1_CaptureISR:	
  1917                           ; 1 bytes @ 0x0
  1918                           
  1919     0070                     ?_INTERRUPT_InterruptManager:	
  1920                           ; 1 bytes @ 0x0
  1921                           
  1922     0070                     ?_main:	
  1923                           ; 1 bytes @ 0x0
  1924                           
  1925     0070                     ?__Umul8_16:	
  1926                           ; 1 bytes @ 0x0
  1927                           
  1928     0070                     ?___fldiv:	
  1929                           ; 2 bytes @ 0x0
  1930                           
  1931     0070                     ?___xxtofl:	
  1932                           ; 4 bytes @ 0x0
  1933                           
  1934     0070                     __Umul8_16@multiplicand:	
  1935                           ; 4 bytes @ 0x0
  1936                           
  1937     0070                     ___fldiv@a:	
  1938                           ; 1 bytes @ 0x0
  1939                           
  1940     0070                     ___xxtofl@val:	
  1941                           ; 4 bytes @ 0x0
  1942                           
  1943                           
  1944                           ; 4 bytes @ 0x0
  1945     0070                     	ds	2
  1946     0072                     ??__Umul8_16:
  1947                           
  1948                           ; 1 bytes @ 0x2
  1949     0072                     	ds	2
  1950     0074                     ??___xxtofl:
  1951     0074                     __Umul8_16@product:	
  1952                           ; 1 bytes @ 0x4
  1953                           
  1954     0074                     ___fldiv@b:	
  1955                           ; 2 bytes @ 0x4
  1956                           
  1957                           
  1958                           ; 4 bytes @ 0x4
  1959     0074                     	ds	2
  1960     0076                     __Umul8_16@word_mpld:
  1961                           
  1962                           ; 2 bytes @ 0x6
  1963     0076                     	ds	2
  1964     0078                     ??___fldiv:
  1965     0078                     __Umul8_16@multiplier:	
  1966                           ; 1 bytes @ 0x8
  1967                           
  1968     0078                     ___xxtofl@sign:	
  1969                           ; 1 bytes @ 0x8
  1970                           
  1971                           
  1972                           ; 1 bytes @ 0x8
  1973     0078                     	ds	1
  1974     0079                     ___xxtofl@exp:
  1975                           
  1976                           ; 1 bytes @ 0x9
  1977     0079                     	ds	1
  1978     007A                     ___xxtofl@arg:
  1979                           
  1980                           ; 4 bytes @ 0xA
  1981     007A                     	ds	4
  1982     007E                     ??_ECCP1_CallBack:
  1983     007E                     ??_ECCP1_CaptureISR:	
  1984                           ; 1 bytes @ 0xE
  1985                           
  1986     007E                     ??_INTERRUPT_InterruptManager:	
  1987                           ; 1 bytes @ 0xE
  1988                           
  1989                           
  1990                           	psect	cstackBANK0
  1991     0020                     __pcstackBANK0:	
  1992                           ; 1 bytes @ 0xE
  1993                           
  1994     0020                     ?___flmul:
  1995     0020                     ___fldiv@rem:	
  1996                           ; 4 bytes @ 0x0
  1997                           
  1998     0020                     ___flmul@b:	
  1999                           ; 4 bytes @ 0x0
  2000                           
  2001                           
  2002                           ; 4 bytes @ 0x0
  2003     0020                     	ds	4
  2004     0024                     ___fldiv@sign:
  2005     0024                     ___flmul@a:	
  2006                           ; 1 bytes @ 0x4
  2007                           
  2008                           
  2009                           ; 4 bytes @ 0x4
  2010     0024                     	ds	1
  2011     0025                     ___fldiv@new_exp:
  2012                           
  2013                           ; 2 bytes @ 0x5
  2014     0025                     	ds	2
  2015     0027                     ___fldiv@grs:
  2016                           
  2017                           ; 4 bytes @ 0x7
  2018     0027                     	ds	1
  2019     0028                     ??___flmul:
  2020                           
  2021                           ; 1 bytes @ 0x8
  2022     0028                     	ds	3
  2023     002B                     ___fldiv@bexp:
  2024                           
  2025                           ; 1 bytes @ 0xB
  2026     002B                     	ds	1
  2027     002C                     ___fldiv@aexp:
  2028                           
  2029                           ; 1 bytes @ 0xC
  2030     002C                     	ds	1
  2031     002D                     ___flmul@sign:
  2032                           
  2033                           ; 1 bytes @ 0xD
  2034     002D                     	ds	1
  2035     002E                     ___flmul@grs:
  2036                           
  2037                           ; 4 bytes @ 0xE
  2038     002E                     	ds	4
  2039     0032                     ___flmul@aexp:
  2040                           
  2041                           ; 1 bytes @ 0x12
  2042     0032                     	ds	1
  2043     0033                     ___flmul@bexp:
  2044                           
  2045                           ; 1 bytes @ 0x13
  2046     0033                     	ds	1
  2047     0034                     ___flmul@prod:
  2048                           
  2049                           ; 4 bytes @ 0x14
  2050     0034                     	ds	4
  2051     0038                     ___flmul@temp:
  2052                           
  2053                           ; 2 bytes @ 0x18
  2054     0038                     	ds	2
  2055     003A                     ?_ECCP1_CallBack:
  2056     003A                     ECCP1_CallBack@capturedValue:	
  2057                           ; 1 bytes @ 0x1A
  2058                           
  2059                           
  2060                           ; 2 bytes @ 0x1A
  2061     003A                     	ds	2
  2062     003C                     ECCP1_CaptureISR@module:
  2063                           
  2064                           ; 2 bytes @ 0x1C
  2065     003C                     	ds	2
  2066     003E                     ??_PIN_MANAGER_Initialize:
  2067     003E                     ??_OSCILLATOR_Initialize:	
  2068                           ; 1 bytes @ 0x1E
  2069                           
  2070     003E                     ??_WDT_Initialize:	
  2071                           ; 1 bytes @ 0x1E
  2072                           
  2073     003E                     ??_FVR_Initialize:	
  2074                           ; 1 bytes @ 0x1E
  2075                           
  2076     003E                     ??_ECCP1_Initialize:	
  2077                           ; 1 bytes @ 0x1E
  2078                           
  2079     003E                     ??_EPWM2_Initialize:	
  2080                           ; 1 bytes @ 0x1E
  2081                           
  2082     003E                     ??_ADC_Initialize:	
  2083                           ; 1 bytes @ 0x1E
  2084                           
  2085     003E                     ??_TMR2_Initialize:	
  2086                           ; 1 bytes @ 0x1E
  2087                           
  2088     003E                     ??_TMR1_Initialize:	
  2089                           ; 1 bytes @ 0x1E
  2090                           
  2091     003E                     ??_SYSTEM_Initialize:	
  2092                           ; 1 bytes @ 0x1E
  2093                           
  2094     003E                     ?_EPWM2_LoadDutyValue:	
  2095                           ; 1 bytes @ 0x1E
  2096                           
  2097     003E                     ?_ADC_GetConversion:	
  2098                           ; 1 bytes @ 0x1E
  2099                           
  2100     003E                     EPWM2_LoadDutyValue@dutyValue:	
  2101                           ; 2 bytes @ 0x1E
  2102                           
  2103                           
  2104                           ; 2 bytes @ 0x1E
  2105     003E                     	ds	2
  2106     0040                     ??_ADC_GetConversion:
  2107     0040                     ??_EPWM2_LoadDutyValue:	
  2108                           ; 1 bytes @ 0x20
  2109                           
  2110                           
  2111                           ; 1 bytes @ 0x20
  2112     0040                     	ds	1
  2113     0041                     ADC_GetConversion@channel:
  2114                           
  2115                           ; 1 bytes @ 0x21
  2116     0041                     	ds	1
  2117     0042                     ??_main:
  2118                           
  2119                           	psect	maintext
  2120     04F8                     __pmaintext:	
  2121                           ; 1 bytes @ 0x22
  2122 ;;
  2123 ;;Main: autosize = 0, tempsize = 0, incstack = 0, save=0
  2124 ;;
  2125 ;; *************** function _main *****************
  2126 ;; Defined at:
  2127 ;;		line 48 in file "main.c"
  2128 ;; Parameters:    Size  Location     Type
  2129 ;;		None
  2130 ;; Auto vars:     Size  Location     Type
  2131 ;;		None
  2132 ;; Return value:  Size  Location     Type
  2133 ;;                  1    wreg      void 
  2134 ;; Registers used:
  2135 ;;		wreg, status,2, status,0, pclath, cstack
  2136 ;; Tracked objects:
  2137 ;;		On entry : B1F/0
  2138 ;;		On exit  : 0/0
  2139 ;;		Unchanged: 0/0
  2140 ;; Data sizes:     COMMON   BANK0   BANK1   BANK2   BANK3   BANK4
  2141 ;;      Params:         0       0       0       0       0       0
  2142 ;;      Locals:         0       0       0       0       0       0
  2143 ;;      Temps:          0       0       0       0       0       0
  2144 ;;      Totals:         0       0       0       0       0       0
  2145 ;;Total ram usage:        0 bytes
  2146 ;; Hardware stack levels required when called: 7
  2147 ;; This function calls:
  2148 ;;		_ADC_GetConversion
  2149 ;;		_EPWM2_LoadDutyValue
  2150 ;;		_SYSTEM_Initialize
  2151 ;; This function is called by:
  2152 ;;		Startup code after reset
  2153 ;; This function uses a non-reentrant model
  2154 ;;
  2155                           
  2156     04F8                     _main:	
  2157                           ;psect for function _main
  2158                           
  2159     04F8                     l1870:	
  2160                           ;incstack = 0
  2161                           ; Regs used in _main: [wreg+status,2+status,0+pclath+cstack]
  2162                           
  2163                           
  2164                           ;main.c: 51:     SYSTEM_Initialize();
  2165     04F8  3185  2564  3184   	fcall	_SYSTEM_Initialize
  2166     04FB                     l1872:
  2167                           
  2168                           ;main.c: 53:     Lum = 0;
  2169     04FB  0020               	movlb	0	; select bank0
  2170     04FC  01C6               	clrf	_Lum
  2171     04FD  01C7               	clrf	_Lum+1
  2172     04FE                     l1874:
  2173                           
  2174                           ;main.c: 54:     V_RPM = 0;
  2175     04FE  3000               	movlw	0
  2176     04FF  00C5               	movwf	_V_RPM+3
  2177     0500  3000               	movlw	0
  2178     0501  00C4               	movwf	_V_RPM+2
  2179     0502  3000               	movlw	0
  2180     0503  00C3               	movwf	_V_RPM+1
  2181     0504  3000               	movlw	0
  2182     0505  00C2               	movwf	_V_RPM
  2183     0506                     l1876:
  2184                           
  2185                           ;main.c: 55:     T = 0;
  2186     0506  3000               	movlw	0
  2187     0507  00CB               	movwf	_T+3
  2188     0508  3000               	movlw	0
  2189     0509  00CA               	movwf	_T+2
  2190     050A  3000               	movlw	0
  2191     050B  00C9               	movwf	_T+1
  2192     050C  3000               	movlw	0
  2193     050D  00C8               	movwf	_T
  2194     050E                     l1878:
  2195                           
  2196                           ;main.c: 61:     (INTCONbits.GIE = 1);
  2197     050E  178B               	bsf	11,7	;volatile
  2198     050F                     l1880:
  2199                           
  2200                           ;main.c: 64:     (INTCONbits.PEIE = 1);
  2201     050F  170B               	bsf	11,6	;volatile
  2202     0510                     l1882:
  2203                           
  2204                           ;main.c: 73:     {;main.c: 74:         Lum = ADC_GetConversion(LDR);
  2205     0510  3001               	movlw	1
  2206     0511  3185  2546  3184   	fcall	_ADC_GetConversion
  2207     0514  0020               	movlb	0	; select bank0
  2208     0515  083F               	movf	?_ADC_GetConversion+1,w
  2209     0516  00C7               	movwf	_Lum+1
  2210     0517  083E               	movf	?_ADC_GetConversion,w
  2211     0518  00C6               	movwf	_Lum
  2212     0519                     l1884:
  2213                           
  2214                           ;main.c: 75:         EPWM2_LoadDutyValue(Lum);
  2215     0519  0847               	movf	_Lum+1,w
  2216     051A  00BF               	movwf	EPWM2_LoadDutyValue@dutyValue+1
  2217     051B  0846               	movf	_Lum,w
  2218     051C  00BE               	movwf	EPWM2_LoadDutyValue@dutyValue
  2219     051D  3185  2580  3184   	fcall	_EPWM2_LoadDutyValue
  2220     0520  2D10               	goto	l1882
  2221     0521  3180  2819         	ljmp	start
  2222     0523                     __end_of_main:
  2223                           
  2224                           	psect	text1
  2225     0564                     __ptext1:	
  2226 ;; *************** function _SYSTEM_Initialize *****************
  2227 ;; Defined at:
  2228 ;;		line 50 in file "mcc_generated_files/mcc.c"
  2229 ;; Parameters:    Size  Location     Type
  2230 ;;		None
  2231 ;; Auto vars:     Size  Location     Type
  2232 ;;		None
  2233 ;; Return value:  Size  Location     Type
  2234 ;;                  1    wreg      void 
  2235 ;; Registers used:
  2236 ;;		wreg, status,2, status,0, pclath, cstack
  2237 ;; Tracked objects:
  2238 ;;		On entry : 0/0
  2239 ;;		On exit  : 0/0
  2240 ;;		Unchanged: 0/0
  2241 ;; Data sizes:     COMMON   BANK0   BANK1   BANK2   BANK3   BANK4
  2242 ;;      Params:         0       0       0       0       0       0
  2243 ;;      Locals:         0       0       0       0       0       0
  2244 ;;      Temps:          0       0       0       0       0       0
  2245 ;;      Totals:         0       0       0       0       0       0
  2246 ;;Total ram usage:        0 bytes
  2247 ;; Hardware stack levels used: 1
  2248 ;; Hardware stack levels required when called: 6
  2249 ;; This function calls:
  2250 ;;		_ADC_Initialize
  2251 ;;		_ECCP1_Initialize
  2252 ;;		_EPWM2_Initialize
  2253 ;;		_FVR_Initialize
  2254 ;;		_OSCILLATOR_Initialize
  2255 ;;		_PIN_MANAGER_Initialize
  2256 ;;		_TMR1_Initialize
  2257 ;;		_TMR2_Initialize
  2258 ;;		_WDT_Initialize
  2259 ;; This function is called by:
  2260 ;;		_main
  2261 ;; This function uses a non-reentrant model
  2262 ;;
  2263                           
  2264     0564                     _SYSTEM_Initialize:	
  2265                           ;psect for function _SYSTEM_Initialize
  2266                           
  2267     0564                     l1824:	
  2268                           ;incstack = 0
  2269                           ; Regs used in _SYSTEM_Initialize: [wreg+status,2+status,0+pclath+cstack]
  2270                           
  2271                           
  2272                           ;mcc_generated_files/mcc.c: 53:     PIN_MANAGER_Initialize();
  2273     0564  3185  259C  3185   	fcall	_PIN_MANAGER_Initialize
  2274                           
  2275                           ;mcc_generated_files/mcc.c: 54:     OSCILLATOR_Initialize();
  2276     0567  3185  25FA  3185   	fcall	_OSCILLATOR_Initialize
  2277                           
  2278                           ;mcc_generated_files/mcc.c: 55:     WDT_Initialize();
  2279     056A  3186  2601  3185   	fcall	_WDT_Initialize
  2280                           
  2281                           ;mcc_generated_files/mcc.c: 56:     FVR_Initialize();
  2282     056D  3186  2605  3185   	fcall	_FVR_Initialize
  2283                           
  2284                           ;mcc_generated_files/mcc.c: 57:     ECCP1_Initialize();
  2285     0570  3185  25E0  3185   	fcall	_ECCP1_Initialize
  2286                           
  2287                           ;mcc_generated_files/mcc.c: 58:     EPWM2_Initialize();
  2288     0573  3185  25C6  3185   	fcall	_EPWM2_Initialize
  2289                           
  2290                           ;mcc_generated_files/mcc.c: 59:     ADC_Initialize();
  2291     0576  3185  25F2  3185   	fcall	_ADC_Initialize
  2292                           
  2293                           ;mcc_generated_files/mcc.c: 60:     TMR2_Initialize();
  2294     0579  3185  25EA  3185   	fcall	_TMR2_Initialize
  2295                           
  2296                           ;mcc_generated_files/mcc.c: 61:     TMR1_Initialize();
  2297     057C  3185  25D4  3185   	fcall	_TMR1_Initialize
  2298     057F                     l29:
  2299     057F  0008               	return
  2300     0580                     __end_of_SYSTEM_Initialize:
  2301                           
  2302                           	psect	text2
  2303     0601                     __ptext2:	
  2304 ;; *************** function _WDT_Initialize *****************
  2305 ;; Defined at:
  2306 ;;		line 74 in file "mcc_generated_files/mcc.c"
  2307 ;; Parameters:    Size  Location     Type
  2308 ;;		None
  2309 ;; Auto vars:     Size  Location     Type
  2310 ;;		None
  2311 ;; Return value:  Size  Location     Type
  2312 ;;                  1    wreg      void 
  2313 ;; Registers used:
  2314 ;;		wreg
  2315 ;; Tracked objects:
  2316 ;;		On entry : 0/0
  2317 ;;		On exit  : 0/0
  2318 ;;		Unchanged: 0/0
  2319 ;; Data sizes:     COMMON   BANK0   BANK1   BANK2   BANK3   BANK4
  2320 ;;      Params:         0       0       0       0       0       0
  2321 ;;      Locals:         0       0       0       0       0       0
  2322 ;;      Temps:          0       0       0       0       0       0
  2323 ;;      Totals:         0       0       0       0       0       0
  2324 ;;Total ram usage:        0 bytes
  2325 ;; Hardware stack levels used: 1
  2326 ;; Hardware stack levels required when called: 5
  2327 ;; This function calls:
  2328 ;;		Nothing
  2329 ;; This function is called by:
  2330 ;;		_SYSTEM_Initialize
  2331 ;; This function uses a non-reentrant model
  2332 ;;
  2333                           
  2334     0601                     _WDT_Initialize:	
  2335                           ;psect for function _WDT_Initialize
  2336                           
  2337     0601                     l1774:	
  2338                           ;incstack = 0
  2339                           ; Regs used in _WDT_Initialize: [wreg]
  2340                           
  2341                           
  2342                           ;mcc_generated_files/mcc.c: 77:     WDTCON = 0x16;
  2343     0601  3016               	movlw	22
  2344     0602  0021               	movlb	1	; select bank1
  2345     0603  0097               	movwf	23	;volatile
  2346     0604                     l35:
  2347     0604  0008               	return
  2348     0605                     __end_of_WDT_Initialize:
  2349                           
  2350                           	psect	text3
  2351     05EA                     __ptext3:	
  2352 ;; *************** function _TMR2_Initialize *****************
  2353 ;; Defined at:
  2354 ;;		line 62 in file "mcc_generated_files/tmr2.c"
  2355 ;; Parameters:    Size  Location     Type
  2356 ;;		None
  2357 ;; Auto vars:     Size  Location     Type
  2358 ;;		None
  2359 ;; Return value:  Size  Location     Type
  2360 ;;                  1    wreg      void 
  2361 ;; Registers used:
  2362 ;;		wreg, status,2
  2363 ;; Tracked objects:
  2364 ;;		On entry : 0/0
  2365 ;;		On exit  : 0/0
  2366 ;;		Unchanged: 0/0
  2367 ;; Data sizes:     COMMON   BANK0   BANK1   BANK2   BANK3   BANK4
  2368 ;;      Params:         0       0       0       0       0       0
  2369 ;;      Locals:         0       0       0       0       0       0
  2370 ;;      Temps:          0       0       0       0       0       0
  2371 ;;      Totals:         0       0       0       0       0       0
  2372 ;;Total ram usage:        0 bytes
  2373 ;; Hardware stack levels used: 1
  2374 ;; Hardware stack levels required when called: 5
  2375 ;; This function calls:
  2376 ;;		Nothing
  2377 ;; This function is called by:
  2378 ;;		_SYSTEM_Initialize
  2379 ;; This function uses a non-reentrant model
  2380 ;;
  2381                           
  2382     05EA                     _TMR2_Initialize:	
  2383                           ;psect for function _TMR2_Initialize
  2384                           
  2385     05EA                     l1806:	
  2386                           ;incstack = 0
  2387                           ; Regs used in _TMR2_Initialize: [wreg+status,2]
  2388                           
  2389                           
  2390                           ;mcc_generated_files/tmr2.c: 67:     PR2 = 0xFF;
  2391     05EA  30FF               	movlw	255
  2392     05EB  0020               	movlb	0	; select bank0
  2393     05EC  009B               	movwf	27	;volatile
  2394     05ED                     l1808:
  2395                           
  2396                           ;mcc_generated_files/tmr2.c: 70:     TMR2 = 0x00;
  2397     05ED  019A               	clrf	26	;volatile
  2398     05EE                     l1810:
  2399                           
  2400                           ;mcc_generated_files/tmr2.c: 73:     PIR1bits.TMR2IF = 0;
  2401     05EE  1091               	bcf	17,1	;volatile
  2402     05EF                     l1812:
  2403                           
  2404                           ;mcc_generated_files/tmr2.c: 76:     T2CON = 0x04;
  2405     05EF  3004               	movlw	4
  2406     05F0  009C               	movwf	28	;volatile
  2407     05F1                     l171:
  2408     05F1  0008               	return
  2409     05F2                     __end_of_TMR2_Initialize:
  2410                           
  2411                           	psect	text4
  2412     05D4                     __ptext4:	
  2413 ;; *************** function _TMR1_Initialize *****************
  2414 ;; Defined at:
  2415 ;;		line 63 in file "mcc_generated_files/tmr1.c"
  2416 ;; Parameters:    Size  Location     Type
  2417 ;;		None
  2418 ;; Auto vars:     Size  Location     Type
  2419 ;;		None
  2420 ;; Return value:  Size  Location     Type
  2421 ;;                  1    wreg      void 
  2422 ;; Registers used:
  2423 ;;		wreg, status,2
  2424 ;; Tracked objects:
  2425 ;;		On entry : 0/0
  2426 ;;		On exit  : 0/0
  2427 ;;		Unchanged: 0/0
  2428 ;; Data sizes:     COMMON   BANK0   BANK1   BANK2   BANK3   BANK4
  2429 ;;      Params:         0       0       0       0       0       0
  2430 ;;      Locals:         0       0       0       0       0       0
  2431 ;;      Temps:          0       0       0       0       0       0
  2432 ;;      Totals:         0       0       0       0       0       0
  2433 ;;Total ram usage:        0 bytes
  2434 ;; Hardware stack levels used: 1
  2435 ;; Hardware stack levels required when called: 5
  2436 ;; This function calls:
  2437 ;;		Nothing
  2438 ;; This function is called by:
  2439 ;;		_SYSTEM_Initialize
  2440 ;; This function uses a non-reentrant model
  2441 ;;
  2442                           
  2443     05D4                     _TMR1_Initialize:	
  2444                           ;psect for function _TMR1_Initialize
  2445                           
  2446     05D4                     l1814:	
  2447                           ;incstack = 0
  2448                           ; Regs used in _TMR1_Initialize: [wreg+status,2]
  2449                           
  2450                           
  2451                           ;mcc_generated_files/tmr1.c: 68:     T1GCON = 0x00;
  2452     05D4  0020               	movlb	0	; select bank0
  2453     05D5  0199               	clrf	25	;volatile
  2454                           
  2455                           ;mcc_generated_files/tmr1.c: 71:     TMR1H = 0x00;
  2456     05D6  0197               	clrf	23	;volatile
  2457                           
  2458                           ;mcc_generated_files/tmr1.c: 74:     TMR1L = 0x00;
  2459     05D7  0196               	clrf	22	;volatile
  2460     05D8                     l1816:
  2461                           
  2462                           ;mcc_generated_files/tmr1.c: 77:     PIR1bits.TMR1IF = 0;
  2463     05D8  1011               	bcf	17,0	;volatile
  2464     05D9                     l1818:
  2465                           
  2466                           ;mcc_generated_files/tmr1.c: 80:     timer1ReloadVal=(uint16_t)((TMR1H << 8) | TMR1L);
  2467     05D9  0817               	movf	23,w	;volatile
  2468     05DA  00CD               	movwf	_timer1ReloadVal+1	;volatile
  2469     05DB  0816               	movf	22,w	;volatile
  2470     05DC  00CC               	movwf	_timer1ReloadVal	;volatile
  2471     05DD                     l1820:
  2472                           
  2473                           ;mcc_generated_files/tmr1.c: 83:     T1CON = 0x31;
  2474     05DD  3031               	movlw	49
  2475     05DE  0098               	movwf	24	;volatile
  2476     05DF                     l209:
  2477     05DF  0008               	return
  2478     05E0                     __end_of_TMR1_Initialize:
  2479                           
  2480                           	psect	text5
  2481     059C                     __ptext5:	
  2482 ;; *************** function _PIN_MANAGER_Initialize *****************
  2483 ;; Defined at:
  2484 ;;		line 55 in file "mcc_generated_files/pin_manager.c"
  2485 ;; Parameters:    Size  Location     Type
  2486 ;;		None
  2487 ;; Auto vars:     Size  Location     Type
  2488 ;;		None
  2489 ;; Return value:  Size  Location     Type
  2490 ;;                  1    wreg      void 
  2491 ;; Registers used:
  2492 ;;		wreg, status,2
  2493 ;; Tracked objects:
  2494 ;;		On entry : 0/0
  2495 ;;		On exit  : 0/0
  2496 ;;		Unchanged: 0/0
  2497 ;; Data sizes:     COMMON   BANK0   BANK1   BANK2   BANK3   BANK4
  2498 ;;      Params:         0       0       0       0       0       0
  2499 ;;      Locals:         0       0       0       0       0       0
  2500 ;;      Temps:          0       0       0       0       0       0
  2501 ;;      Totals:         0       0       0       0       0       0
  2502 ;;Total ram usage:        0 bytes
  2503 ;; Hardware stack levels used: 1
  2504 ;; Hardware stack levels required when called: 5
  2505 ;; This function calls:
  2506 ;;		Nothing
  2507 ;; This function is called by:
  2508 ;;		_SYSTEM_Initialize
  2509 ;; This function uses a non-reentrant model
  2510 ;;
  2511                           
  2512     059C                     _PIN_MANAGER_Initialize:	
  2513                           ;psect for function _PIN_MANAGER_Initialize
  2514                           
  2515     059C                     l1750:	
  2516                           ;incstack = 0
  2517                           ; Regs used in _PIN_MANAGER_Initialize: [wreg+status,2]
  2518                           
  2519                           
  2520                           ;mcc_generated_files/pin_manager.c: 60:     LATA = 0x00;
  2521     059C  0022               	movlb	2	; select bank2
  2522     059D  018C               	clrf	12	;volatile
  2523                           
  2524                           ;mcc_generated_files/pin_manager.c: 61:     LATB = 0x00;
  2525     059E  018D               	clrf	13	;volatile
  2526     059F                     l1752:
  2527                           
  2528                           ;mcc_generated_files/pin_manager.c: 66:     TRISA = 0x7F;
  2529     059F  307F               	movlw	127
  2530     05A0  0021               	movlb	1	; select bank1
  2531     05A1  008C               	movwf	12	;volatile
  2532     05A2                     l1754:
  2533                           
  2534                           ;mcc_generated_files/pin_manager.c: 67:     TRISB = 0xFF;
  2535     05A2  30FF               	movlw	255
  2536     05A3  008D               	movwf	13	;volatile
  2537     05A4                     l1756:
  2538                           
  2539                           ;mcc_generated_files/pin_manager.c: 72:     ANSELB = 0xFE;
  2540     05A4  30FE               	movlw	254
  2541     05A5  0023               	movlb	3	; select bank3
  2542     05A6  008D               	movwf	13	;volatile
  2543     05A7                     l1758:
  2544                           
  2545                           ;mcc_generated_files/pin_manager.c: 73:     ANSELA = 0x1F;
  2546     05A7  301F               	movlw	31
  2547     05A8  008C               	movwf	12	;volatile
  2548     05A9                     l1760:
  2549                           
  2550                           ;mcc_generated_files/pin_manager.c: 78:     WPUB = 0x01;
  2551     05A9  3001               	movlw	1
  2552     05AA  0024               	movlb	4	; select bank4
  2553     05AB  008D               	movwf	13	;volatile
  2554     05AC                     l1762:
  2555                           
  2556                           ;mcc_generated_files/pin_manager.c: 79:     WPUA = 0x00;
  2557     05AC  018C               	clrf	12	;volatile
  2558     05AD                     l1764:
  2559                           
  2560                           ;mcc_generated_files/pin_manager.c: 80:     OPTION_REGbits.nWPUEN = 0;
  2561     05AD  0021               	movlb	1	; select bank1
  2562     05AE  1395               	bcf	21,7	;volatile
  2563                           
  2564                           ;mcc_generated_files/pin_manager.c: 86:     APFCON0 = 0x0B;
  2565     05AF  300B               	movlw	11
  2566     05B0  0022               	movlb	2	; select bank2
  2567     05B1  009D               	movwf	29	;volatile
  2568     05B2                     l1766:
  2569                           
  2570                           ;mcc_generated_files/pin_manager.c: 87:     APFCON1 = 0x00;
  2571     05B2  019E               	clrf	30	;volatile
  2572     05B3                     l155:
  2573     05B3  0008               	return
  2574     05B4                     __end_of_PIN_MANAGER_Initialize:
  2575                           
  2576                           	psect	text6
  2577     05FA                     __ptext6:	
  2578 ;; *************** function _OSCILLATOR_Initialize *****************
  2579 ;; Defined at:
  2580 ;;		line 64 in file "mcc_generated_files/mcc.c"
  2581 ;; Parameters:    Size  Location     Type
  2582 ;;		None
  2583 ;; Auto vars:     Size  Location     Type
  2584 ;;		None
  2585 ;; Return value:  Size  Location     Type
  2586 ;;                  1    wreg      void 
  2587 ;; Registers used:
  2588 ;;		wreg, status,2
  2589 ;; Tracked objects:
  2590 ;;		On entry : 0/0
  2591 ;;		On exit  : 0/0
  2592 ;;		Unchanged: 0/0
  2593 ;; Data sizes:     COMMON   BANK0   BANK1   BANK2   BANK3   BANK4
  2594 ;;      Params:         0       0       0       0       0       0
  2595 ;;      Locals:         0       0       0       0       0       0
  2596 ;;      Temps:          0       0       0       0       0       0
  2597 ;;      Totals:         0       0       0       0       0       0
  2598 ;;Total ram usage:        0 bytes
  2599 ;; Hardware stack levels used: 1
  2600 ;; Hardware stack levels required when called: 5
  2601 ;; This function calls:
  2602 ;;		Nothing
  2603 ;; This function is called by:
  2604 ;;		_SYSTEM_Initialize
  2605 ;; This function uses a non-reentrant model
  2606 ;;
  2607                           
  2608     05FA                     _OSCILLATOR_Initialize:	
  2609                           ;psect for function _OSCILLATOR_Initialize
  2610                           
  2611     05FA                     l1768:	
  2612                           ;incstack = 0
  2613                           ; Regs used in _OSCILLATOR_Initialize: [wreg+status,2]
  2614                           
  2615                           
  2616                           ;mcc_generated_files/mcc.c: 67:     OSCCON = 0x60;
  2617     05FA  3060               	movlw	96
  2618     05FB  0021               	movlb	1	; select bank1
  2619     05FC  0099               	movwf	25	;volatile
  2620     05FD                     l1770:
  2621                           
  2622                           ;mcc_generated_files/mcc.c: 69:     OSCTUNE = 0x00;
  2623     05FD  0198               	clrf	24	;volatile
  2624     05FE                     l1772:
  2625                           
  2626                           ;mcc_generated_files/mcc.c: 71:     BORCON = 0x00;
  2627     05FE  0022               	movlb	2	; select bank2
  2628     05FF  0196               	clrf	22	;volatile
  2629     0600                     l32:
  2630     0600  0008               	return
  2631     0601                     __end_of_OSCILLATOR_Initialize:
  2632                           
  2633                           	psect	text7
  2634     0605                     __ptext7:	
  2635 ;; *************** function _FVR_Initialize *****************
  2636 ;; Defined at:
  2637 ;;		line 58 in file "mcc_generated_files/fvr.c"
  2638 ;; Parameters:    Size  Location     Type
  2639 ;;		None
  2640 ;; Auto vars:     Size  Location     Type
  2641 ;;		None
  2642 ;; Return value:  Size  Location     Type
  2643 ;;                  1    wreg      void 
  2644 ;; Registers used:
  2645 ;;		wreg
  2646 ;; Tracked objects:
  2647 ;;		On entry : 0/0
  2648 ;;		On exit  : 0/0
  2649 ;;		Unchanged: 0/0
  2650 ;; Data sizes:     COMMON   BANK0   BANK1   BANK2   BANK3   BANK4
  2651 ;;      Params:         0       0       0       0       0       0
  2652 ;;      Locals:         0       0       0       0       0       0
  2653 ;;      Temps:          0       0       0       0       0       0
  2654 ;;      Totals:         0       0       0       0       0       0
  2655 ;;Total ram usage:        0 bytes
  2656 ;; Hardware stack levels used: 1
  2657 ;; Hardware stack levels required when called: 5
  2658 ;; This function calls:
  2659 ;;		Nothing
  2660 ;; This function is called by:
  2661 ;;		_SYSTEM_Initialize
  2662 ;; This function uses a non-reentrant model
  2663 ;;
  2664                           
  2665     0605                     _FVR_Initialize:	
  2666                           ;psect for function _FVR_Initialize
  2667                           
  2668     0605                     l1776:	
  2669                           ;incstack = 0
  2670                           ; Regs used in _FVR_Initialize: [wreg]
  2671                           
  2672                           
  2673                           ;mcc_generated_files/fvr.c: 61:     FVRCON = 0x83;
  2674     0605  3083               	movlw	131
  2675     0606  0022               	movlb	2	; select bank2
  2676     0607  0097               	movwf	23	;volatile
  2677     0608                     l69:
  2678     0608  0008               	return
  2679     0609                     __end_of_FVR_Initialize:
  2680                           
  2681                           	psect	text8
  2682     05C6                     __ptext8:	
  2683 ;; *************** function _EPWM2_Initialize *****************
  2684 ;; Defined at:
  2685 ;;		line 64 in file "mcc_generated_files/epwm2.c"
  2686 ;; Parameters:    Size  Location     Type
  2687 ;;		None
  2688 ;; Auto vars:     Size  Location     Type
  2689 ;;		None
  2690 ;; Return value:  Size  Location     Type
  2691 ;;                  1    wreg      void 
  2692 ;; Registers used:
  2693 ;;		wreg, status,2, status,0
  2694 ;; Tracked objects:
  2695 ;;		On entry : 0/0
  2696 ;;		On exit  : 0/0
  2697 ;;		Unchanged: 0/0
  2698 ;; Data sizes:     COMMON   BANK0   BANK1   BANK2   BANK3   BANK4
  2699 ;;      Params:         0       0       0       0       0       0
  2700 ;;      Locals:         0       0       0       0       0       0
  2701 ;;      Temps:          0       0       0       0       0       0
  2702 ;;      Totals:         0       0       0       0       0       0
  2703 ;;Total ram usage:        0 bytes
  2704 ;; Hardware stack levels used: 1
  2705 ;; Hardware stack levels required when called: 5
  2706 ;; This function calls:
  2707 ;;		Nothing
  2708 ;; This function is called by:
  2709 ;;		_SYSTEM_Initialize
  2710 ;; This function uses a non-reentrant model
  2711 ;;
  2712                           
  2713     05C6                     _EPWM2_Initialize:	
  2714                           ;psect for function _EPWM2_Initialize
  2715                           
  2716     05C6                     l1788:	
  2717                           ;incstack = 0
  2718                           ; Regs used in _EPWM2_Initialize: [wreg+status,2+status,0]
  2719                           
  2720                           
  2721                           ;mcc_generated_files/epwm2.c: 69:  CCP2CON = 0x3C;
  2722     05C6  303C               	movlw	60
  2723     05C7  0025               	movlb	5	; select bank5
  2724     05C8  009A               	movwf	26	;volatile
  2725     05C9                     l1790:
  2726                           
  2727                           ;mcc_generated_files/epwm2.c: 72:  ECCP2AS = 0x00;
  2728     05C9  019C               	clrf	28	;volatile
  2729     05CA                     l1792:
  2730                           
  2731                           ;mcc_generated_files/epwm2.c: 75:  PWM2CON = 0x80;
  2732     05CA  3080               	movlw	128
  2733     05CB  009B               	movwf	27	;volatile
  2734     05CC                     l1794:
  2735                           
  2736                           ;mcc_generated_files/epwm2.c: 78:  PSTR2CON = 0x01;
  2737     05CC  3001               	movlw	1
  2738     05CD  009D               	movwf	29	;volatile
  2739     05CE                     l1796:
  2740                           
  2741                           ;mcc_generated_files/epwm2.c: 81:  CCPR2H = 0x00;
  2742     05CE  0199               	clrf	25	;volatile
  2743                           
  2744                           ;mcc_generated_files/epwm2.c: 84:  CCPR2L = 0x7F;
  2745     05CF  307F               	movlw	127
  2746     05D0  0098               	movwf	24	;volatile
  2747     05D1                     l1798:
  2748                           
  2749                           ;mcc_generated_files/epwm2.c: 87:  CCPTMRS0bits.C2TSEL = 0x0;
  2750     05D1  30F3               	movlw	-13
  2751     05D2  059E               	andwf	30,f	;volatile
  2752     05D3                     l127:
  2753     05D3  0008               	return
  2754     05D4                     __end_of_EPWM2_Initialize:
  2755                           
  2756                           	psect	text9
  2757     05E0                     __ptext9:	
  2758 ;; *************** function _ECCP1_Initialize *****************
  2759 ;; Defined at:
  2760 ;;		line 59 in file "mcc_generated_files/eccp1.c"
  2761 ;; Parameters:    Size  Location     Type
  2762 ;;		None
  2763 ;; Auto vars:     Size  Location     Type
  2764 ;;		None
  2765 ;; Return value:  Size  Location     Type
  2766 ;;                  1    wreg      void 
  2767 ;; Registers used:
  2768 ;;		wreg, status,2
  2769 ;; Tracked objects:
  2770 ;;		On entry : 0/0
  2771 ;;		On exit  : 0/0
  2772 ;;		Unchanged: 0/0
  2773 ;; Data sizes:     COMMON   BANK0   BANK1   BANK2   BANK3   BANK4
  2774 ;;      Params:         0       0       0       0       0       0
  2775 ;;      Locals:         0       0       0       0       0       0
  2776 ;;      Temps:          0       0       0       0       0       0
  2777 ;;      Totals:         0       0       0       0       0       0
  2778 ;;Total ram usage:        0 bytes
  2779 ;; Hardware stack levels used: 1
  2780 ;; Hardware stack levels required when called: 5
  2781 ;; This function calls:
  2782 ;;		Nothing
  2783 ;; This function is called by:
  2784 ;;		_SYSTEM_Initialize
  2785 ;; This function uses a non-reentrant model
  2786 ;;
  2787                           
  2788     05E0                     _ECCP1_Initialize:	
  2789                           ;psect for function _ECCP1_Initialize
  2790                           
  2791     05E0                     l1778:	
  2792                           ;incstack = 0
  2793                           ; Regs used in _ECCP1_Initialize: [wreg+status,2]
  2794                           
  2795                           
  2796                           ;mcc_generated_files/eccp1.c: 64:  CCP1CON = 0x36;
  2797     05E0  3036               	movlw	54
  2798     05E1  0025               	movlb	5	; select bank5
  2799     05E2  0093               	movwf	19	;volatile
  2800     05E3                     l1780:
  2801                           
  2802                           ;mcc_generated_files/eccp1.c: 67:  CCPR1H = 0x00;
  2803     05E3  0192               	clrf	18	;volatile
  2804     05E4                     l1782:
  2805                           
  2806                           ;mcc_generated_files/eccp1.c: 70:  CCPR1L = 0x00;
  2807     05E4  0191               	clrf	17	;volatile
  2808     05E5                     l1784:
  2809                           
  2810                           ;mcc_generated_files/eccp1.c: 73:     PIR1bits.CCP1IF = 0;
  2811     05E5  0020               	movlb	0	; select bank0
  2812     05E6  1111               	bcf	17,2	;volatile
  2813     05E7                     l1786:
  2814                           
  2815                           ;mcc_generated_files/eccp1.c: 76:     PIE1bits.CCP1IE = 1;
  2816     05E7  0021               	movlb	1	; select bank1
  2817     05E8  1511               	bsf	17,2	;volatile
  2818     05E9                     l56:
  2819     05E9  0008               	return
  2820     05EA                     __end_of_ECCP1_Initialize:
  2821                           
  2822                           	psect	text10
  2823     05F2                     __ptext10:	
  2824 ;; *************** function _ADC_Initialize *****************
  2825 ;; Defined at:
  2826 ;;		line 67 in file "mcc_generated_files/adc.c"
  2827 ;; Parameters:    Size  Location     Type
  2828 ;;		None
  2829 ;; Auto vars:     Size  Location     Type
  2830 ;;		None
  2831 ;; Return value:  Size  Location     Type
  2832 ;;                  1    wreg      void 
  2833 ;; Registers used:
  2834 ;;		wreg, status,2
  2835 ;; Tracked objects:
  2836 ;;		On entry : 0/0
  2837 ;;		On exit  : 0/0
  2838 ;;		Unchanged: 0/0
  2839 ;; Data sizes:     COMMON   BANK0   BANK1   BANK2   BANK3   BANK4
  2840 ;;      Params:         0       0       0       0       0       0
  2841 ;;      Locals:         0       0       0       0       0       0
  2842 ;;      Temps:          0       0       0       0       0       0
  2843 ;;      Totals:         0       0       0       0       0       0
  2844 ;;Total ram usage:        0 bytes
  2845 ;; Hardware stack levels used: 1
  2846 ;; Hardware stack levels required when called: 5
  2847 ;; This function calls:
  2848 ;;		Nothing
  2849 ;; This function is called by:
  2850 ;;		_SYSTEM_Initialize
  2851 ;; This function uses a non-reentrant model
  2852 ;;
  2853                           
  2854     05F2                     _ADC_Initialize:	
  2855                           ;psect for function _ADC_Initialize
  2856                           
  2857     05F2                     l1800:	
  2858                           ;incstack = 0
  2859                           ; Regs used in _ADC_Initialize: [wreg+status,2]
  2860                           
  2861                           
  2862                           ;mcc_generated_files/adc.c: 72:     ADCON1 = 0x83;
  2863     05F2  3083               	movlw	131
  2864     05F3  0021               	movlb	1	; select bank1
  2865     05F4  009E               	movwf	30	;volatile
  2866     05F5                     l1802:
  2867                           
  2868                           ;mcc_generated_files/adc.c: 75:     ADRESL = 0x00;
  2869     05F5  019B               	clrf	27	;volatile
  2870     05F6                     l1804:
  2871                           
  2872                           ;mcc_generated_files/adc.c: 78:     ADRESH = 0x00;
  2873     05F6  019C               	clrf	28	;volatile
  2874                           
  2875                           ;mcc_generated_files/adc.c: 81:     ADCON0 = 0x05;
  2876     05F7  3005               	movlw	5
  2877     05F8  009D               	movwf	29	;volatile
  2878     05F9                     l89:
  2879     05F9  0008               	return
  2880     05FA                     __end_of_ADC_Initialize:
  2881                           
  2882                           	psect	text11
  2883     0580                     __ptext11:	
  2884 ;; *************** function _EPWM2_LoadDutyValue *****************
  2885 ;; Defined at:
  2886 ;;		line 90 in file "mcc_generated_files/epwm2.c"
  2887 ;; Parameters:    Size  Location     Type
  2888 ;;  dutyValue       2   30[BANK0 ] unsigned short 
  2889 ;; Auto vars:     Size  Location     Type
  2890 ;;		None
  2891 ;; Return value:  Size  Location     Type
  2892 ;;                  1    wreg      void 
  2893 ;; Registers used:
  2894 ;;		wreg, status,2, status,0
  2895 ;; Tracked objects:
  2896 ;;		On entry : 0/0
  2897 ;;		On exit  : 0/0
  2898 ;;		Unchanged: 0/0
  2899 ;; Data sizes:     COMMON   BANK0   BANK1   BANK2   BANK3   BANK4
  2900 ;;      Params:         0       2       0       0       0       0
  2901 ;;      Locals:         0       0       0       0       0       0
  2902 ;;      Temps:          0       2       0       0       0       0
  2903 ;;      Totals:         0       4       0       0       0       0
  2904 ;;Total ram usage:        4 bytes
  2905 ;; Hardware stack levels used: 1
  2906 ;; Hardware stack levels required when called: 5
  2907 ;; This function calls:
  2908 ;;		Nothing
  2909 ;; This function is called by:
  2910 ;;		_main
  2911 ;; This function uses a non-reentrant model
  2912 ;;
  2913                           
  2914     0580                     _EPWM2_LoadDutyValue:	
  2915                           ;psect for function _EPWM2_LoadDutyValue
  2916                           
  2917     0580                     l1844:	
  2918                           ;incstack = 0
  2919                           ; Regs used in _EPWM2_LoadDutyValue: [wreg+status,2+status,0]
  2920                           
  2921                           
  2922                           ;mcc_generated_files/epwm2.c: 90: void EPWM2_LoadDutyValue(uint16_t dutyValue);mcc_gener
      +                          ated_files/epwm2.c: 91: {;mcc_generated_files/epwm2.c: 93:     CCPR2L = ((dutyValue & 0x
      +                          03FC)>>2);
  2923     0580  0020               	movlb	0	; select bank0
  2924     0581  083F               	movf	EPWM2_LoadDutyValue@dutyValue+1,w
  2925     0582  00C1               	movwf	??_EPWM2_LoadDutyValue+1
  2926     0583  083E               	movf	EPWM2_LoadDutyValue@dutyValue,w
  2927     0584  00C0               	movwf	??_EPWM2_LoadDutyValue
  2928     0585  36C1               	lsrf	??_EPWM2_LoadDutyValue+1,f
  2929     0586  0CC0               	rrf	??_EPWM2_LoadDutyValue,f
  2930     0587  36C1               	lsrf	??_EPWM2_LoadDutyValue+1,f
  2931     0588  0CC0               	rrf	??_EPWM2_LoadDutyValue,f
  2932     0589  0840               	movf	??_EPWM2_LoadDutyValue,w
  2933     058A  0025               	movlb	5	; select bank5
  2934     058B  0098               	movwf	24	;volatile
  2935                           
  2936                           ;mcc_generated_files/epwm2.c: 96:     CCP2CON = ((uint8_t)(CCP2CON & 0xCF) | ((dutyValue
      +                           & 0x0003)<<4));
  2937     058C  0020               	movlb	0	; select bank0
  2938     058D  083E               	movf	EPWM2_LoadDutyValue@dutyValue,w
  2939     058E  3903               	andlw	3
  2940     058F  00C0               	movwf	??_EPWM2_LoadDutyValue
  2941     0590  3004               	movlw	4
  2942     0591                     u1535:
  2943     0591  35C0               	lslf	??_EPWM2_LoadDutyValue,f
  2944     0592  0B89               	decfsz	9,f
  2945     0593  2D91               	goto	u1535
  2946     0594  0025               	movlb	5	; select bank5
  2947     0595  081A               	movf	26,w	;volatile
  2948     0596  39CF               	andlw	207
  2949     0597  0020               	movlb	0	; select bank0
  2950     0598  0440               	iorwf	??_EPWM2_LoadDutyValue,w
  2951     0599  0025               	movlb	5	; select bank5
  2952     059A  009A               	movwf	26	;volatile
  2953     059B                     l130:
  2954     059B  0008               	return
  2955     059C                     __end_of_EPWM2_LoadDutyValue:
  2956                           
  2957                           	psect	text12
  2958     0546                     __ptext12:	
  2959 ;; *************** function _ADC_GetConversion *****************
  2960 ;; Defined at:
  2961 ;;		line 112 in file "mcc_generated_files/adc.c"
  2962 ;; Parameters:    Size  Location     Type
  2963 ;;  channel         1    wreg     enum E2495
  2964 ;; Auto vars:     Size  Location     Type
  2965 ;;  channel         1   33[BANK0 ] enum E2495
  2966 ;; Return value:  Size  Location     Type
  2967 ;;                  2   30[BANK0 ] unsigned short 
  2968 ;; Registers used:
  2969 ;;		wreg, status,2, status,0
  2970 ;; Tracked objects:
  2971 ;;		On entry : 0/0
  2972 ;;		On exit  : 0/0
  2973 ;;		Unchanged: 0/0
  2974 ;; Data sizes:     COMMON   BANK0   BANK1   BANK2   BANK3   BANK4
  2975 ;;      Params:         0       2       0       0       0       0
  2976 ;;      Locals:         0       1       0       0       0       0
  2977 ;;      Temps:          0       1       0       0       0       0
  2978 ;;      Totals:         0       4       0       0       0       0
  2979 ;;Total ram usage:        4 bytes
  2980 ;; Hardware stack levels used: 1
  2981 ;; Hardware stack levels required when called: 5
  2982 ;; This function calls:
  2983 ;;		Nothing
  2984 ;; This function is called by:
  2985 ;;		_main
  2986 ;; This function uses a non-reentrant model
  2987 ;;
  2988                           
  2989     0546                     _ADC_GetConversion:	
  2990                           ;psect for function _ADC_GetConversion
  2991                           
  2992                           
  2993                           ;incstack = 0
  2994                           ; Regs used in _ADC_GetConversion: [wreg+status,2+status,0]
  2995                           ;ADC_GetConversion@channel stored from wreg
  2996     0546  0020               	movlb	0	; select bank0
  2997     0547  00C1               	movwf	ADC_GetConversion@channel
  2998     0548                     l1832:
  2999                           
  3000                           ;mcc_generated_files/adc.c: 112: adc_result_t ADC_GetConversion(adc_channel_t channel);m
      +                          cc_generated_files/adc.c: 113: {;mcc_generated_files/adc.c: 115:     ADCON0bits.CHS = ch
      +                          annel;
  3001     0548  0841               	movf	ADC_GetConversion@channel,w
  3002     0549  00C0               	movwf	??_ADC_GetConversion
  3003     054A  0DC0               	rlf	??_ADC_GetConversion,f
  3004     054B  0DC0               	rlf	??_ADC_GetConversion,f
  3005     054C  0021               	movlb	1	; select bank1
  3006     054D  081D               	movf	29,w	;volatile
  3007     054E  0020               	movlb	0	; select bank0
  3008     054F  0640               	xorwf	??_ADC_GetConversion,w
  3009     0550  3983               	andlw	-125
  3010     0551  0640               	xorwf	??_ADC_GetConversion,w
  3011     0552  0021               	movlb	1	; select bank1
  3012     0553  009D               	movwf	29	;volatile
  3013     0554                     l1834:
  3014                           
  3015                           ;mcc_generated_files/adc.c: 118:     ADCON0bits.ADON = 1;
  3016     0554  141D               	bsf	29,0	;volatile
  3017     0555                     l1836:
  3018                           
  3019                           ;mcc_generated_files/adc.c: 121:     _delay((unsigned long)((5)*(2000000/4000000.0)));
  3020     0555  3200               	nop2	;2 cycle nop
  3021     0556                     l1838:
  3022                           
  3023                           ;mcc_generated_files/adc.c: 124:     ADCON0bits.GO_nDONE = 1;
  3024     0556  0021               	movlb	1	; select bank1
  3025     0557  149D               	bsf	29,1	;volatile
  3026     0558                     l104:	
  3027                           ;mcc_generated_files/adc.c: 128:     {;mcc_generated_files/adc.c: 129:     }
  3028                           
  3029                           
  3030                           ;mcc_generated_files/adc.c: 127:     while (ADCON0bits.GO_nDONE)
  3031     0558  189D               	btfsc	29,1	;volatile
  3032     0559  2D5B               	goto	u1521
  3033     055A  2D5C               	goto	u1520
  3034     055B                     u1521:
  3035     055B  2D58               	goto	l104
  3036     055C                     u1520:
  3037     055C                     l1840:
  3038                           
  3039                           ;mcc_generated_files/adc.c: 132:     return ((adc_result_t)((ADRESH << 8) + ADRESL));
  3040     055C  081C               	movf	28,w	;volatile
  3041     055D  0020               	movlb	0	; select bank0
  3042     055E  00BF               	movwf	?_ADC_GetConversion+1
  3043     055F  0021               	movlb	1	; select bank1
  3044     0560  081B               	movf	27,w	;volatile
  3045     0561  0020               	movlb	0	; select bank0
  3046     0562  00BE               	movwf	?_ADC_GetConversion
  3047     0563                     l107:
  3048     0563  0008               	return
  3049     0564                     __end_of_ADC_GetConversion:
  3050                           
  3051                           	psect	intentry
  3052     0004                     __pintentry:	
  3053 ;; *************** function _INTERRUPT_InterruptManager *****************
  3054 ;; Defined at:
  3055 ;;		line 52 in file "mcc_generated_files/interrupt_manager.c"
  3056 ;; Parameters:    Size  Location     Type
  3057 ;;		None
  3058 ;; Auto vars:     Size  Location     Type
  3059 ;;		None
  3060 ;; Return value:  Size  Location     Type
  3061 ;;                  1    wreg      void 
  3062 ;; Registers used:
  3063 ;;		wreg, status,2, status,0, pclath, cstack
  3064 ;; Tracked objects:
  3065 ;;		On entry : 0/0
  3066 ;;		On exit  : 0/0
  3067 ;;		Unchanged: 0/0
  3068 ;; Data sizes:     COMMON   BANK0   BANK1   BANK2   BANK3   BANK4
  3069 ;;      Params:         0       0       0       0       0       0
  3070 ;;      Locals:         0       0       0       0       0       0
  3071 ;;      Temps:          0       0       0       0       0       0
  3072 ;;      Totals:         0       0       0       0       0       0
  3073 ;;Total ram usage:        0 bytes
  3074 ;; Hardware stack levels used: 1
  3075 ;; Hardware stack levels required when called: 4
  3076 ;; This function calls:
  3077 ;;		_ECCP1_CaptureISR
  3078 ;; This function is called by:
  3079 ;;		Interrupt level 1
  3080 ;; This function uses a non-reentrant model
  3081 ;;
  3082                           
  3083     0004                     _INTERRUPT_InterruptManager:
  3084                           
  3085                           ;incstack = 0
  3086     0004  147E               	bsf	int$flags,0	;set compiler interrupt flag (level 1)
  3087                           
  3088                           ; Regs used in _INTERRUPT_InterruptManager: [wreg+status,2+status,0+pclath+cstack]
  3089     0005  3180               	pagesel	$
  3090     0006                     i1l1862:
  3091                           
  3092                           ;mcc_generated_files/interrupt_manager.c: 55:     if(INTCONbits.PEIE == 1)
  3093     0006  1F0B               	btfss	11,6	;volatile
  3094     0007  2809               	goto	u155_21
  3095     0008  280A               	goto	u155_20
  3096     0009                     u155_21:
  3097     0009  2817               	goto	i1l252
  3098     000A                     u155_20:
  3099     000A                     i1l1864:
  3100                           
  3101                           ;mcc_generated_files/interrupt_manager.c: 56:     {;mcc_generated_files/interrupt_manage
      +                          r.c: 57:         if(PIE1bits.CCP1IE == 1 && PIR1bits.CCP1IF == 1)
  3102     000A  0021               	movlb	1	; select bank1
  3103     000B  1D11               	btfss	17,2	;volatile
  3104     000C  280E               	goto	u156_21
  3105     000D  280F               	goto	u156_20
  3106     000E                     u156_21:
  3107     000E  2817               	goto	i1l252
  3108     000F                     u156_20:
  3109     000F                     i1l1866:
  3110     000F  0020               	movlb	0	; select bank0
  3111     0010  1D11               	btfss	17,2	;volatile
  3112     0011  2813               	goto	u157_21
  3113     0012  2814               	goto	u157_20
  3114     0013                     u157_21:
  3115     0013  2817               	goto	i1l252
  3116     0014                     u157_20:
  3117     0014                     i1l1868:
  3118                           
  3119                           ;mcc_generated_files/interrupt_manager.c: 58:         {;mcc_generated_files/interrupt_ma
      +                          nager.c: 59:             ECCP1_CaptureISR();
  3120     0014  3185  25B4  3180   	fcall	_ECCP1_CaptureISR
  3121     0017                     i1l252:	
  3122                           ;mcc_generated_files/interrupt_manager.c: 60:         }
  3123                           
  3124     0017  107E               	bcf	int$flags,0	;clear compiler interrupt flag (level 1)
  3125     0018  0009               	retfie
  3126     0019                     __end_of_INTERRUPT_InterruptManager:
  3127                           
  3128                           	psect	text14
  3129     05B4                     __ptext14:	
  3130 ;; *************** function _ECCP1_CaptureISR *****************
  3131 ;; Defined at:
  3132 ;;		line 80 in file "mcc_generated_files/eccp1.c"
  3133 ;; Parameters:    Size  Location     Type
  3134 ;;		None
  3135 ;; Auto vars:     Size  Location     Type
  3136 ;;  module          2   28[BANK0 ] struct CCPR1Reg_tag
  3137 ;; Return value:  Size  Location     Type
  3138 ;;                  1    wreg      void 
  3139 ;; Registers used:
  3140 ;;		wreg, status,2, status,0, pclath, cstack
  3141 ;; Tracked objects:
  3142 ;;		On entry : 0/0
  3143 ;;		On exit  : 0/0
  3144 ;;		Unchanged: 0/0
  3145 ;; Data sizes:     COMMON   BANK0   BANK1   BANK2   BANK3   BANK4
  3146 ;;      Params:         0       0       0       0       0       0
  3147 ;;      Locals:         0       2       0       0       0       0
  3148 ;;      Temps:          0       0       0       0       0       0
  3149 ;;      Totals:         0       2       0       0       0       0
  3150 ;;Total ram usage:        2 bytes
  3151 ;; Hardware stack levels used: 1
  3152 ;; Hardware stack levels required when called: 3
  3153 ;; This function calls:
  3154 ;;		_ECCP1_CallBack
  3155 ;; This function is called by:
  3156 ;;		_INTERRUPT_InterruptManager
  3157 ;; This function uses a non-reentrant model
  3158 ;;
  3159                           
  3160     05B4                     _ECCP1_CaptureISR:	
  3161                           ;psect for function _ECCP1_CaptureISR
  3162                           
  3163     05B4                     i1l1826:	
  3164                           ;incstack = 0
  3165                           ; Regs used in _ECCP1_CaptureISR: [wreg+status,2+status,0+pclath+cstack]
  3166                           
  3167                           
  3168                           ;mcc_generated_files/eccp1.c: 82:     CCP1_PERIOD_REG_T module;;mcc_generated_files/eccp
      +                          1.c: 85:     PIR1bits.CCP1IF = 0;
  3169     05B4  0020               	movlb	0	; select bank0
  3170     05B5  1111               	bcf	17,2	;volatile
  3171     05B6                     i1l1828:
  3172                           
  3173                           ;mcc_generated_files/eccp1.c: 88:     module.ccpr1l = CCPR1L;
  3174     05B6  0025               	movlb	5	; select bank5
  3175     05B7  0811               	movf	17,w	;volatile
  3176     05B8  0020               	movlb	0	; select bank0
  3177     05B9  00BC               	movwf	ECCP1_CaptureISR@module
  3178                           
  3179                           ;mcc_generated_files/eccp1.c: 89:     module.ccpr1h = CCPR1H;
  3180     05BA  0025               	movlb	5	; select bank5
  3181     05BB  0812               	movf	18,w	;volatile
  3182     05BC  0020               	movlb	0	; select bank0
  3183     05BD  00BD               	movwf	ECCP1_CaptureISR@module+1
  3184     05BE                     i1l1830:
  3185                           
  3186                           ;mcc_generated_files/eccp1.c: 92:     ECCP1_CallBack(module.ccpr1_16Bit);
  3187     05BE  083D               	movf	ECCP1_CaptureISR@module+1,w
  3188     05BF  00BB               	movwf	ECCP1_CallBack@capturedValue+1
  3189     05C0  083C               	movf	ECCP1_CaptureISR@module,w
  3190     05C1  00BA               	movwf	ECCP1_CallBack@capturedValue
  3191     05C2  3184  24B3  3185   	fcall	_ECCP1_CallBack
  3192     05C5                     i1l59:
  3193     05C5  0008               	return
  3194     05C6                     __end_of_ECCP1_CaptureISR:
  3195                           
  3196                           	psect	text15
  3197     04B3                     __ptext15:	
  3198 ;; *************** function _ECCP1_CallBack *****************
  3199 ;; Defined at:
  3200 ;;		line 95 in file "mcc_generated_files/eccp1.c"
  3201 ;; Parameters:    Size  Location     Type
  3202 ;;  capturedValu    2   26[BANK0 ] unsigned short 
  3203 ;; Auto vars:     Size  Location     Type
  3204 ;;		None
  3205 ;; Return value:  Size  Location     Type
  3206 ;;                  1    wreg      void 
  3207 ;; Registers used:
  3208 ;;		wreg, status,2, status,0, pclath, cstack
  3209 ;; Tracked objects:
  3210 ;;		On entry : 0/0
  3211 ;;		On exit  : 0/0
  3212 ;;		Unchanged: 0/0
  3213 ;; Data sizes:     COMMON   BANK0   BANK1   BANK2   BANK3   BANK4
  3214 ;;      Params:         0       2       0       0       0       0
  3215 ;;      Locals:         0       0       0       0       0       0
  3216 ;;      Temps:          0       0       0       0       0       0
  3217 ;;      Totals:         0       2       0       0       0       0
  3218 ;;Total ram usage:        2 bytes
  3219 ;; Hardware stack levels used: 1
  3220 ;; Hardware stack levels required when called: 2
  3221 ;; This function calls:
  3222 ;;		___fldiv
  3223 ;;		___flmul
  3224 ;;		___xxtofl
  3225 ;; This function is called by:
  3226 ;;		_ECCP1_CaptureISR
  3227 ;; This function uses a non-reentrant model
  3228 ;;
  3229                           
  3230     04B3                     _ECCP1_CallBack:	
  3231                           ;psect for function _ECCP1_CallBack
  3232                           
  3233     04B3                     i1l1822:	
  3234                           ;incstack = 0
  3235                           ; Regs used in _ECCP1_CallBack: [wreg+status,2+status,0+pclath+cstack]
  3236                           
  3237                           
  3238                           ;mcc_generated_files/eccp1.c: 95: void ECCP1_CallBack(uint16_t capturedValue);mcc_genera
      +                          ted_files/eccp1.c: 96: {;mcc_generated_files/eccp1.c: 97:     T = capturedValue*0.000016
      +                          ;
  3239     04B3  3037               	movlw	55
  3240     04B4  0020               	movlb	0	; select bank0
  3241     04B5  00A3               	movwf	___flmul@b+3
  3242     04B6  3086               	movlw	134
  3243     04B7  00A2               	movwf	___flmul@b+2
  3244     04B8  3037               	movlw	55
  3245     04B9  00A1               	movwf	___flmul@b+1
  3246     04BA  30BD               	movlw	189
  3247     04BB  00A0               	movwf	___flmul@b
  3248     04BC  083A               	movf	ECCP1_CallBack@capturedValue,w
  3249     04BD  00F0               	movwf	___xxtofl@val
  3250     04BE  083B               	movf	ECCP1_CallBack@capturedValue+1,w
  3251     04BF  00F1               	movwf	___xxtofl@val+1
  3252     04C0  01F2               	clrf	___xxtofl@val+2
  3253     04C1  01F3               	clrf	___xxtofl@val+3
  3254     04C2  3000               	movlw	0
  3255     04C3  3184  2409  3184   	fcall	___xxtofl
  3256     04C6  0873               	movf	?___xxtofl+3,w
  3257     04C7  0020               	movlb	0	; select bank0
  3258     04C8  00A7               	movwf	___flmul@a+3
  3259     04C9  0872               	movf	?___xxtofl+2,w
  3260     04CA  00A6               	movwf	___flmul@a+2
  3261     04CB  0871               	movf	?___xxtofl+1,w
  3262     04CC  00A5               	movwf	___flmul@a+1
  3263     04CD  0870               	movf	?___xxtofl,w
  3264     04CE  00A4               	movwf	___flmul@a
  3265     04CF  3180  2024  3184   	fcall	___flmul
  3266     04D2  0020               	movlb	0	; select bank0
  3267     04D3  0823               	movf	?___flmul+3,w
  3268     04D4  00CB               	movwf	_T+3
  3269     04D5  0822               	movf	?___flmul+2,w
  3270     04D6  00CA               	movwf	_T+2
  3271     04D7  0821               	movf	?___flmul+1,w
  3272     04D8  00C9               	movwf	_T+1
  3273     04D9  0820               	movf	?___flmul,w
  3274     04DA  00C8               	movwf	_T
  3275                           
  3276                           ;mcc_generated_files/eccp1.c: 98:     V_RPM = 60/T;
  3277     04DB  084B               	movf	_T+3,w
  3278     04DC  00F3               	movwf	___fldiv@a+3
  3279     04DD  084A               	movf	_T+2,w
  3280     04DE  00F2               	movwf	___fldiv@a+2
  3281     04DF  0849               	movf	_T+1,w
  3282     04E0  00F1               	movwf	___fldiv@a+1
  3283     04E1  0848               	movf	_T,w
  3284     04E2  00F0               	movwf	___fldiv@a
  3285     04E3  3042               	movlw	66
  3286     04E4  00F7               	movwf	___fldiv@b+3
  3287     04E5  3070               	movlw	112
  3288     04E6  00F6               	movwf	___fldiv@b+2
  3289     04E7  3000               	movlw	0
  3290     04E8  00F5               	movwf	___fldiv@b+1
  3291     04E9  3000               	movlw	0
  3292     04EA  00F4               	movwf	___fldiv@b
  3293     04EB  3182  225F  3184   	fcall	___fldiv
  3294     04EE  0873               	movf	?___fldiv+3,w
  3295     04EF  0020               	movlb	0	; select bank0
  3296     04F0  00C5               	movwf	_V_RPM+3
  3297     04F1  0872               	movf	?___fldiv+2,w
  3298     04F2  00C4               	movwf	_V_RPM+2
  3299     04F3  0871               	movf	?___fldiv+1,w
  3300     04F4  00C3               	movwf	_V_RPM+1
  3301     04F5  0870               	movf	?___fldiv,w
  3302     04F6  00C2               	movwf	_V_RPM
  3303     04F7                     i1l62:
  3304     04F7  0008               	return
  3305     04F8                     __end_of_ECCP1_CallBack:
  3306                           
  3307                           	psect	text16
  3308     0409                     __ptext16:	
  3309 ;; *************** function ___xxtofl *****************
  3310 ;; Defined at:
  3311 ;;		line 10 in file "C:\Program Files\Microchip\xc8\v2.45\pic\sources\c99\common\xxtofl.c"
  3312 ;; Parameters:    Size  Location     Type
  3313 ;;  sign            1    wreg     unsigned char 
  3314 ;;  val             4    0[COMMON] long 
  3315 ;; Auto vars:     Size  Location     Type
  3316 ;;  sign            1    8[COMMON] unsigned char 
  3317 ;;  arg             4   10[COMMON] unsigned long 
  3318 ;;  exp             1    9[COMMON] unsigned char 
  3319 ;; Return value:  Size  Location     Type
  3320 ;;                  4    0[COMMON] unsigned char 
  3321 ;; Registers used:
  3322 ;;		wreg, status,2, status,0
  3323 ;; Tracked objects:
  3324 ;;		On entry : 0/0
  3325 ;;		On exit  : 0/0
  3326 ;;		Unchanged: 0/0
  3327 ;; Data sizes:     COMMON   BANK0   BANK1   BANK2   BANK3   BANK4
  3328 ;;      Params:         4       0       0       0       0       0
  3329 ;;      Locals:         6       0       0       0       0       0
  3330 ;;      Temps:          4       0       0       0       0       0
  3331 ;;      Totals:        14       0       0       0       0       0
  3332 ;;Total ram usage:       14 bytes
  3333 ;; Hardware stack levels used: 1
  3334 ;; This function calls:
  3335 ;;		Nothing
  3336 ;; This function is called by:
  3337 ;;		_ECCP1_CallBack
  3338 ;; This function uses a non-reentrant model
  3339 ;;
  3340                           
  3341     0409                     ___xxtofl:	
  3342                           ;psect for function ___xxtofl
  3343                           
  3344                           
  3345                           ;incstack = 0
  3346                           ; Regs used in ___xxtofl: [wreg+status,2+status,0]
  3347                           ;___xxtofl@sign stored from wreg
  3348     0409  00F8               	movwf	___xxtofl@sign
  3349     040A                     i1l1706:
  3350     040A  0878               	movf	___xxtofl@sign,w
  3351     040B  1903               	btfsc	3,2
  3352     040C  2C0E               	goto	u138_21
  3353     040D  2C0F               	goto	u138_20
  3354     040E                     u138_21:
  3355     040E  2C23               	goto	i1l1712
  3356     040F                     u138_20:
  3357     040F                     i1l1708:
  3358     040F  1FF3               	btfss	___xxtofl@val+3,7
  3359     0410  2C12               	goto	u139_21
  3360     0411  2C13               	goto	u139_20
  3361     0412                     u139_21:
  3362     0412  2C23               	goto	i1l1712
  3363     0413                     u139_20:
  3364     0413                     i1l1710:
  3365     0413  0970               	comf	___xxtofl@val,w
  3366     0414  00FA               	movwf	___xxtofl@arg
  3367     0415  0971               	comf	___xxtofl@val+1,w
  3368     0416  00FB               	movwf	___xxtofl@arg+1
  3369     0417  0972               	comf	___xxtofl@val+2,w
  3370     0418  00FC               	movwf	___xxtofl@arg+2
  3371     0419  0973               	comf	___xxtofl@val+3,w
  3372     041A  00FD               	movwf	___xxtofl@arg+3
  3373     041B  0AFA               	incf	___xxtofl@arg,f
  3374     041C  1903               	skipnz
  3375     041D  0AFB               	incf	___xxtofl@arg+1,f
  3376     041E  1903               	skipnz
  3377     041F  0AFC               	incf	___xxtofl@arg+2,f
  3378     0420  1903               	skipnz
  3379     0421  0AFD               	incf	___xxtofl@arg+3,f
  3380     0422  2C2B               	goto	i1l865
  3381     0423                     i1l1712:
  3382     0423  0873               	movf	___xxtofl@val+3,w
  3383     0424  00FD               	movwf	___xxtofl@arg+3
  3384     0425  0872               	movf	___xxtofl@val+2,w
  3385     0426  00FC               	movwf	___xxtofl@arg+2
  3386     0427  0871               	movf	___xxtofl@val+1,w
  3387     0428  00FB               	movwf	___xxtofl@arg+1
  3388     0429  0870               	movf	___xxtofl@val,w
  3389     042A  00FA               	movwf	___xxtofl@arg
  3390     042B                     i1l865:
  3391     042B  0873               	movf	___xxtofl@val+3,w
  3392     042C  0472               	iorwf	___xxtofl@val+2,w
  3393     042D  0471               	iorwf	___xxtofl@val+1,w
  3394     042E  0470               	iorwf	___xxtofl@val,w
  3395     042F  1D03               	skipz
  3396     0430  2C32               	goto	u140_21
  3397     0431  2C33               	goto	u140_20
  3398     0432                     u140_21:
  3399     0432  2C3C               	goto	i1l1718
  3400     0433                     u140_20:
  3401     0433                     i1l1714:
  3402     0433  3000               	movlw	0
  3403     0434  00F3               	movwf	?___xxtofl+3
  3404     0435  3000               	movlw	0
  3405     0436  00F2               	movwf	?___xxtofl+2
  3406     0437  3000               	movlw	0
  3407     0438  00F1               	movwf	?___xxtofl+1
  3408     0439  3000               	movlw	0
  3409     043A  00F0               	movwf	?___xxtofl
  3410     043B  2CB2               	goto	i1l867
  3411     043C                     i1l1718:
  3412     043C  3096               	movlw	150
  3413     043D  00F9               	movwf	___xxtofl@exp
  3414     043E  2C4A               	goto	i1l1722
  3415     043F                     i1l1720:
  3416     043F  3001               	movlw	1
  3417     0440  00F4               	movwf	??___xxtofl
  3418     0441  0874               	movf	??___xxtofl,w
  3419     0442  07F9               	addwf	___xxtofl@exp,f
  3420     0443  3001               	movlw	1
  3421     0444                     u141_25:
  3422     0444  36FD               	lsrf	___xxtofl@arg+3,f
  3423     0445  0CFC               	rrf	___xxtofl@arg+2,f
  3424     0446  0CFB               	rrf	___xxtofl@arg+1,f
  3425     0447  0CFA               	rrf	___xxtofl@arg,f
  3426     0448  0B89               	decfsz	9,f
  3427     0449  2C44               	goto	u141_25
  3428     044A                     i1l1722:
  3429     044A  30FE               	movlw	254
  3430     044B  057D               	andwf	___xxtofl@arg+3,w
  3431     044C  1D03               	btfss	3,2
  3432     044D  2C4F               	goto	u142_21
  3433     044E  2C50               	goto	u142_20
  3434     044F                     u142_21:
  3435     044F  2C3F               	goto	i1l1720
  3436     0450                     u142_20:
  3437     0450  2C64               	goto	i1l871
  3438     0451                     i1l1724:
  3439     0451  3001               	movlw	1
  3440     0452  00F4               	movwf	??___xxtofl
  3441     0453  0874               	movf	??___xxtofl,w
  3442     0454  07F9               	addwf	___xxtofl@exp,f
  3443     0455                     i1l1726:
  3444     0455  3001               	movlw	1
  3445     0456  07FA               	addwf	___xxtofl@arg,f
  3446     0457  3000               	movlw	0
  3447     0458  3DFB               	addwfc	___xxtofl@arg+1,f
  3448     0459  3000               	movlw	0
  3449     045A  3DFC               	addwfc	___xxtofl@arg+2,f
  3450     045B  3000               	movlw	0
  3451     045C  3DFD               	addwfc	___xxtofl@arg+3,f
  3452     045D                     i1l1728:
  3453     045D  3001               	movlw	1
  3454     045E                     u143_25:
  3455     045E  36FD               	lsrf	___xxtofl@arg+3,f
  3456     045F  0CFC               	rrf	___xxtofl@arg+2,f
  3457     0460  0CFB               	rrf	___xxtofl@arg+1,f
  3458     0461  0CFA               	rrf	___xxtofl@arg,f
  3459     0462  0B89               	decfsz	9,f
  3460     0463  2C5E               	goto	u143_25
  3461     0464                     i1l871:
  3462     0464  30FF               	movlw	255
  3463     0465  057D               	andwf	___xxtofl@arg+3,w
  3464     0466  1D03               	btfss	3,2
  3465     0467  2C69               	goto	u144_21
  3466     0468  2C6A               	goto	u144_20
  3467     0469                     u144_21:
  3468     0469  2C51               	goto	i1l1724
  3469     046A                     u144_20:
  3470     046A  2C74               	goto	i1l1732
  3471     046B                     i1l1730:
  3472     046B  3001               	movlw	1
  3473     046C  02F9               	subwf	___xxtofl@exp,f
  3474     046D  3001               	movlw	1
  3475     046E                     u145_25:
  3476     046E  35FA               	lslf	___xxtofl@arg,f
  3477     046F  0DFB               	rlf	___xxtofl@arg+1,f
  3478     0470  0DFC               	rlf	___xxtofl@arg+2,f
  3479     0471  0DFD               	rlf	___xxtofl@arg+3,f
  3480     0472  0B89               	decfsz	9,f
  3481     0473  2C6E               	goto	u145_25
  3482     0474                     i1l1732:
  3483     0474  1BFC               	btfsc	___xxtofl@arg+2,7
  3484     0475  2C77               	goto	u146_21
  3485     0476  2C78               	goto	u146_20
  3486     0477                     u146_21:
  3487     0477  2C7E               	goto	i1l878
  3488     0478                     u146_20:
  3489     0478                     i1l1734:
  3490     0478  3002               	movlw	2
  3491     0479  0279               	subwf	___xxtofl@exp,w
  3492     047A  1803               	skipnc
  3493     047B  2C7D               	goto	u147_21
  3494     047C  2C7E               	goto	u147_20
  3495     047D                     u147_21:
  3496     047D  2C6B               	goto	i1l1730
  3497     047E                     u147_20:
  3498     047E                     i1l878:
  3499     047E  1879               	btfsc	___xxtofl@exp,0
  3500     047F  2C81               	goto	u148_21
  3501     0480  2C82               	goto	u148_20
  3502     0481                     u148_21:
  3503     0481  2C8A               	goto	i1l879
  3504     0482                     u148_20:
  3505     0482                     i1l1736:
  3506     0482  30FF               	movlw	255
  3507     0483  05FA               	andwf	___xxtofl@arg,f
  3508     0484  30FF               	movlw	255
  3509     0485  05FB               	andwf	___xxtofl@arg+1,f
  3510     0486  307F               	movlw	127
  3511     0487  05FC               	andwf	___xxtofl@arg+2,f
  3512     0488  30FF               	movlw	255
  3513     0489  05FD               	andwf	___xxtofl@arg+3,f
  3514     048A                     i1l879:
  3515     048A  1003               	clrc
  3516     048B  0CF9               	rrf	___xxtofl@exp,f
  3517     048C                     i1l1738:
  3518     048C  0879               	movf	___xxtofl@exp,w
  3519     048D  00F4               	movwf	??___xxtofl
  3520     048E  01F5               	clrf	??___xxtofl+1
  3521     048F  01F6               	clrf	??___xxtofl+2
  3522     0490  01F7               	clrf	??___xxtofl+3
  3523     0491  3018               	movlw	24
  3524     0492                     u149_25:
  3525     0492  35F4               	lslf	??___xxtofl,f
  3526     0493  0DF5               	rlf	??___xxtofl+1,f
  3527     0494  0DF6               	rlf	??___xxtofl+2,f
  3528     0495  0DF7               	rlf	??___xxtofl+3,f
  3529     0496                     u149_20:
  3530     0496  0B89               	decfsz	9,f
  3531     0497  2C92               	goto	u149_25
  3532     0498  0874               	movf	??___xxtofl,w
  3533     0499  04FA               	iorwf	___xxtofl@arg,f
  3534     049A  0875               	movf	??___xxtofl+1,w
  3535     049B  04FB               	iorwf	___xxtofl@arg+1,f
  3536     049C  0876               	movf	??___xxtofl+2,w
  3537     049D  04FC               	iorwf	___xxtofl@arg+2,f
  3538     049E  0877               	movf	??___xxtofl+3,w
  3539     049F  04FD               	iorwf	___xxtofl@arg+3,f
  3540     04A0                     i1l1740:
  3541     04A0  0878               	movf	___xxtofl@sign,w
  3542     04A1  1903               	btfsc	3,2
  3543     04A2  2CA4               	goto	u150_21
  3544     04A3  2CA5               	goto	u150_20
  3545     04A4                     u150_21:
  3546     04A4  2CAA               	goto	i1l1746
  3547     04A5                     u150_20:
  3548     04A5                     i1l1742:
  3549     04A5  1FF3               	btfss	___xxtofl@val+3,7
  3550     04A6  2CA8               	goto	u151_21
  3551     04A7  2CA9               	goto	u151_20
  3552     04A8                     u151_21:
  3553     04A8  2CAA               	goto	i1l1746
  3554     04A9                     u151_20:
  3555     04A9                     i1l1744:
  3556     04A9  17FD               	bsf	___xxtofl@arg+3,7
  3557     04AA                     i1l1746:
  3558     04AA  087D               	movf	___xxtofl@arg+3,w
  3559     04AB  00F3               	movwf	?___xxtofl+3
  3560     04AC  087C               	movf	___xxtofl@arg+2,w
  3561     04AD  00F2               	movwf	?___xxtofl+2
  3562     04AE  087B               	movf	___xxtofl@arg+1,w
  3563     04AF  00F1               	movwf	?___xxtofl+1
  3564     04B0  087A               	movf	___xxtofl@arg,w
  3565     04B1  00F0               	movwf	?___xxtofl
  3566     04B2                     i1l867:
  3567     04B2  0008               	return
  3568     04B3                     __end_of___xxtofl:
  3569                           
  3570                           	psect	text17
  3571     0024                     __ptext17:	
  3572 ;; *************** function ___flmul *****************
  3573 ;; Defined at:
  3574 ;;		line 8 in file "C:\Program Files\Microchip\xc8\v2.45\pic\sources\c99\common\sprcmul.c"
  3575 ;; Parameters:    Size  Location     Type
  3576 ;;  b               4    0[BANK0 ] unsigned char 
  3577 ;;  a               4    4[BANK0 ] unsigned char 
  3578 ;; Auto vars:     Size  Location     Type
  3579 ;;  prod            4   20[BANK0 ] struct .
  3580 ;;  grs             4   14[BANK0 ] unsigned long 
  3581 ;;  temp            2   24[BANK0 ] struct .
  3582 ;;  bexp            1   19[BANK0 ] unsigned char 
  3583 ;;  aexp            1   18[BANK0 ] unsigned char 
  3584 ;;  sign            1   13[BANK0 ] unsigned char 
  3585 ;; Return value:  Size  Location     Type
  3586 ;;                  4    0[BANK0 ] unsigned char 
  3587 ;; Registers used:
  3588 ;;		wreg, status,2, status,0, pclath, cstack
  3589 ;; Tracked objects:
  3590 ;;		On entry : 0/0
  3591 ;;		On exit  : 0/0
  3592 ;;		Unchanged: 0/0
  3593 ;; Data sizes:     COMMON   BANK0   BANK1   BANK2   BANK3   BANK4
  3594 ;;      Params:         0       8       0       0       0       0
  3595 ;;      Locals:         0      13       0       0       0       0
  3596 ;;      Temps:          0       5       0       0       0       0
  3597 ;;      Totals:         0      26       0       0       0       0
  3598 ;;Total ram usage:       26 bytes
  3599 ;; Hardware stack levels used: 1
  3600 ;; Hardware stack levels required when called: 1
  3601 ;; This function calls:
  3602 ;;		__Umul8_16
  3603 ;; This function is called by:
  3604 ;;		_ECCP1_CallBack
  3605 ;; This function uses a non-reentrant model
  3606 ;;
  3607                           
  3608     0024                     ___flmul:	
  3609                           ;psect for function ___flmul
  3610                           
  3611     0024                     i1l1566:	
  3612                           ;incstack = 0
  3613                           ; Regs used in ___flmul: [wreg+status,2+status,0+pclath+cstack]
  3614                           
  3615     0024  0020               	movlb	0	; select bank0
  3616     0025  0823               	movf	___flmul@b+3,w
  3617     0026  3980               	andlw	128
  3618     0027  00AD               	movwf	___flmul@sign
  3619     0028                     i1l1568:
  3620     0028  3523               	lslf	___flmul@b+3,w
  3621     0029  00B3               	movwf	___flmul@bexp
  3622     002A                     i1l1570:
  3623     002A  1FA2               	btfss	___flmul@b+2,7
  3624     002B  282D               	goto	u112_21
  3625     002C  282E               	goto	u112_20
  3626     002D                     u112_21:
  3627     002D  282F               	goto	i1l1574
  3628     002E                     u112_20:
  3629     002E                     i1l1572:
  3630     002E  1433               	bsf	___flmul@bexp,0
  3631     002F                     i1l1574:
  3632     002F  0833               	movf	___flmul@bexp,w
  3633     0030  1903               	btfsc	3,2
  3634     0031  2833               	goto	u113_21
  3635     0032  2834               	goto	u113_20
  3636     0033                     u113_21:
  3637     0033  2843               	goto	i1l1582
  3638     0034                     u113_20:
  3639     0034                     i1l1576:
  3640     0034  0A33               	incf	___flmul@bexp,w
  3641     0035  1D03               	btfss	3,2
  3642     0036  2838               	goto	u114_21
  3643     0037  2839               	goto	u114_20
  3644     0038                     u114_21:
  3645     0038  2841               	goto	i1l1580
  3646     0039                     u114_20:
  3647     0039                     i1l1578:
  3648     0039  3000               	movlw	0
  3649     003A  00A3               	movwf	___flmul@b+3
  3650     003B  3000               	movlw	0
  3651     003C  00A2               	movwf	___flmul@b+2
  3652     003D  3000               	movlw	0
  3653     003E  00A1               	movwf	___flmul@b+1
  3654     003F  3000               	movlw	0
  3655     0040  00A0               	movwf	___flmul@b
  3656     0041                     i1l1580:
  3657     0041  17A2               	bsf	___flmul@b+2,7
  3658     0042  284B               	goto	i1l1584
  3659     0043                     i1l1582:
  3660     0043  3000               	movlw	0
  3661     0044  00A3               	movwf	___flmul@b+3
  3662     0045  3000               	movlw	0
  3663     0046  00A2               	movwf	___flmul@b+2
  3664     0047  3000               	movlw	0
  3665     0048  00A1               	movwf	___flmul@b+1
  3666     0049  3000               	movlw	0
  3667     004A  00A0               	movwf	___flmul@b
  3668     004B                     i1l1584:
  3669     004B  0827               	movf	___flmul@a+3,w
  3670     004C  3980               	andlw	128
  3671     004D  00A8               	movwf	??___flmul
  3672     004E  0828               	movf	??___flmul,w
  3673     004F  06AD               	xorwf	___flmul@sign,f
  3674     0050                     i1l1586:
  3675     0050  3527               	lslf	___flmul@a+3,w
  3676     0051  00B2               	movwf	___flmul@aexp
  3677     0052                     i1l1588:
  3678     0052  1FA6               	btfss	___flmul@a+2,7
  3679     0053  2855               	goto	u115_21
  3680     0054  2856               	goto	u115_20
  3681     0055                     u115_21:
  3682     0055  2857               	goto	i1l1592
  3683     0056                     u115_20:
  3684     0056                     i1l1590:
  3685     0056  1432               	bsf	___flmul@aexp,0
  3686     0057                     i1l1592:
  3687     0057  0832               	movf	___flmul@aexp,w
  3688     0058  1903               	btfsc	3,2
  3689     0059  285B               	goto	u116_21
  3690     005A  285C               	goto	u116_20
  3691     005B                     u116_21:
  3692     005B  286B               	goto	i1l1600
  3693     005C                     u116_20:
  3694     005C                     i1l1594:
  3695     005C  0A32               	incf	___flmul@aexp,w
  3696     005D  1D03               	btfss	3,2
  3697     005E  2860               	goto	u117_21
  3698     005F  2861               	goto	u117_20
  3699     0060                     u117_21:
  3700     0060  2869               	goto	i1l1598
  3701     0061                     u117_20:
  3702     0061                     i1l1596:
  3703     0061  3000               	movlw	0
  3704     0062  00A7               	movwf	___flmul@a+3
  3705     0063  3000               	movlw	0
  3706     0064  00A6               	movwf	___flmul@a+2
  3707     0065  3000               	movlw	0
  3708     0066  00A5               	movwf	___flmul@a+1
  3709     0067  3000               	movlw	0
  3710     0068  00A4               	movwf	___flmul@a
  3711     0069                     i1l1598:
  3712     0069  17A6               	bsf	___flmul@a+2,7
  3713     006A  2873               	goto	i1l1602
  3714     006B                     i1l1600:
  3715     006B  3000               	movlw	0
  3716     006C  00A7               	movwf	___flmul@a+3
  3717     006D  3000               	movlw	0
  3718     006E  00A6               	movwf	___flmul@a+2
  3719     006F  3000               	movlw	0
  3720     0070  00A5               	movwf	___flmul@a+1
  3721     0071  3000               	movlw	0
  3722     0072  00A4               	movwf	___flmul@a
  3723     0073                     i1l1602:
  3724     0073  0832               	movf	___flmul@aexp,w
  3725     0074  1903               	btfsc	3,2
  3726     0075  2877               	goto	u118_21
  3727     0076  2878               	goto	u118_20
  3728     0077                     u118_21:
  3729     0077  287D               	goto	i1l1606
  3730     0078                     u118_20:
  3731     0078                     i1l1604:
  3732     0078  0833               	movf	___flmul@bexp,w
  3733     0079  1D03               	btfss	3,2
  3734     007A  287C               	goto	u119_21
  3735     007B  287D               	goto	u119_20
  3736     007C                     u119_21:
  3737     007C  2886               	goto	i1l1610
  3738     007D                     u119_20:
  3739     007D                     i1l1606:
  3740     007D  3000               	movlw	0
  3741     007E  00A3               	movwf	?___flmul+3
  3742     007F  3000               	movlw	0
  3743     0080  00A2               	movwf	?___flmul+2
  3744     0081  3000               	movlw	0
  3745     0082  00A1               	movwf	?___flmul+1
  3746     0083  3000               	movlw	0
  3747     0084  00A0               	movwf	?___flmul
  3748     0085  2A5E               	goto	i1l821
  3749     0086                     i1l1610:
  3750     0086  0820               	movf	___flmul@b,w
  3751     0087  00F0               	movwf	__Umul8_16@multiplicand
  3752     0088  0826               	movf	___flmul@a+2,w
  3753     0089  3185  2523  3180   	fcall	__Umul8_16
  3754     008C  0871               	movf	?__Umul8_16+1,w
  3755     008D  0020               	movlb	0	; select bank0
  3756     008E  00B9               	movwf	___flmul@temp+1
  3757     008F  0870               	movf	?__Umul8_16,w
  3758     0090  00B8               	movwf	___flmul@temp
  3759     0091                     i1l1612:
  3760     0091  0838               	movf	___flmul@temp,w
  3761     0092  00A8               	movwf	??___flmul
  3762     0093  01A9               	clrf	??___flmul+1
  3763     0094  01AA               	clrf	??___flmul+2
  3764     0095  01AB               	clrf	??___flmul+3
  3765     0096  082B               	movf	??___flmul+3,w
  3766     0097  00B1               	movwf	___flmul@grs+3
  3767     0098  082A               	movf	??___flmul+2,w
  3768     0099  00B0               	movwf	___flmul@grs+2
  3769     009A  0829               	movf	??___flmul+1,w
  3770     009B  00AF               	movwf	___flmul@grs+1
  3771     009C  0828               	movf	??___flmul,w
  3772     009D  00AE               	movwf	___flmul@grs
  3773     009E                     i1l1614:
  3774     009E  0839               	movf	___flmul@temp+1,w
  3775     009F  00A8               	movwf	??___flmul
  3776     00A0  01A9               	clrf	??___flmul+1
  3777     00A1  01AA               	clrf	??___flmul+2
  3778     00A2  01AB               	clrf	??___flmul+3
  3779     00A3  082B               	movf	??___flmul+3,w
  3780     00A4  00B7               	movwf	___flmul@prod+3
  3781     00A5  082A               	movf	??___flmul+2,w
  3782     00A6  00B6               	movwf	___flmul@prod+2
  3783     00A7  0829               	movf	??___flmul+1,w
  3784     00A8  00B5               	movwf	___flmul@prod+1
  3785     00A9  0828               	movf	??___flmul,w
  3786     00AA  00B4               	movwf	___flmul@prod
  3787     00AB  0821               	movf	___flmul@b+1,w
  3788     00AC  00F0               	movwf	__Umul8_16@multiplicand
  3789     00AD  0825               	movf	___flmul@a+1,w
  3790     00AE  3185  2523  3180   	fcall	__Umul8_16
  3791     00B1  0871               	movf	?__Umul8_16+1,w
  3792     00B2  0020               	movlb	0	; select bank0
  3793     00B3  00B9               	movwf	___flmul@temp+1
  3794     00B4  0870               	movf	?__Umul8_16,w
  3795     00B5  00B8               	movwf	___flmul@temp
  3796     00B6                     i1l1616:
  3797     00B6  0838               	movf	___flmul@temp,w
  3798     00B7  00A8               	movwf	??___flmul
  3799     00B8  01A9               	clrf	??___flmul+1
  3800     00B9  01AA               	clrf	??___flmul+2
  3801     00BA  01AB               	clrf	??___flmul+3
  3802     00BB  0828               	movf	??___flmul,w
  3803     00BC  07AE               	addwf	___flmul@grs,f
  3804     00BD  0829               	movf	??___flmul+1,w
  3805     00BE  3DAF               	addwfc	___flmul@grs+1,f
  3806     00BF  082A               	movf	??___flmul+2,w
  3807     00C0  3DB0               	addwfc	___flmul@grs+2,f
  3808     00C1  082B               	movf	??___flmul+3,w
  3809     00C2  3DB1               	addwfc	___flmul@grs+3,f
  3810     00C3                     i1l1618:
  3811     00C3  0839               	movf	___flmul@temp+1,w
  3812     00C4  00A8               	movwf	??___flmul
  3813     00C5  01A9               	clrf	??___flmul+1
  3814     00C6  01AA               	clrf	??___flmul+2
  3815     00C7  01AB               	clrf	??___flmul+3
  3816     00C8  0828               	movf	??___flmul,w
  3817     00C9  07B4               	addwf	___flmul@prod,f
  3818     00CA  0829               	movf	??___flmul+1,w
  3819     00CB  3DB5               	addwfc	___flmul@prod+1,f
  3820     00CC  082A               	movf	??___flmul+2,w
  3821     00CD  3DB6               	addwfc	___flmul@prod+2,f
  3822     00CE  082B               	movf	??___flmul+3,w
  3823     00CF  3DB7               	addwfc	___flmul@prod+3,f
  3824     00D0  0822               	movf	___flmul@b+2,w
  3825     00D1  00F0               	movwf	__Umul8_16@multiplicand
  3826     00D2  0824               	movf	___flmul@a,w
  3827     00D3  3185  2523  3180   	fcall	__Umul8_16
  3828     00D6  0871               	movf	?__Umul8_16+1,w
  3829     00D7  0020               	movlb	0	; select bank0
  3830     00D8  00B9               	movwf	___flmul@temp+1
  3831     00D9  0870               	movf	?__Umul8_16,w
  3832     00DA  00B8               	movwf	___flmul@temp
  3833     00DB                     i1l1620:
  3834     00DB  0838               	movf	___flmul@temp,w
  3835     00DC  00A8               	movwf	??___flmul
  3836     00DD  01A9               	clrf	??___flmul+1
  3837     00DE  01AA               	clrf	??___flmul+2
  3838     00DF  01AB               	clrf	??___flmul+3
  3839     00E0  0828               	movf	??___flmul,w
  3840     00E1  07AE               	addwf	___flmul@grs,f
  3841     00E2  0829               	movf	??___flmul+1,w
  3842     00E3  3DAF               	addwfc	___flmul@grs+1,f
  3843     00E4  082A               	movf	??___flmul+2,w
  3844     00E5  3DB0               	addwfc	___flmul@grs+2,f
  3845     00E6  082B               	movf	??___flmul+3,w
  3846     00E7  3DB1               	addwfc	___flmul@grs+3,f
  3847     00E8                     i1l1622:
  3848     00E8  0839               	movf	___flmul@temp+1,w
  3849     00E9  00A8               	movwf	??___flmul
  3850     00EA  01A9               	clrf	??___flmul+1
  3851     00EB  01AA               	clrf	??___flmul+2
  3852     00EC  01AB               	clrf	??___flmul+3
  3853     00ED  0828               	movf	??___flmul,w
  3854     00EE  07B4               	addwf	___flmul@prod,f
  3855     00EF  0829               	movf	??___flmul+1,w
  3856     00F0  3DB5               	addwfc	___flmul@prod+1,f
  3857     00F1  082A               	movf	??___flmul+2,w
  3858     00F2  3DB6               	addwfc	___flmul@prod+2,f
  3859     00F3  082B               	movf	??___flmul+3,w
  3860     00F4  3DB7               	addwfc	___flmul@prod+3,f
  3861     00F5                     i1l1624:
  3862     00F5  3008               	movlw	8
  3863     00F6                     u120_25:
  3864     00F6  35AE               	lslf	___flmul@grs,f
  3865     00F7  0DAF               	rlf	___flmul@grs+1,f
  3866     00F8  0DB0               	rlf	___flmul@grs+2,f
  3867     00F9  0DB1               	rlf	___flmul@grs+3,f
  3868     00FA  0B89               	decfsz	9,f
  3869     00FB  28F6               	goto	u120_25
  3870     00FC                     i1l1626:
  3871     00FC  0821               	movf	___flmul@b+1,w
  3872     00FD  00F0               	movwf	__Umul8_16@multiplicand
  3873     00FE  0824               	movf	___flmul@a,w
  3874     00FF  3185  2523  3180   	fcall	__Umul8_16
  3875     0102  0871               	movf	?__Umul8_16+1,w
  3876     0103  0020               	movlb	0	; select bank0
  3877     0104  00B9               	movwf	___flmul@temp+1
  3878     0105  0870               	movf	?__Umul8_16,w
  3879     0106  00B8               	movwf	___flmul@temp
  3880     0107                     i1l1628:
  3881     0107  0838               	movf	___flmul@temp,w
  3882     0108  07AE               	addwf	___flmul@grs,f
  3883     0109  0839               	movf	___flmul@temp+1,w
  3884     010A  3DAF               	addwfc	___flmul@grs+1,f
  3885     010B  3000               	movlw	0
  3886     010C  3DB0               	addwfc	___flmul@grs+2,f
  3887     010D  3DB1               	addwfc	___flmul@grs+3,f
  3888     010E                     i1l1630:
  3889     010E  0820               	movf	___flmul@b,w
  3890     010F  00F0               	movwf	__Umul8_16@multiplicand
  3891     0110  0825               	movf	___flmul@a+1,w
  3892     0111  3185  2523  3180   	fcall	__Umul8_16
  3893     0114  0871               	movf	?__Umul8_16+1,w
  3894     0115  0020               	movlb	0	; select bank0
  3895     0116  00B9               	movwf	___flmul@temp+1
  3896     0117  0870               	movf	?__Umul8_16,w
  3897     0118  00B8               	movwf	___flmul@temp
  3898     0119                     i1l1632:
  3899     0119  0838               	movf	___flmul@temp,w
  3900     011A  07AE               	addwf	___flmul@grs,f
  3901     011B  0839               	movf	___flmul@temp+1,w
  3902     011C  3DAF               	addwfc	___flmul@grs+1,f
  3903     011D  3000               	movlw	0
  3904     011E  3DB0               	addwfc	___flmul@grs+2,f
  3905     011F  3DB1               	addwfc	___flmul@grs+3,f
  3906     0120                     i1l1634:
  3907     0120  3008               	movlw	8
  3908     0121                     u121_25:
  3909     0121  35AE               	lslf	___flmul@grs,f
  3910     0122  0DAF               	rlf	___flmul@grs+1,f
  3911     0123  0DB0               	rlf	___flmul@grs+2,f
  3912     0124  0DB1               	rlf	___flmul@grs+3,f
  3913     0125  0B89               	decfsz	9,f
  3914     0126  2921               	goto	u121_25
  3915     0127  0820               	movf	___flmul@b,w
  3916     0128  00F0               	movwf	__Umul8_16@multiplicand
  3917     0129  0824               	movf	___flmul@a,w
  3918     012A  3185  2523  3180   	fcall	__Umul8_16
  3919     012D  0871               	movf	?__Umul8_16+1,w
  3920     012E  0020               	movlb	0	; select bank0
  3921     012F  00B9               	movwf	___flmul@temp+1
  3922     0130  0870               	movf	?__Umul8_16,w
  3923     0131  00B8               	movwf	___flmul@temp
  3924     0132                     i1l1636:
  3925     0132  0838               	movf	___flmul@temp,w
  3926     0133  07AE               	addwf	___flmul@grs,f
  3927     0134  0839               	movf	___flmul@temp+1,w
  3928     0135  3DAF               	addwfc	___flmul@grs+1,f
  3929     0136  3000               	movlw	0
  3930     0137  3DB0               	addwfc	___flmul@grs+2,f
  3931     0138  3DB1               	addwfc	___flmul@grs+3,f
  3932     0139                     i1l1638:
  3933     0139  0821               	movf	___flmul@b+1,w
  3934     013A  00F0               	movwf	__Umul8_16@multiplicand
  3935     013B  0826               	movf	___flmul@a+2,w
  3936     013C  3185  2523  3180   	fcall	__Umul8_16
  3937     013F  0871               	movf	?__Umul8_16+1,w
  3938     0140  0020               	movlb	0	; select bank0
  3939     0141  00B9               	movwf	___flmul@temp+1
  3940     0142  0870               	movf	?__Umul8_16,w
  3941     0143  00B8               	movwf	___flmul@temp
  3942     0144  0838               	movf	___flmul@temp,w
  3943     0145  07B4               	addwf	___flmul@prod,f
  3944     0146  0839               	movf	___flmul@temp+1,w
  3945     0147  3DB5               	addwfc	___flmul@prod+1,f
  3946     0148  3000               	movlw	0
  3947     0149  3DB6               	addwfc	___flmul@prod+2,f
  3948     014A  3DB7               	addwfc	___flmul@prod+3,f
  3949     014B                     i1l1640:
  3950     014B  0822               	movf	___flmul@b+2,w
  3951     014C  00F0               	movwf	__Umul8_16@multiplicand
  3952     014D  0825               	movf	___flmul@a+1,w
  3953     014E  3185  2523  3180   	fcall	__Umul8_16
  3954     0151  0871               	movf	?__Umul8_16+1,w
  3955     0152  0020               	movlb	0	; select bank0
  3956     0153  00B9               	movwf	___flmul@temp+1
  3957     0154  0870               	movf	?__Umul8_16,w
  3958     0155  00B8               	movwf	___flmul@temp
  3959     0156                     i1l1642:
  3960     0156  0838               	movf	___flmul@temp,w
  3961     0157  07B4               	addwf	___flmul@prod,f
  3962     0158  0839               	movf	___flmul@temp+1,w
  3963     0159  3DB5               	addwfc	___flmul@prod+1,f
  3964     015A  3000               	movlw	0
  3965     015B  3DB6               	addwfc	___flmul@prod+2,f
  3966     015C  3DB7               	addwfc	___flmul@prod+3,f
  3967     015D  0822               	movf	___flmul@b+2,w
  3968     015E  00F0               	movwf	__Umul8_16@multiplicand
  3969     015F  0826               	movf	___flmul@a+2,w
  3970     0160  3185  2523  3180   	fcall	__Umul8_16
  3971     0163  0871               	movf	?__Umul8_16+1,w
  3972     0164  0020               	movlb	0	; select bank0
  3973     0165  00B9               	movwf	___flmul@temp+1
  3974     0166  0870               	movf	?__Umul8_16,w
  3975     0167  00B8               	movwf	___flmul@temp
  3976     0168                     i1l1644:
  3977     0168  0838               	movf	___flmul@temp,w
  3978     0169  00A8               	movwf	??___flmul
  3979     016A  0839               	movf	___flmul@temp+1,w
  3980     016B  00A9               	movwf	??___flmul+1
  3981     016C  01AA               	clrf	??___flmul+2
  3982     016D  01AB               	clrf	??___flmul+3
  3983     016E  3008               	movlw	8
  3984     016F                     u122_25:
  3985     016F  35A8               	lslf	??___flmul,f
  3986     0170  0DA9               	rlf	??___flmul+1,f
  3987     0171  0DAA               	rlf	??___flmul+2,f
  3988     0172  0DAB               	rlf	??___flmul+3,f
  3989     0173                     u122_20:
  3990     0173  0B89               	decfsz	9,f
  3991     0174  296F               	goto	u122_25
  3992     0175  0828               	movf	??___flmul,w
  3993     0176  07B4               	addwf	___flmul@prod,f
  3994     0177  0829               	movf	??___flmul+1,w
  3995     0178  3DB5               	addwfc	___flmul@prod+1,f
  3996     0179  082A               	movf	??___flmul+2,w
  3997     017A  3DB6               	addwfc	___flmul@prod+2,f
  3998     017B  082B               	movf	??___flmul+3,w
  3999     017C  3DB7               	addwfc	___flmul@prod+3,f
  4000     017D                     i1l1646:
  4001     017D  082E               	movf	___flmul@grs,w
  4002     017E  00A8               	movwf	??___flmul
  4003     017F  082F               	movf	___flmul@grs+1,w
  4004     0180  00A9               	movwf	??___flmul+1
  4005     0181  0830               	movf	___flmul@grs+2,w
  4006     0182  00AA               	movwf	??___flmul+2
  4007     0183  0831               	movf	___flmul@grs+3,w
  4008     0184  00AB               	movwf	??___flmul+3
  4009     0185  3018               	movlw	24
  4010     0186                     u123_25:
  4011     0186  36AB               	lsrf	??___flmul+3,f
  4012     0187  0CAA               	rrf	??___flmul+2,f
  4013     0188  0CA9               	rrf	??___flmul+1,f
  4014     0189  0CA8               	rrf	??___flmul,f
  4015     018A                     u123_20:
  4016     018A  0B89               	decfsz	9,f
  4017     018B  2986               	goto	u123_25
  4018     018C  0828               	movf	??___flmul,w
  4019     018D  07B4               	addwf	___flmul@prod,f
  4020     018E  0829               	movf	??___flmul+1,w
  4021     018F  3DB5               	addwfc	___flmul@prod+1,f
  4022     0190  082A               	movf	??___flmul+2,w
  4023     0191  3DB6               	addwfc	___flmul@prod+2,f
  4024     0192  082B               	movf	??___flmul+3,w
  4025     0193  3DB7               	addwfc	___flmul@prod+3,f
  4026     0194                     i1l1648:
  4027     0194  3008               	movlw	8
  4028     0195                     u124_25:
  4029     0195  35AE               	lslf	___flmul@grs,f
  4030     0196  0DAF               	rlf	___flmul@grs+1,f
  4031     0197  0DB0               	rlf	___flmul@grs+2,f
  4032     0198  0DB1               	rlf	___flmul@grs+3,f
  4033     0199  0B89               	decfsz	9,f
  4034     019A  2995               	goto	u124_25
  4035     019B                     i1l1650:
  4036     019B  0833               	movf	___flmul@bexp,w
  4037     019C  0732               	addwf	___flmul@aexp,w
  4038     019D  00A8               	movwf	??___flmul
  4039     019E  01A9               	clrf	??___flmul+1
  4040     019F  0DA9               	rlf	??___flmul+1,f
  4041     01A0  0828               	movf	??___flmul,w
  4042     01A1  3E82               	addlw	130
  4043     01A2  00B8               	movwf	___flmul@temp
  4044     01A3  30FF               	movlw	255
  4045     01A4  3D29               	addwfc	??___flmul+1,w
  4046     01A5  00B9               	movwf	___flmul@temp+1
  4047     01A6  29BE               	goto	i1l1662
  4048     01A7                     i1l1652:
  4049     01A7  3001               	movlw	1
  4050     01A8                     u125_25:
  4051     01A8  35B4               	lslf	___flmul@prod,f
  4052     01A9  0DB5               	rlf	___flmul@prod+1,f
  4053     01AA  0DB6               	rlf	___flmul@prod+2,f
  4054     01AB  0DB7               	rlf	___flmul@prod+3,f
  4055     01AC  0B89               	decfsz	9,f
  4056     01AD  29A8               	goto	u125_25
  4057     01AE                     i1l1654:
  4058     01AE  1FB1               	btfss	___flmul@grs+3,7
  4059     01AF  29B1               	goto	u126_21
  4060     01B0  29B2               	goto	u126_20
  4061     01B1                     u126_21:
  4062     01B1  29B3               	goto	i1l1658
  4063     01B2                     u126_20:
  4064     01B2                     i1l1656:
  4065     01B2  1434               	bsf	___flmul@prod,0
  4066     01B3                     i1l1658:
  4067     01B3  3001               	movlw	1
  4068     01B4                     u127_25:
  4069     01B4  35AE               	lslf	___flmul@grs,f
  4070     01B5  0DAF               	rlf	___flmul@grs+1,f
  4071     01B6  0DB0               	rlf	___flmul@grs+2,f
  4072     01B7  0DB1               	rlf	___flmul@grs+3,f
  4073     01B8  0B89               	decfsz	9,f
  4074     01B9  29B4               	goto	u127_25
  4075     01BA                     i1l1660:
  4076     01BA  30FF               	movlw	255
  4077     01BB  07B8               	addwf	___flmul@temp,f
  4078     01BC  30FF               	movlw	255
  4079     01BD  3DB9               	addwfc	___flmul@temp+1,f
  4080     01BE                     i1l1662:
  4081     01BE  1FB6               	btfss	___flmul@prod+2,7
  4082     01BF  29C1               	goto	u128_21
  4083     01C0  29C2               	goto	u128_20
  4084     01C1                     u128_21:
  4085     01C1  29A7               	goto	i1l1652
  4086     01C2                     u128_20:
  4087     01C2                     i1l1664:
  4088     01C2  01B2               	clrf	___flmul@aexp
  4089     01C3                     i1l1666:
  4090     01C3  1FB1               	btfss	___flmul@grs+3,7
  4091     01C4  29C6               	goto	u129_21
  4092     01C5  29C7               	goto	u129_20
  4093     01C6                     u129_21:
  4094     01C6  29E3               	goto	i1l1674
  4095     01C7                     u129_20:
  4096     01C7                     i1l1668:
  4097     01C7  30FF               	movlw	255
  4098     01C8  052E               	andwf	___flmul@grs,w
  4099     01C9  00A8               	movwf	??___flmul
  4100     01CA  30FF               	movlw	255
  4101     01CB  052F               	andwf	___flmul@grs+1,w
  4102     01CC  00A9               	movwf	??___flmul+1
  4103     01CD  30FF               	movlw	255
  4104     01CE  0530               	andwf	___flmul@grs+2,w
  4105     01CF  00AA               	movwf	??___flmul+2
  4106     01D0  307F               	movlw	127
  4107     01D1  0531               	andwf	___flmul@grs+3,w
  4108     01D2  00AB               	movwf	??___flmul+3
  4109     01D3  082B               	movf	??___flmul+3,w
  4110     01D4  042A               	iorwf	??___flmul+2,w
  4111     01D5  0429               	iorwf	??___flmul+1,w
  4112     01D6  0428               	iorwf	??___flmul,w
  4113     01D7  1903               	skipnz
  4114     01D8  29DA               	goto	u130_21
  4115     01D9  29DB               	goto	u130_20
  4116     01DA                     u130_21:
  4117     01DA  29DE               	goto	i1l827
  4118     01DB                     u130_20:
  4119     01DB                     i1l1670:
  4120     01DB  01B2               	clrf	___flmul@aexp
  4121     01DC  0AB2               	incf	___flmul@aexp,f
  4122     01DD  29E3               	goto	i1l1674
  4123     01DE                     i1l827:
  4124     01DE  1C34               	btfss	___flmul@prod,0
  4125     01DF  29E1               	goto	u131_21
  4126     01E0  29E2               	goto	u131_20
  4127     01E1                     u131_21:
  4128     01E1  29E3               	goto	i1l1674
  4129     01E2                     u131_20:
  4130     01E2  29DB               	goto	i1l1670
  4131     01E3                     i1l1674:
  4132     01E3  0832               	movf	___flmul@aexp,w
  4133     01E4  1903               	btfsc	3,2
  4134     01E5  29E7               	goto	u132_21
  4135     01E6  29E8               	goto	u132_20
  4136     01E7                     u132_21:
  4137     01E7  2A10               	goto	i1l1684
  4138     01E8                     u132_20:
  4139     01E8                     i1l1676:
  4140     01E8  3001               	movlw	1
  4141     01E9  07B4               	addwf	___flmul@prod,f
  4142     01EA  3000               	movlw	0
  4143     01EB  3DB5               	addwfc	___flmul@prod+1,f
  4144     01EC  3000               	movlw	0
  4145     01ED  3DB6               	addwfc	___flmul@prod+2,f
  4146     01EE  3000               	movlw	0
  4147     01EF  3DB7               	addwfc	___flmul@prod+3,f
  4148     01F0                     i1l1678:
  4149     01F0  1C37               	btfss	___flmul@prod+3,0
  4150     01F1  29F3               	goto	u133_21
  4151     01F2  29F4               	goto	u133_20
  4152     01F3                     u133_21:
  4153     01F3  2A10               	goto	i1l1684
  4154     01F4                     u133_20:
  4155     01F4                     i1l1680:
  4156     01F4  0834               	movf	___flmul@prod,w
  4157     01F5  00A8               	movwf	??___flmul
  4158     01F6  0835               	movf	___flmul@prod+1,w
  4159     01F7  00A9               	movwf	??___flmul+1
  4160     01F8  0836               	movf	___flmul@prod+2,w
  4161     01F9  00AA               	movwf	??___flmul+2
  4162     01FA  0837               	movf	___flmul@prod+3,w
  4163     01FB  00AB               	movwf	??___flmul+3
  4164     01FC  3001               	movlw	1
  4165     01FD  00AC               	movwf	??___flmul+4
  4166     01FE                     u134_25:
  4167     01FE  37AB               	asrf	??___flmul+3,f
  4168     01FF  0CAA               	rrf	??___flmul+2,f
  4169     0200  0CA9               	rrf	??___flmul+1,f
  4170     0201  0CA8               	rrf	??___flmul,f
  4171     0202                     u134_20:
  4172     0202  0BAC               	decfsz	??___flmul+4,f
  4173     0203  29FE               	goto	u134_25
  4174     0204  082B               	movf	??___flmul+3,w
  4175     0205  00B7               	movwf	___flmul@prod+3
  4176     0206  082A               	movf	??___flmul+2,w
  4177     0207  00B6               	movwf	___flmul@prod+2
  4178     0208  0829               	movf	??___flmul+1,w
  4179     0209  00B5               	movwf	___flmul@prod+1
  4180     020A  0828               	movf	??___flmul,w
  4181     020B  00B4               	movwf	___flmul@prod
  4182     020C                     i1l1682:
  4183     020C  3001               	movlw	1
  4184     020D  07B8               	addwf	___flmul@temp,f
  4185     020E  3000               	movlw	0
  4186     020F  3DB9               	addwfc	___flmul@temp+1,f
  4187     0210                     i1l1684:
  4188     0210  0839               	movf	___flmul@temp+1,w
  4189     0211  3A80               	xorlw	128
  4190     0212  00A8               	movwf	??___flmul
  4191     0213  3080               	movlw	128
  4192     0214  0228               	subwf	??___flmul,w
  4193     0215  1D03               	skipz
  4194     0216  2A19               	goto	u135_25
  4195     0217  30FF               	movlw	255
  4196     0218  0238               	subwf	___flmul@temp,w
  4197     0219                     u135_25:
  4198     0219  1C03               	skipc
  4199     021A  2A1C               	goto	u135_21
  4200     021B  2A1D               	goto	u135_20
  4201     021C                     u135_21:
  4202     021C  2A27               	goto	i1l1688
  4203     021D                     u135_20:
  4204     021D                     i1l1686:
  4205     021D  307F               	movlw	127
  4206     021E  0020               	movlb	0	; select bank0
  4207     021F  00B7               	movwf	___flmul@prod+3
  4208     0220  3080               	movlw	128
  4209     0221  00B6               	movwf	___flmul@prod+2
  4210     0222  3000               	movlw	0
  4211     0223  00B5               	movwf	___flmul@prod+1
  4212     0224  3000               	movlw	0
  4213     0225  00B4               	movwf	___flmul@prod
  4214     0226  2A52               	goto	i1l833
  4215     0227                     i1l1688:
  4216     0227  0020               	movlb	0	; select bank0
  4217     0228  0839               	movf	___flmul@temp+1,w
  4218     0229  3A80               	xorlw	128
  4219     022A  00A8               	movwf	??___flmul
  4220     022B  3080               	movlw	128
  4221     022C  0228               	subwf	??___flmul,w
  4222     022D  1D03               	skipz
  4223     022E  2A31               	goto	u136_25
  4224     022F  3001               	movlw	1
  4225     0230  0238               	subwf	___flmul@temp,w
  4226     0231                     u136_25:
  4227     0231  1803               	skipnc
  4228     0232  2A34               	goto	u136_21
  4229     0233  2A35               	goto	u136_20
  4230     0234                     u136_21:
  4231     0234  2A40               	goto	i1l1694
  4232     0235                     u136_20:
  4233     0235                     i1l1690:
  4234     0235  3000               	movlw	0
  4235     0236  0020               	movlb	0	; select bank0
  4236     0237  00B7               	movwf	___flmul@prod+3
  4237     0238  3000               	movlw	0
  4238     0239  00B6               	movwf	___flmul@prod+2
  4239     023A  3000               	movlw	0
  4240     023B  00B5               	movwf	___flmul@prod+1
  4241     023C  3000               	movlw	0
  4242     023D  00B4               	movwf	___flmul@prod
  4243     023E                     i1l1692:
  4244     023E  01AD               	clrf	___flmul@sign
  4245     023F  2A52               	goto	i1l833
  4246     0240                     i1l1694:
  4247     0240  0020               	movlb	0	; select bank0
  4248     0241  0838               	movf	___flmul@temp,w
  4249     0242  00B3               	movwf	___flmul@bexp
  4250     0243  30FF               	movlw	255
  4251     0244  05B4               	andwf	___flmul@prod,f
  4252     0245  30FF               	movlw	255
  4253     0246  05B5               	andwf	___flmul@prod+1,f
  4254     0247  307F               	movlw	127
  4255     0248  05B6               	andwf	___flmul@prod+2,f
  4256     0249  3000               	movlw	0
  4257     024A  05B7               	andwf	___flmul@prod+3,f
  4258     024B                     i1l1696:
  4259     024B  1C33               	btfss	___flmul@bexp,0
  4260     024C  2A4E               	goto	u137_21
  4261     024D  2A4F               	goto	u137_20
  4262     024E                     u137_21:
  4263     024E  2A50               	goto	i1l1700
  4264     024F                     u137_20:
  4265     024F                     i1l1698:
  4266     024F  17B6               	bsf	___flmul@prod+2,7
  4267     0250                     i1l1700:
  4268     0250  3633               	lsrf	___flmul@bexp,w
  4269     0251  00B7               	movwf	___flmul@prod+3
  4270     0252                     i1l833:
  4271     0252  082D               	movf	___flmul@sign,w
  4272     0253  00A8               	movwf	??___flmul
  4273     0254  0828               	movf	??___flmul,w
  4274     0255  04B7               	iorwf	___flmul@prod+3,f
  4275     0256                     i1l1702:
  4276     0256  0837               	movf	___flmul@prod+3,w
  4277     0257  00A3               	movwf	?___flmul+3
  4278     0258  0836               	movf	___flmul@prod+2,w
  4279     0259  00A2               	movwf	?___flmul+2
  4280     025A  0835               	movf	___flmul@prod+1,w
  4281     025B  00A1               	movwf	?___flmul+1
  4282     025C  0834               	movf	___flmul@prod,w
  4283     025D  00A0               	movwf	?___flmul
  4284     025E                     i1l821:
  4285     025E  0008               	return
  4286     025F                     __end_of___flmul:
  4287                           
  4288                           	psect	text18
  4289     0523                     __ptext18:	
  4290 ;; *************** function __Umul8_16 *****************
  4291 ;; Defined at:
  4292 ;;		line 4 in file "C:\Program Files\Microchip\xc8\v2.45\pic\sources\c99\common\Umul8_16.c"
  4293 ;; Parameters:    Size  Location     Type
  4294 ;;  multiplier      1    wreg     unsigned char 
  4295 ;;  multiplicand    1    0[COMMON] unsigned char 
  4296 ;; Auto vars:     Size  Location     Type
  4297 ;;  multiplier      1    8[COMMON] unsigned char 
  4298 ;;  word_mpld       2    6[COMMON] unsigned short 
  4299 ;;  product         2    4[COMMON] unsigned short 
  4300 ;; Return value:  Size  Location     Type
  4301 ;;                  2    0[COMMON] unsigned int 
  4302 ;; Registers used:
  4303 ;;		wreg, status,2, status,0
  4304 ;; Tracked objects:
  4305 ;;		On entry : 0/0
  4306 ;;		On exit  : 0/0
  4307 ;;		Unchanged: 0/0
  4308 ;; Data sizes:     COMMON   BANK0   BANK1   BANK2   BANK3   BANK4
  4309 ;;      Params:         2       0       0       0       0       0
  4310 ;;      Locals:         5       0       0       0       0       0
  4311 ;;      Temps:          2       0       0       0       0       0
  4312 ;;      Totals:         9       0       0       0       0       0
  4313 ;;Total ram usage:        9 bytes
  4314 ;; Hardware stack levels used: 1
  4315 ;; This function calls:
  4316 ;;		Nothing
  4317 ;; This function is called by:
  4318 ;;		___flmul
  4319 ;; This function uses a non-reentrant model
  4320 ;;
  4321                           
  4322     0523                     __Umul8_16:	
  4323                           ;psect for function __Umul8_16
  4324                           
  4325                           
  4326                           ;incstack = 0
  4327                           ; Regs used in __Umul8_16: [wreg+status,2+status,0]
  4328                           ;__Umul8_16@multiplier stored from wreg
  4329     0523  00F8               	movwf	__Umul8_16@multiplier
  4330     0524                     i1l1412:
  4331     0524  01F4               	clrf	__Umul8_16@product
  4332     0525  01F5               	clrf	__Umul8_16@product+1
  4333     0526                     i1l1414:
  4334     0526  0870               	movf	__Umul8_16@multiplicand,w
  4335     0527  00F2               	movwf	??__Umul8_16
  4336     0528  01F3               	clrf	??__Umul8_16+1
  4337     0529  0872               	movf	??__Umul8_16,w
  4338     052A  00F6               	movwf	__Umul8_16@word_mpld
  4339     052B  0873               	movf	??__Umul8_16+1,w
  4340     052C  00F7               	movwf	__Umul8_16@word_mpld+1
  4341     052D                     i1l1416:
  4342     052D  1C78               	btfss	__Umul8_16@multiplier,0
  4343     052E  2D30               	goto	u80_21
  4344     052F  2D31               	goto	u80_20
  4345     0530                     u80_21:
  4346     0530  2D35               	goto	i1l840
  4347     0531                     u80_20:
  4348     0531                     i1l1418:
  4349     0531  0876               	movf	__Umul8_16@word_mpld,w
  4350     0532  07F4               	addwf	__Umul8_16@product,f
  4351     0533  0877               	movf	__Umul8_16@word_mpld+1,w
  4352     0534  3DF5               	addwfc	__Umul8_16@product+1,f
  4353     0535                     i1l840:
  4354     0535  3001               	movlw	1
  4355     0536                     u81_25:
  4356     0536  35F6               	lslf	__Umul8_16@word_mpld,f
  4357     0537  0DF7               	rlf	__Umul8_16@word_mpld+1,f
  4358     0538  0B89               	decfsz	9,f
  4359     0539  2D36               	goto	u81_25
  4360     053A  1003               	clrc
  4361     053B  0CF8               	rrf	__Umul8_16@multiplier,f
  4362     053C                     i1l1420:
  4363     053C  0878               	movf	__Umul8_16@multiplier,w
  4364     053D  1D03               	btfss	3,2
  4365     053E  2D40               	goto	u82_21
  4366     053F  2D41               	goto	u82_20
  4367     0540                     u82_21:
  4368     0540  2D2D               	goto	i1l1416
  4369     0541                     u82_20:
  4370     0541                     i1l1422:
  4371     0541  0875               	movf	__Umul8_16@product+1,w
  4372     0542  00F1               	movwf	?__Umul8_16+1
  4373     0543  0874               	movf	__Umul8_16@product,w
  4374     0544  00F0               	movwf	?__Umul8_16
  4375     0545                     i1l842:
  4376     0545  0008               	return
  4377     0546                     __end_of__Umul8_16:
  4378                           
  4379                           	psect	text19
  4380     025F                     __ptext19:	
  4381 ;; *************** function ___fldiv *****************
  4382 ;; Defined at:
  4383 ;;		line 8 in file "C:\Program Files\Microchip\xc8\v2.45\pic\sources\c99\common\sprcdiv.c"
  4384 ;; Parameters:    Size  Location     Type
  4385 ;;  a               4    0[COMMON] unsigned int 
  4386 ;;  b               4    4[COMMON] unsigned int 
  4387 ;; Auto vars:     Size  Location     Type
  4388 ;;  grs             4    7[BANK0 ] unsigned long 
  4389 ;;  rem             4    0[BANK0 ] unsigned long 
  4390 ;;  new_exp         2    5[BANK0 ] short 
  4391 ;;  aexp            1   12[BANK0 ] unsigned char 
  4392 ;;  bexp            1   11[BANK0 ] unsigned char 
  4393 ;;  sign            1    4[BANK0 ] unsigned char 
  4394 ;; Return value:  Size  Location     Type
  4395 ;;                  4    0[COMMON] unsigned char 
  4396 ;; Registers used:
  4397 ;;		wreg, status,2, status,0
  4398 ;; Tracked objects:
  4399 ;;		On entry : 0/0
  4400 ;;		On exit  : 0/0
  4401 ;;		Unchanged: 0/0
  4402 ;; Data sizes:     COMMON   BANK0   BANK1   BANK2   BANK3   BANK4
  4403 ;;      Params:         8       0       0       0       0       0
  4404 ;;      Locals:         0      13       0       0       0       0
  4405 ;;      Temps:          5       0       0       0       0       0
  4406 ;;      Totals:        13      13       0       0       0       0
  4407 ;;Total ram usage:       26 bytes
  4408 ;; Hardware stack levels used: 1
  4409 ;; This function calls:
  4410 ;;		Nothing
  4411 ;; This function is called by:
  4412 ;;		_ECCP1_CallBack
  4413 ;; This function uses a non-reentrant model
  4414 ;;
  4415                           
  4416     025F                     ___fldiv:	
  4417                           ;psect for function ___fldiv
  4418                           
  4419     025F                     i1l1426:	
  4420                           ;incstack = 0
  4421                           ; Regs used in ___fldiv: [wreg+status,2+status,0]
  4422                           
  4423     025F  0877               	movf	___fldiv@b+3,w
  4424     0260  3980               	andlw	128
  4425     0261  0020               	movlb	0	; select bank0
  4426     0262  00A4               	movwf	___fldiv@sign
  4427     0263                     i1l1428:
  4428     0263  3577               	lslf	___fldiv@b+3,w
  4429     0264  00AB               	movwf	___fldiv@bexp
  4430     0265                     i1l1430:
  4431     0265  1FF6               	btfss	___fldiv@b+2,7
  4432     0266  2A68               	goto	u83_21
  4433     0267  2A69               	goto	u83_20
  4434     0268                     u83_21:
  4435     0268  2A6A               	goto	i1l1434
  4436     0269                     u83_20:
  4437     0269                     i1l1432:
  4438     0269  142B               	bsf	___fldiv@bexp,0
  4439     026A                     i1l1434:
  4440     026A  082B               	movf	___fldiv@bexp,w
  4441     026B  1903               	btfsc	3,2
  4442     026C  2A6E               	goto	u84_21
  4443     026D  2A6F               	goto	u84_20
  4444     026E                     u84_21:
  4445     026E  2A7F               	goto	i1l1444
  4446     026F                     u84_20:
  4447     026F                     i1l1436:
  4448     026F  0A2B               	incf	___fldiv@bexp,w
  4449     0270  1D03               	btfss	3,2
  4450     0271  2A73               	goto	u85_21
  4451     0272  2A74               	goto	u85_20
  4452     0273                     u85_21:
  4453     0273  2A7C               	goto	i1l1440
  4454     0274                     u85_20:
  4455     0274                     i1l1438:
  4456     0274  3000               	movlw	0
  4457     0275  00F7               	movwf	___fldiv@b+3
  4458     0276  3000               	movlw	0
  4459     0277  00F6               	movwf	___fldiv@b+2
  4460     0278  3000               	movlw	0
  4461     0279  00F5               	movwf	___fldiv@b+1
  4462     027A  3000               	movlw	0
  4463     027B  00F4               	movwf	___fldiv@b
  4464     027C                     i1l1440:
  4465     027C  17F6               	bsf	___fldiv@b+2,7
  4466     027D                     i1l1442:
  4467     027D  01F7               	clrf	___fldiv@b+3
  4468     027E  2A87               	goto	i1l1446
  4469     027F                     i1l1444:
  4470     027F  3000               	movlw	0
  4471     0280  00F7               	movwf	___fldiv@b+3
  4472     0281  3000               	movlw	0
  4473     0282  00F6               	movwf	___fldiv@b+2
  4474     0283  3000               	movlw	0
  4475     0284  00F5               	movwf	___fldiv@b+1
  4476     0285  3000               	movlw	0
  4477     0286  00F4               	movwf	___fldiv@b
  4478     0287                     i1l1446:
  4479     0287  0873               	movf	___fldiv@a+3,w
  4480     0288  3980               	andlw	128
  4481     0289  00F8               	movwf	??___fldiv
  4482     028A  0878               	movf	??___fldiv,w
  4483     028B  06A4               	xorwf	___fldiv@sign,f
  4484     028C                     i1l1448:
  4485     028C  3573               	lslf	___fldiv@a+3,w
  4486     028D  00AC               	movwf	___fldiv@aexp
  4487     028E                     i1l1450:
  4488     028E  1FF2               	btfss	___fldiv@a+2,7
  4489     028F  2A91               	goto	u86_21
  4490     0290  2A92               	goto	u86_20
  4491     0291                     u86_21:
  4492     0291  2A93               	goto	i1l1454
  4493     0292                     u86_20:
  4494     0292                     i1l1452:
  4495     0292  142C               	bsf	___fldiv@aexp,0
  4496     0293                     i1l1454:
  4497     0293  082C               	movf	___fldiv@aexp,w
  4498     0294  1903               	btfsc	3,2
  4499     0295  2A97               	goto	u87_21
  4500     0296  2A98               	goto	u87_20
  4501     0297                     u87_21:
  4502     0297  2AA8               	goto	i1l1464
  4503     0298                     u87_20:
  4504     0298                     i1l1456:
  4505     0298  0A2C               	incf	___fldiv@aexp,w
  4506     0299  1D03               	btfss	3,2
  4507     029A  2A9C               	goto	u88_21
  4508     029B  2A9D               	goto	u88_20
  4509     029C                     u88_21:
  4510     029C  2AA5               	goto	i1l1460
  4511     029D                     u88_20:
  4512     029D                     i1l1458:
  4513     029D  3000               	movlw	0
  4514     029E  00F3               	movwf	___fldiv@a+3
  4515     029F  3000               	movlw	0
  4516     02A0  00F2               	movwf	___fldiv@a+2
  4517     02A1  3000               	movlw	0
  4518     02A2  00F1               	movwf	___fldiv@a+1
  4519     02A3  3000               	movlw	0
  4520     02A4  00F0               	movwf	___fldiv@a
  4521     02A5                     i1l1460:
  4522     02A5  17F2               	bsf	___fldiv@a+2,7
  4523     02A6                     i1l1462:
  4524     02A6  01F3               	clrf	___fldiv@a+3
  4525     02A7  2AB0               	goto	i1l781
  4526     02A8                     i1l1464:
  4527     02A8  3000               	movlw	0
  4528     02A9  00F3               	movwf	___fldiv@a+3
  4529     02AA  3000               	movlw	0
  4530     02AB  00F2               	movwf	___fldiv@a+2
  4531     02AC  3000               	movlw	0
  4532     02AD  00F1               	movwf	___fldiv@a+1
  4533     02AE  3000               	movlw	0
  4534     02AF  00F0               	movwf	___fldiv@a
  4535     02B0                     i1l781:
  4536     02B0  0873               	movf	___fldiv@a+3,w
  4537     02B1  0472               	iorwf	___fldiv@a+2,w
  4538     02B2  0471               	iorwf	___fldiv@a+1,w
  4539     02B3  0470               	iorwf	___fldiv@a,w
  4540     02B4  1D03               	skipz
  4541     02B5  2AB7               	goto	u89_21
  4542     02B6  2AB8               	goto	u89_20
  4543     02B7                     u89_21:
  4544     02B7  2AD1               	goto	i1l1474
  4545     02B8                     u89_20:
  4546     02B8                     i1l1466:
  4547     02B8  3000               	movlw	0
  4548     02B9  00F7               	movwf	___fldiv@b+3
  4549     02BA  3000               	movlw	0
  4550     02BB  00F6               	movwf	___fldiv@b+2
  4551     02BC  3000               	movlw	0
  4552     02BD  00F5               	movwf	___fldiv@b+1
  4553     02BE  3000               	movlw	0
  4554     02BF  00F4               	movwf	___fldiv@b
  4555     02C0  3080               	movlw	128
  4556     02C1  04F6               	iorwf	___fldiv@b+2,f
  4557     02C2  307F               	movlw	127
  4558     02C3  04F7               	iorwf	___fldiv@b+3,f
  4559     02C4                     i1l1468:
  4560     02C4  0824               	movf	___fldiv@sign,w
  4561     02C5  00F8               	movwf	??___fldiv
  4562     02C6  0878               	movf	??___fldiv,w
  4563     02C7  04F7               	iorwf	___fldiv@b+3,f
  4564     02C8                     i1l1470:
  4565     02C8  0877               	movf	___fldiv@b+3,w
  4566     02C9  00F3               	movwf	?___fldiv+3
  4567     02CA  0876               	movf	___fldiv@b+2,w
  4568     02CB  00F2               	movwf	?___fldiv+2
  4569     02CC  0875               	movf	___fldiv@b+1,w
  4570     02CD  00F1               	movwf	?___fldiv+1
  4571     02CE  0874               	movf	___fldiv@b,w
  4572     02CF  00F0               	movwf	?___fldiv
  4573     02D0  2C08               	goto	i1l783
  4574     02D1                     i1l1474:
  4575     02D1  082B               	movf	___fldiv@bexp,w
  4576     02D2  1D03               	btfss	3,2
  4577     02D3  2AD5               	goto	u90_21
  4578     02D4  2AD6               	goto	u90_20
  4579     02D5                     u90_21:
  4580     02D5  2ADF               	goto	i1l1480
  4581     02D6                     u90_20:
  4582     02D6                     i1l1476:
  4583     02D6  3000               	movlw	0
  4584     02D7  00F3               	movwf	?___fldiv+3
  4585     02D8  3000               	movlw	0
  4586     02D9  00F2               	movwf	?___fldiv+2
  4587     02DA  3000               	movlw	0
  4588     02DB  00F1               	movwf	?___fldiv+1
  4589     02DC  3000               	movlw	0
  4590     02DD  00F0               	movwf	?___fldiv
  4591     02DE  2C08               	goto	i1l783
  4592     02DF                     i1l1480:
  4593     02DF  082B               	movf	___fldiv@bexp,w
  4594     02E0  00F8               	movwf	??___fldiv
  4595     02E1  01F9               	clrf	??___fldiv+1
  4596     02E2  0879               	movf	??___fldiv+1,w
  4597     02E3  00FB               	movwf	??___fldiv+3
  4598     02E4  082C               	movf	___fldiv@aexp,w
  4599     02E5  0278               	subwf	??___fldiv,w
  4600     02E6  00FA               	movwf	??___fldiv+2
  4601     02E7  1C03               	skipc
  4602     02E8  03FB               	decf	??___fldiv+3,f
  4603     02E9  087A               	movf	??___fldiv+2,w
  4604     02EA  3E7F               	addlw	127
  4605     02EB  00A5               	movwf	___fldiv@new_exp
  4606     02EC  3000               	movlw	0
  4607     02ED  3D7B               	addwfc	??___fldiv+3,w
  4608     02EE  00A6               	movwf	___fldiv@new_exp+1
  4609     02EF                     i1l1482:
  4610     02EF  0877               	movf	___fldiv@b+3,w
  4611     02F0  00A3               	movwf	___fldiv@rem+3
  4612     02F1  0876               	movf	___fldiv@b+2,w
  4613     02F2  00A2               	movwf	___fldiv@rem+2
  4614     02F3  0875               	movf	___fldiv@b+1,w
  4615     02F4  00A1               	movwf	___fldiv@rem+1
  4616     02F5  0874               	movf	___fldiv@b,w
  4617     02F6  00A0               	movwf	___fldiv@rem
  4618     02F7                     i1l1484:
  4619     02F7  3000               	movlw	0
  4620     02F8  00F7               	movwf	___fldiv@b+3
  4621     02F9  3000               	movlw	0
  4622     02FA  00F6               	movwf	___fldiv@b+2
  4623     02FB  3000               	movlw	0
  4624     02FC  00F5               	movwf	___fldiv@b+1
  4625     02FD  3000               	movlw	0
  4626     02FE  00F4               	movwf	___fldiv@b
  4627     02FF                     i1l1486:
  4628     02FF  3000               	movlw	0
  4629     0300  00AA               	movwf	___fldiv@grs+3
  4630     0301  3000               	movlw	0
  4631     0302  00A9               	movwf	___fldiv@grs+2
  4632     0303  3000               	movlw	0
  4633     0304  00A8               	movwf	___fldiv@grs+1
  4634     0305  3000               	movlw	0
  4635     0306  00A7               	movwf	___fldiv@grs
  4636     0307                     i1l1488:
  4637     0307  01AC               	clrf	___fldiv@aexp
  4638     0308  2B47               	goto	i1l1508
  4639     0309                     i1l1490:
  4640     0309  082C               	movf	___fldiv@aexp,w
  4641     030A  1903               	btfsc	3,2
  4642     030B  2B0D               	goto	u91_21
  4643     030C  2B0E               	goto	u91_20
  4644     030D                     u91_21:
  4645     030D  2B28               	goto	i1l1500
  4646     030E                     u91_20:
  4647     030E                     i1l1492:
  4648     030E  3001               	movlw	1
  4649     030F                     u92_25:
  4650     030F  35A0               	lslf	___fldiv@rem,f
  4651     0310  0DA1               	rlf	___fldiv@rem+1,f
  4652     0311  0DA2               	rlf	___fldiv@rem+2,f
  4653     0312  0DA3               	rlf	___fldiv@rem+3,f
  4654     0313  0B89               	decfsz	9,f
  4655     0314  2B0F               	goto	u92_25
  4656     0315  3001               	movlw	1
  4657     0316                     u93_25:
  4658     0316  35F4               	lslf	___fldiv@b,f
  4659     0317  0DF5               	rlf	___fldiv@b+1,f
  4660     0318  0DF6               	rlf	___fldiv@b+2,f
  4661     0319  0DF7               	rlf	___fldiv@b+3,f
  4662     031A  0B89               	decfsz	9,f
  4663     031B  2B16               	goto	u93_25
  4664     031C                     i1l1494:
  4665     031C  1FAA               	btfss	___fldiv@grs+3,7
  4666     031D  2B1F               	goto	u94_21
  4667     031E  2B20               	goto	u94_20
  4668     031F                     u94_21:
  4669     031F  2B21               	goto	i1l1498
  4670     0320                     u94_20:
  4671     0320                     i1l1496:
  4672     0320  1474               	bsf	___fldiv@b,0
  4673     0321                     i1l1498:
  4674     0321  3001               	movlw	1
  4675     0322                     u95_25:
  4676     0322  35A7               	lslf	___fldiv@grs,f
  4677     0323  0DA8               	rlf	___fldiv@grs+1,f
  4678     0324  0DA9               	rlf	___fldiv@grs+2,f
  4679     0325  0DAA               	rlf	___fldiv@grs+3,f
  4680     0326  0B89               	decfsz	9,f
  4681     0327  2B22               	goto	u95_25
  4682     0328                     i1l1500:
  4683     0328  0873               	movf	___fldiv@a+3,w
  4684     0329  0223               	subwf	___fldiv@rem+3,w
  4685     032A  1D03               	skipz
  4686     032B  2B36               	goto	u96_25
  4687     032C  0872               	movf	___fldiv@a+2,w
  4688     032D  0222               	subwf	___fldiv@rem+2,w
  4689     032E  1D03               	skipz
  4690     032F  2B36               	goto	u96_25
  4691     0330  0871               	movf	___fldiv@a+1,w
  4692     0331  0221               	subwf	___fldiv@rem+1,w
  4693     0332  1D03               	skipz
  4694     0333  2B36               	goto	u96_25
  4695     0334  0870               	movf	___fldiv@a,w
  4696     0335  0220               	subwf	___fldiv@rem,w
  4697     0336                     u96_25:
  4698     0336  1C03               	skipc
  4699     0337  2B39               	goto	u96_21
  4700     0338  2B3A               	goto	u96_20
  4701     0339                     u96_21:
  4702     0339  2B43               	goto	i1l1506
  4703     033A                     u96_20:
  4704     033A                     i1l1502:
  4705     033A  172A               	bsf	___fldiv@grs+3,6
  4706     033B                     i1l1504:
  4707     033B  0870               	movf	___fldiv@a,w
  4708     033C  02A0               	subwf	___fldiv@rem,f
  4709     033D  0871               	movf	___fldiv@a+1,w
  4710     033E  3BA1               	subwfb	___fldiv@rem+1,f
  4711     033F  0872               	movf	___fldiv@a+2,w
  4712     0340  3BA2               	subwfb	___fldiv@rem+2,f
  4713     0341  0873               	movf	___fldiv@a+3,w
  4714     0342  3BA3               	subwfb	___fldiv@rem+3,f
  4715     0343                     i1l1506:
  4716     0343  3001               	movlw	1
  4717     0344  00F8               	movwf	??___fldiv
  4718     0345  0878               	movf	??___fldiv,w
  4719     0346  07AC               	addwf	___fldiv@aexp,f
  4720     0347                     i1l1508:
  4721     0347  301A               	movlw	26
  4722     0348  022C               	subwf	___fldiv@aexp,w
  4723     0349  1C03               	skipc
  4724     034A  2B4C               	goto	u97_21
  4725     034B  2B4D               	goto	u97_20
  4726     034C                     u97_21:
  4727     034C  2B09               	goto	i1l1490
  4728     034D                     u97_20:
  4729     034D                     i1l1510:
  4730     034D  0823               	movf	___fldiv@rem+3,w
  4731     034E  0422               	iorwf	___fldiv@rem+2,w
  4732     034F  0421               	iorwf	___fldiv@rem+1,w
  4733     0350  0420               	iorwf	___fldiv@rem,w
  4734     0351  1903               	skipnz
  4735     0352  2B54               	goto	u98_21
  4736     0353  2B55               	goto	u98_20
  4737     0354                     u98_21:
  4738     0354  2B6E               	goto	i1l1524
  4739     0355                     u98_20:
  4740     0355                     i1l1512:
  4741     0355  1427               	bsf	___fldiv@grs,0
  4742     0356  2B6E               	goto	i1l1524
  4743     0357                     i1l1514:
  4744     0357  3001               	movlw	1
  4745     0358                     u99_25:
  4746     0358  35F4               	lslf	___fldiv@b,f
  4747     0359  0DF5               	rlf	___fldiv@b+1,f
  4748     035A  0DF6               	rlf	___fldiv@b+2,f
  4749     035B  0DF7               	rlf	___fldiv@b+3,f
  4750     035C  0B89               	decfsz	9,f
  4751     035D  2B58               	goto	u99_25
  4752     035E                     i1l1516:
  4753     035E  1FAA               	btfss	___fldiv@grs+3,7
  4754     035F  2B61               	goto	u100_21
  4755     0360  2B62               	goto	u100_20
  4756     0361                     u100_21:
  4757     0361  2B63               	goto	i1l1520
  4758     0362                     u100_20:
  4759     0362                     i1l1518:
  4760     0362  1474               	bsf	___fldiv@b,0
  4761     0363                     i1l1520:
  4762     0363  3001               	movlw	1
  4763     0364                     u101_25:
  4764     0364  35A7               	lslf	___fldiv@grs,f
  4765     0365  0DA8               	rlf	___fldiv@grs+1,f
  4766     0366  0DA9               	rlf	___fldiv@grs+2,f
  4767     0367  0DAA               	rlf	___fldiv@grs+3,f
  4768     0368  0B89               	decfsz	9,f
  4769     0369  2B64               	goto	u101_25
  4770     036A                     i1l1522:
  4771     036A  30FF               	movlw	255
  4772     036B  07A5               	addwf	___fldiv@new_exp,f
  4773     036C  30FF               	movlw	255
  4774     036D  3DA6               	addwfc	___fldiv@new_exp+1,f
  4775     036E                     i1l1524:
  4776     036E  1FF6               	btfss	___fldiv@b+2,7
  4777     036F  2B71               	goto	u102_21
  4778     0370  2B72               	goto	u102_20
  4779     0371                     u102_21:
  4780     0371  2B57               	goto	i1l1514
  4781     0372                     u102_20:
  4782     0372                     i1l1526:
  4783     0372  01AC               	clrf	___fldiv@aexp
  4784     0373                     i1l1528:
  4785     0373  1FAA               	btfss	___fldiv@grs+3,7
  4786     0374  2B76               	goto	u103_21
  4787     0375  2B77               	goto	u103_20
  4788     0376                     u103_21:
  4789     0376  2B93               	goto	i1l1536
  4790     0377                     u103_20:
  4791     0377                     i1l1530:
  4792     0377  30FF               	movlw	255
  4793     0378  0527               	andwf	___fldiv@grs,w
  4794     0379  00F8               	movwf	??___fldiv
  4795     037A  30FF               	movlw	255
  4796     037B  0528               	andwf	___fldiv@grs+1,w
  4797     037C  00F9               	movwf	??___fldiv+1
  4798     037D  30FF               	movlw	255
  4799     037E  0529               	andwf	___fldiv@grs+2,w
  4800     037F  00FA               	movwf	??___fldiv+2
  4801     0380  307F               	movlw	127
  4802     0381  052A               	andwf	___fldiv@grs+3,w
  4803     0382  00FB               	movwf	??___fldiv+3
  4804     0383  087B               	movf	??___fldiv+3,w
  4805     0384  047A               	iorwf	??___fldiv+2,w
  4806     0385  0479               	iorwf	??___fldiv+1,w
  4807     0386  0478               	iorwf	??___fldiv,w
  4808     0387  1903               	skipnz
  4809     0388  2B8A               	goto	u104_21
  4810     0389  2B8B               	goto	u104_20
  4811     038A                     u104_21:
  4812     038A  2B8E               	goto	i1l797
  4813     038B                     u104_20:
  4814     038B                     i1l1532:
  4815     038B  01AC               	clrf	___fldiv@aexp
  4816     038C  0AAC               	incf	___fldiv@aexp,f
  4817     038D  2B93               	goto	i1l1536
  4818     038E                     i1l797:
  4819     038E  1C74               	btfss	___fldiv@b,0
  4820     038F  2B91               	goto	u105_21
  4821     0390  2B92               	goto	u105_20
  4822     0391                     u105_21:
  4823     0391  2B93               	goto	i1l1536
  4824     0392                     u105_20:
  4825     0392  2B8B               	goto	i1l1532
  4826     0393                     i1l1536:
  4827     0393  082C               	movf	___fldiv@aexp,w
  4828     0394  1903               	btfsc	3,2
  4829     0395  2B97               	goto	u106_21
  4830     0396  2B98               	goto	u106_20
  4831     0397                     u106_21:
  4832     0397  2BC0               	goto	i1l1546
  4833     0398                     u106_20:
  4834     0398                     i1l1538:
  4835     0398  3001               	movlw	1
  4836     0399  07F4               	addwf	___fldiv@b,f
  4837     039A  3000               	movlw	0
  4838     039B  3DF5               	addwfc	___fldiv@b+1,f
  4839     039C  3000               	movlw	0
  4840     039D  3DF6               	addwfc	___fldiv@b+2,f
  4841     039E  3000               	movlw	0
  4842     039F  3DF7               	addwfc	___fldiv@b+3,f
  4843     03A0                     i1l1540:
  4844     03A0  1C77               	btfss	___fldiv@b+3,0
  4845     03A1  2BA3               	goto	u107_21
  4846     03A2  2BA4               	goto	u107_20
  4847     03A3                     u107_21:
  4848     03A3  2BC0               	goto	i1l1546
  4849     03A4                     u107_20:
  4850     03A4                     i1l1542:
  4851     03A4  0874               	movf	___fldiv@b,w
  4852     03A5  00F8               	movwf	??___fldiv
  4853     03A6  0875               	movf	___fldiv@b+1,w
  4854     03A7  00F9               	movwf	??___fldiv+1
  4855     03A8  0876               	movf	___fldiv@b+2,w
  4856     03A9  00FA               	movwf	??___fldiv+2
  4857     03AA  0877               	movf	___fldiv@b+3,w
  4858     03AB  00FB               	movwf	??___fldiv+3
  4859     03AC  3001               	movlw	1
  4860     03AD  00FC               	movwf	??___fldiv+4
  4861     03AE                     u108_25:
  4862     03AE  37FB               	asrf	??___fldiv+3,f
  4863     03AF  0CFA               	rrf	??___fldiv+2,f
  4864     03B0  0CF9               	rrf	??___fldiv+1,f
  4865     03B1  0CF8               	rrf	??___fldiv,f
  4866     03B2                     u108_20:
  4867     03B2  0BFC               	decfsz	??___fldiv+4,f
  4868     03B3  2BAE               	goto	u108_25
  4869     03B4  087B               	movf	??___fldiv+3,w
  4870     03B5  00F7               	movwf	___fldiv@b+3
  4871     03B6  087A               	movf	??___fldiv+2,w
  4872     03B7  00F6               	movwf	___fldiv@b+2
  4873     03B8  0879               	movf	??___fldiv+1,w
  4874     03B9  00F5               	movwf	___fldiv@b+1
  4875     03BA  0878               	movf	??___fldiv,w
  4876     03BB  00F4               	movwf	___fldiv@b
  4877     03BC                     i1l1544:
  4878     03BC  3001               	movlw	1
  4879     03BD  07A5               	addwf	___fldiv@new_exp,f
  4880     03BE  3000               	movlw	0
  4881     03BF  3DA6               	addwfc	___fldiv@new_exp+1,f
  4882     03C0                     i1l1546:
  4883     03C0  0826               	movf	___fldiv@new_exp+1,w
  4884     03C1  3A80               	xorlw	128
  4885     03C2  00F8               	movwf	??___fldiv
  4886     03C3  3080               	movlw	128
  4887     03C4  0278               	subwf	??___fldiv,w
  4888     03C5  1D03               	skipz
  4889     03C6  2BC9               	goto	u109_25
  4890     03C7  30FF               	movlw	255
  4891     03C8  0225               	subwf	___fldiv@new_exp,w
  4892     03C9                     u109_25:
  4893     03C9  1C03               	skipc
  4894     03CA  2BCC               	goto	u109_21
  4895     03CB  2BCD               	goto	u109_20
  4896     03CC                     u109_21:
  4897     03CC  2BDA               	goto	i1l802
  4898     03CD                     u109_20:
  4899     03CD                     i1l1548:
  4900     03CD  30FF               	movlw	255
  4901     03CE  0020               	movlb	0	; select bank0
  4902     03CF  00A5               	movwf	___fldiv@new_exp
  4903     03D0  3000               	movlw	0
  4904     03D1  00A6               	movwf	___fldiv@new_exp+1
  4905     03D2  3000               	movlw	0
  4906     03D3  00F7               	movwf	___fldiv@b+3
  4907     03D4  3000               	movlw	0
  4908     03D5  00F6               	movwf	___fldiv@b+2
  4909     03D6  3000               	movlw	0
  4910     03D7  00F5               	movwf	___fldiv@b+1
  4911     03D8  3000               	movlw	0
  4912     03D9  00F4               	movwf	___fldiv@b
  4913     03DA                     i1l802:
  4914     03DA  0020               	movlb	0	; select bank0
  4915     03DB  0826               	movf	___fldiv@new_exp+1,w
  4916     03DC  3A80               	xorlw	128
  4917     03DD  00F8               	movwf	??___fldiv
  4918     03DE  3080               	movlw	128
  4919     03DF  0278               	subwf	??___fldiv,w
  4920     03E0  1D03               	skipz
  4921     03E1  2BE4               	goto	u110_25
  4922     03E2  3001               	movlw	1
  4923     03E3  0225               	subwf	___fldiv@new_exp,w
  4924     03E4                     u110_25:
  4925     03E4  1803               	skipnc
  4926     03E5  2BE7               	goto	u110_21
  4927     03E6  2BE8               	goto	u110_20
  4928     03E7                     u110_21:
  4929     03E7  2BF4               	goto	i1l803
  4930     03E8                     u110_20:
  4931     03E8                     i1l1550:
  4932     03E8  0020               	movlb	0	; select bank0
  4933     03E9  01A5               	clrf	___fldiv@new_exp
  4934     03EA  01A6               	clrf	___fldiv@new_exp+1
  4935     03EB                     i1l1552:
  4936     03EB  3000               	movlw	0
  4937     03EC  00F7               	movwf	___fldiv@b+3
  4938     03ED  3000               	movlw	0
  4939     03EE  00F6               	movwf	___fldiv@b+2
  4940     03EF  3000               	movlw	0
  4941     03F0  00F5               	movwf	___fldiv@b+1
  4942     03F1  3000               	movlw	0
  4943     03F2  00F4               	movwf	___fldiv@b
  4944     03F3                     i1l1554:
  4945     03F3  01A4               	clrf	___fldiv@sign
  4946     03F4                     i1l803:
  4947     03F4  0020               	movlb	0	; select bank0
  4948     03F5  0825               	movf	___fldiv@new_exp,w
  4949     03F6  00AB               	movwf	___fldiv@bexp
  4950     03F7                     i1l1556:
  4951     03F7  1C2B               	btfss	___fldiv@bexp,0
  4952     03F8  2BFA               	goto	u111_21
  4953     03F9  2BFB               	goto	u111_20
  4954     03FA                     u111_21:
  4955     03FA  2BFD               	goto	i1l1560
  4956     03FB                     u111_20:
  4957     03FB                     i1l1558:
  4958     03FB  17F6               	bsf	___fldiv@b+2,7
  4959     03FC  2C01               	goto	i1l805
  4960     03FD                     i1l1560:
  4961     03FD  307F               	movlw	127
  4962     03FE  00F8               	movwf	??___fldiv
  4963     03FF  0878               	movf	??___fldiv,w
  4964     0400  05F6               	andwf	___fldiv@b+2,f
  4965     0401                     i1l805:
  4966     0401  362B               	lsrf	___fldiv@bexp,w
  4967     0402  00F7               	movwf	___fldiv@b+3
  4968     0403  0824               	movf	___fldiv@sign,w
  4969     0404  00F8               	movwf	??___fldiv
  4970     0405  0878               	movf	??___fldiv,w
  4971     0406  04F7               	iorwf	___fldiv@b+3,f
  4972     0407  2AC8               	goto	i1l1470
  4973     0408                     i1l783:
  4974     0408  0008               	return
  4975     0409                     __end_of___fldiv:
  4976     007E                     btemp	set	126	;btemp
  4977     007E                     int$flags	set	126
  4978     007E                     wtemp0	set	126
  4979                           
  4980                           	psect	config
  4981                           
  4982                           ;Config register CONFIG1 @ 0x8007
  4983                           ;	Oscillator Selection
  4984                           ;	FOSC = INTOSC, INTOSC oscillator: I/O function on CLKIN pin
  4985                           ;	Watchdog Timer Enable
  4986                           ;	WDTE = OFF, WDT disabled
  4987                           ;	Power-up Timer Enable
  4988                           ;	PWRTE = OFF, PWRT disabled
  4989                           ;	MCLR Pin Function Select
  4990                           ;	MCLRE = ON, MCLR/VPP pin function is MCLR
  4991                           ;	Flash Program Memory Code Protection
  4992                           ;	CP = OFF, Program memory code protection is disabled
  4993                           ;	Data Memory Code Protection
  4994                           ;	CPD = OFF, Data memory code protection is disabled
  4995                           ;	Brown-out Reset Enable
  4996                           ;	BOREN = ON, Brown-out Reset enabled
  4997                           ;	Clock Out Enable
  4998                           ;	CLKOUTEN = OFF, CLKOUT function is disabled. I/O or oscillator function on the CLKOUT 
      +                          pin
  4999                           ;	Internal/External Switchover
  5000                           ;	IESO = ON, Internal/External Switchover mode is enabled
  5001                           ;	Fail-Safe Clock Monitor Enable
  5002                           ;	FCMEN = ON, Fail-Safe Clock Monitor is enabled
  5003     8007                     	org	32775
  5004     8007  3FE4               	dw	16356
  5005                           
  5006                           ;Config register CONFIG2 @ 0x8008
  5007                           ;	Flash Memory Self-Write Protection
  5008                           ;	WRT = OFF, Write protection off
  5009                           ;	PLL Enable
  5010                           ;	PLLEN = OFF, 4x PLL disabled
  5011                           ;	Stack Overflow/Underflow Reset Enable
  5012                           ;	STVREN = ON, Stack Overflow or Underflow will cause a Reset
  5013                           ;	Brown-out Reset Voltage Selection
  5014                           ;	BORV = LO, Brown-out Reset Voltage (Vbor), low trip point selected.
  5015                           ;	In-Circuit Debugger Mode
  5016                           ;	DEBUG = 0x1, unprogrammed default
  5017                           ;	Low-Voltage Programming Enable
  5018                           ;	LVP = ON, Low-voltage programming enabled
  5019     8008                     	org	32776
  5020     8008  3EFF               	dw	16127

Data Sizes:
    Strings     0
    Constant    0
    Data        0
    BSS         4
    Persistent  42
    Stack       0

Auto Spaces:
    Space          Size  Autos    Used
    COMMON           14     14      14
    BANK0            80     34      48
    BANK1            80      0       0
    BANK2            80      0       0
    BANK3            80      0       0
    BANK4            48      0       0

Pointer List with Targets:

    ADC_InterruptHandler	PTR FTN()void  size(2) Largest target is 1
		 -> NULL(), 


Critical Paths under _main in COMMON

    None.

Critical Paths under _INTERRUPT_InterruptManager in COMMON

    _ECCP1_CallBack->___xxtofl
    ___flmul->___xxtofl

Critical Paths under _main in BANK0

    _main->_ADC_GetConversion
    _main->_EPWM2_LoadDutyValue

Critical Paths under _INTERRUPT_InterruptManager in BANK0

    _INTERRUPT_InterruptManager->_ECCP1_CaptureISR
    _ECCP1_CaptureISR->_ECCP1_CallBack
    _ECCP1_CallBack->___flmul

Critical Paths under _main in BANK1

    None.

Critical Paths under _INTERRUPT_InterruptManager in BANK1

    None.

Critical Paths under _main in BANK2

    None.

Critical Paths under _INTERRUPT_InterruptManager in BANK2

    None.

Critical Paths under _main in BANK3

    None.

Critical Paths under _INTERRUPT_InterruptManager in BANK3

    None.

Critical Paths under _main in BANK4

    None.

Critical Paths under _INTERRUPT_InterruptManager in BANK4

    None.

Call Graph Tables:

 ---------------------------------------------------------------------------------
 (Depth) Function   	        Calls       Base Space   Used Autos Params    Refs
 ---------------------------------------------------------------------------------
 (0) _main                                                 0     0      0     142
                  _ADC_GetConversion
                _EPWM2_LoadDutyValue
                  _SYSTEM_Initialize
 ---------------------------------------------------------------------------------
 (1) _SYSTEM_Initialize                                    0     0      0       0
                     _ADC_Initialize
                   _ECCP1_Initialize
                   _EPWM2_Initialize
                     _FVR_Initialize
              _OSCILLATOR_Initialize
             _PIN_MANAGER_Initialize
                    _TMR1_Initialize
                    _TMR2_Initialize
                     _WDT_Initialize
 ---------------------------------------------------------------------------------
 (2) _WDT_Initialize                                       0     0      0       0
 ---------------------------------------------------------------------------------
 (2) _TMR2_Initialize                                      0     0      0       0
 ---------------------------------------------------------------------------------
 (2) _TMR1_Initialize                                      0     0      0       0
 ---------------------------------------------------------------------------------
 (2) _PIN_MANAGER_Initialize                               0     0      0       0
 ---------------------------------------------------------------------------------
 (2) _OSCILLATOR_Initialize                                0     0      0       0
 ---------------------------------------------------------------------------------
 (2) _FVR_Initialize                                       0     0      0       0
 ---------------------------------------------------------------------------------
 (2) _EPWM2_Initialize                                     0     0      0       0
 ---------------------------------------------------------------------------------
 (2) _ECCP1_Initialize                                     0     0      0       0
 ---------------------------------------------------------------------------------
 (2) _ADC_Initialize                                       0     0      0       0
 ---------------------------------------------------------------------------------
 (1) _EPWM2_LoadDutyValue                                  4     2      2     120
                                             30 BANK0      4     2      2
 ---------------------------------------------------------------------------------
 (1) _ADC_GetConversion                                    4     2      2      22
                                             30 BANK0      4     2      2
 ---------------------------------------------------------------------------------
 Estimated maximum stack depth 2
 ---------------------------------------------------------------------------------
 (Depth) Function   	        Calls       Base Space   Used Autos Params    Refs
 ---------------------------------------------------------------------------------
 (3) _INTERRUPT_InterruptManager                           0     0      0    4233
                   _ECCP1_CaptureISR
 ---------------------------------------------------------------------------------
 (4) _ECCP1_CaptureISR                                     2     2      0    4233
                                             28 BANK0      2     2      0
                     _ECCP1_CallBack
 ---------------------------------------------------------------------------------
 (5) _ECCP1_CallBack                                       2     0      2    4186
                                             26 BANK0      2     0      2
                            ___fldiv
                            ___flmul
                           ___xxtofl
 ---------------------------------------------------------------------------------
 (6) ___xxtofl                                            14    10      4     398
                                              0 COMMON    14    10      4
 ---------------------------------------------------------------------------------
 (6) ___flmul                                             26    18      8    2417
                                              0 BANK0     26    18      8
                          __Umul8_16
                           ___xxtofl (ARG)
 ---------------------------------------------------------------------------------
 (7) __Umul8_16                                            9     7      2     799
                                              0 COMMON     9     7      2
 ---------------------------------------------------------------------------------
 (6) ___fldiv                                             26    18      8    1273
                                              0 COMMON    13     5      8
                                              0 BANK0     13    13      0
 ---------------------------------------------------------------------------------
 Estimated maximum stack depth 7
 ---------------------------------------------------------------------------------

 Call Graph Graphs:

 _main (ROOT)
   _ADC_GetConversion
   _EPWM2_LoadDutyValue
   _SYSTEM_Initialize
     _ADC_Initialize
     _ECCP1_Initialize
     _EPWM2_Initialize
     _FVR_Initialize
     _OSCILLATOR_Initialize
     _PIN_MANAGER_Initialize
     _TMR1_Initialize
     _TMR2_Initialize
     _WDT_Initialize

 _INTERRUPT_InterruptManager (ROOT)
   _ECCP1_CaptureISR
     _ECCP1_CallBack
       ___fldiv
       ___flmul
         __Umul8_16
         ___xxtofl (ARG)
       ___xxtofl

 Address spaces:
Name               Size   Autos  Total    Cost      Usage
BIGRAM             170      0       0       0        0.0%
EEDATA             100      0       0       0        0.0%
NULL                 0      0       0       0        0.0%
CODE                 0      0       0       0        0.0%
BITCOMMON            E      0       0       1        0.0%
BITSFR0              0      0       0       1        0.0%
SFR0                 0      0       0       1        0.0%
COMMON               E      E       E       2      100.0%
BITSFR1              0      0       0       2        0.0%
SFR1                 0      0       0       2        0.0%
BITSFR2              0      0       0       3        0.0%
SFR2                 0      0       0       3        0.0%
STACK                0      0       0       3        0.0%
BITSFR3              0      0       0       4        0.0%
SFR3                 0      0       0       4        0.0%
ABS                  0      0      3E       4        0.0%
BITBANK0            50      0       0       5        0.0%
BITSFR4              0      0       0       5        0.0%
SFR4                 0      0       0       5        0.0%
BANK0               50     22      30       6       60.0%
BITSFR5              0      0       0       6        0.0%
SFR5                 0      0       0       6        0.0%
BITBANK1            50      0       0       7        0.0%
BITSFR6              0      0       0       7        0.0%
SFR6                 0      0       0       7        0.0%
BANK1               50      0       0       8        0.0%
BITSFR7              0      0       0       8        0.0%
SFR7                 0      0       0       8        0.0%
BITBANK2            50      0       0       9        0.0%
BITSFR8              0      0       0       9        0.0%
SFR8                 0      0       0       9        0.0%
BANK2               50      0       0      10        0.0%
BITSFR9              0      0       0      10        0.0%
SFR9                 0      0       0      10        0.0%
BITBANK3            50      0       0      11        0.0%
BITSFR10             0      0       0      11        0.0%
SFR10                0      0       0      11        0.0%
BANK3               50      0       0      12        0.0%
BITSFR11             0      0       0      12        0.0%
SFR11                0      0       0      12        0.0%
BITBANK4            30      0       0      13        0.0%
BITSFR12             0      0       0      13        0.0%
SFR12                0      0       0      13        0.0%
BANK4               30      0       0      14        0.0%
BITSFR13             0      0       0      14        0.0%
SFR13                0      0       0      14        0.0%
BITSFR14             0      0       0      15        0.0%
SFR14                0      0       0      15        0.0%
DATA                 0      0      3E      15        0.0%
BITSFR15             0      0       0      16        0.0%
SFR15                0      0       0      16        0.0%
BITSFR16             0      0       0      17        0.0%
SFR16                0      0       0      17        0.0%
BITSFR17             0      0       0      18        0.0%
SFR17                0      0       0      18        0.0%
BITSFR18             0      0       0      19        0.0%
SFR18                0      0       0      19        0.0%
BITSFR19             0      0       0      20        0.0%
SFR19                0      0       0      20        0.0%
BITSFR20             0      0       0      21        0.0%
SFR20                0      0       0      21        0.0%
BITSFR21             0      0       0      22        0.0%
SFR21                0      0       0      22        0.0%
BITSFR22             0      0       0      23        0.0%
SFR22                0      0       0      23        0.0%
BITSFR23             0      0       0      24        0.0%
SFR23                0      0       0      24        0.0%
BITSFR24             0      0       0      25        0.0%
SFR24                0      0       0      25        0.0%
BITSFR25             0      0       0      26        0.0%
SFR25                0      0       0      26        0.0%
BITSFR26             0      0       0      27        0.0%
SFR26                0      0       0      27        0.0%
BITSFR27             0      0       0      28        0.0%
SFR27                0      0       0      28        0.0%
BITSFR28             0      0       0      29        0.0%
SFR28                0      0       0      29        0.0%
BITSFR29             0      0       0      30        0.0%
SFR29                0      0       0      30        0.0%
BITSFR30             0      0       0      31        0.0%
SFR30                0      0       0      31        0.0%
BITSFR31             0      0       0      32        0.0%
SFR31                0      0       0      32        0.0%


Microchip Technology PIC Macro Assembler V2.45 build 20230818022343 
Symbol Table                                                                                   Sat Nov 04 18:51:18 2023

                                 _T 0048                        ___fldiv@aexp 002C  
                      ___fldiv@bexp 002B                        ___fldiv@sign 0024  
                                l32 0600                                  l35 0604  
                                l29 057F                                  l56 05E9  
                                l69 0608                                  l89 05F9  
            __end_of_FVR_Initialize 0609                 __Umul8_16@word_mpld 0076  
                               l104 0558                                 l130 059B  
                               l107 0563                                 l127 05D3  
                               l209 05DF                                 l155 05B3  
                               l171 05F1                                 _PR2 001B  
                               _Lum 0046                     _timer1ReloadVal 004C  
                   _TMR2_Initialize 05EA                                 wreg 0009  
          __end_of_EPWM2_Initialize 05D4                        ___flmul@aexp 0032  
                      ___flmul@bexp 0033                        ___flmul@sign 002D  
                      ___flmul@temp 0038                        ___flmul@prod 0034  
                              l1800 05F2                                l1802 05F5  
                              l1810 05EE                                l1804 05F6  
                              l1820 05DD                                l1812 05EF  
                              l1750 059C                                l1814 05D4  
                              l1806 05EA                                l1840 055C  
                              l1832 0548                                l1760 05A9  
                              l1752 059F                                l1816 05D8  
                              l1808 05ED                                l1824 0564  
                              l1834 0554                                l1770 05FD  
                              l1762 05AC                                l1754 05A2  
                              l1818 05D9                                l1836 0555  
                              l1844 0580                                l1780 05E3  
                              l1772 05FE                                l1764 05AD  
                              l1756 05A4                                l1838 0556  
                              l1782 05E4                                l1790 05C9  
                              l1766 05B2                                l1758 05A7  
                              l1774 0601                                l1870 04F8  
                              l1784 05E5                                l1792 05CA  
                              l1776 0605                                l1768 05FA  
                              l1880 050F                                l1872 04FB  
                              l1786 05E7                                l1778 05E0  
                              l1794 05CC                                l1882 0510  
                              l1874 04FE                                l1796 05CE  
                              l1788 05C6                                l1884 0519  
                              l1876 0506                                l1798 05D1  
                              l1878 050E                                _LATA 010C  
                              _LATB 010D                                u1520 055C  
                              u1521 055B                                u1535 0591  
                              i1l62 04F7                                i1l59 05C5  
                              _TMR2 001A                                _WPUA 020C  
                              _WPUB 020D                                _main 04F8  
                              btemp 007E                                start 0019  
                   ___fldiv@new_exp 0025                     ?_FVR_Initialize 0070  
     __end_of_OSCILLATOR_Initialize 0601                               ?_main 0070  
                   __end_of___fldiv 0409                     __end_of___flmul 025F  
                             _T1CON 0018                               _T2CON 001C  
                             i1l252 0017                               i1l802 03DA  
                             i1l803 03F4                               i1l805 0401  
                             i1l821 025E                               i1l840 0535  
                             i1l833 0252                               i1l842 0545  
                             i1l827 01DE                               i1l781 02B0  
                             i1l783 0408                               i1l871 0464  
                             i1l865 042B                               i1l867 04B2  
                             i1l797 038E                               i1l878 047E  
                             i1l879 048A                               _TMR1H 0017  
                             _TMR1L 0016                               u80_20 0531  
                             u80_21 0530                               _TRISA 008C  
                             _TRISB 008D                               u81_25 0536  
                             u90_20 02D6                               u82_20 0541  
                             u90_21 02D5                               u82_21 0540  
                             u91_20 030E                               u83_20 0269  
                             u91_21 030D                               u83_21 0268  
                             u84_20 026F                               u84_21 026E  
                             u92_25 030F                               u85_20 0274  
                             u85_21 0273                               u93_25 0316  
                             u94_20 0320                               u86_20 0292  
                             u94_21 031F                               u86_21 0291  
                             u87_20 0298                               u87_21 0297  
                             u95_25 0322                               u96_20 033A  
                             u88_20 029D                               u96_21 0339  
                             u88_21 029C                               u96_25 0336  
                             u97_20 034D                               u89_20 02B8  
                             u97_21 034C                               u89_21 02B7  
                             u98_20 0355                               u98_21 0354  
                             u99_25 0358                               _V_RPM 0042  
                    _WDT_Initialize 0601             __end_of_TMR1_Initialize 05E0  
                             status 0003                               wtemp0 007E  
                   __initialization 001B                        __end_of_main 0523  
           __end_of_TMR2_Initialize 05F2         ?_INTERRUPT_InterruptManager 0070  
                            ??_main 0042                   ?_ECCP1_CaptureISR 0070  
            __end_of_WDT_Initialize 0605                  ??_ECCP1_CaptureISR 007E  
                            _ADCON0 009D                              _ADCON1 009E  
                            _ADRESH 009C                              _ADRESL 009B  
                            _CCPR1H 0292                              _CCPR2H 0299  
                            _CCPR1L 0291                              _CCPR2L 0298  
                            _ANSELA 018C                              _ANSELB 018D  
                            _BORCON 0116                              _T1GCON 0019  
                            u100_20 0362                              u100_21 0361  
                            u101_25 0364                              u110_20 03E8  
                            u102_20 0372                              u110_21 03E7  
                            u102_21 0371                              u110_25 03E4  
                            u111_20 03FB                              u103_20 0377  
                            u111_21 03FA                              u103_21 0376  
                            i1l1500 0328                              i1l1420 053C  
                            i1l1412 0524                              i1l1510 034D  
                            i1l1502 033A                              i1l1430 0265  
                            i1l1422 0541                              i1l1414 0526  
                            u104_20 038B                              i1l1520 0363  
                            i1l1512 0355                              i1l1504 033B  
                            i1l1440 027C                              i1l1432 0269  
                            i1l1416 052D                              i1l1600 006B  
                            u112_20 002E                              u104_21 038A  
                            u112_21 002D                              i1l1530 0377  
                            i1l1522 036A                              i1l1514 0357  
                            i1l1506 0343                              i1l1450 028E  
                            i1l1442 027D                              i1l1434 026A  
                            i1l1426 025F                              i1l1418 0531  
                            i1l1610 0086                              i1l1602 0073  
                            i1l1540 03A0                              i1l1532 038B  
                            i1l1516 035E                              i1l1524 036E  
                            i1l1508 0347                              i1l1460 02A5  
                            i1l1452 0292                              i1l1436 026F  
                            i1l1444 027F                              i1l1428 0263  
                            i1l1700 0250                              i1l1620 00DB  
                            i1l1612 0091                              i1l1604 0078  
                            u120_25 00F6                              i1l1550 03E8  
                            i1l1542 03A4                              i1l1526 0372  
                            i1l1518 0362                              i1l1470 02C8  
                            i1l1462 02A6                              i1l1454 0293  
                            i1l1446 0287                              i1l1438 0274  
                            i1l1702 0256                              i1l1630 010E  
                            i1l1622 00E8                              i1l1614 009E  
                            i1l1606 007D                              i1l1710 0413  
                            i1l1560 03FD                              i1l1552 03EB  
                            i1l1544 03BC                              u105_20 0392  
                            i1l1536 0393                              i1l1528 0373  
                            i1l1480 02DF                              i1l1456 0298  
                            i1l1464 02A8                              i1l1448 028C  
                            i1l1640 014B                              i1l1632 0119  
                            i1l1624 00F5                              i1l1616 00B6  
                            u113_20 0034                              i1l1720 043F  
                            i1l1712 0423                              u105_21 0391  
                            u113_21 0033                              i1l1554 03F3  
                            i1l1538 0398                              i1l1546 03C0  
                            i1l1490 0309                              i1l1482 02EF  
                            i1l1466 02B8                              i1l1474 02D1  
                            i1l1458 029D                              i1l1650 019B  
                            i1l1642 0156                              i1l1634 0120  
                            i1l1626 00FC                              i1l1618 00C3  
                            i1l1570 002A                              i1l1730 046B  
                            i1l1722 044A                              i1l1714 0433  
                            i1l1706 040A                              i1l1556 03F7  
                            i1l1548 03CD                              i1l1492 030E  
                            i1l1484 02F7                              i1l1476 02D6  
                            i1l1468 02C4                              i1l1660 01BA  
                            i1l1652 01A7                              i1l1644 0168  
                            i1l1636 0132                              i1l1628 0107  
                            i1l1580 0041                              i1l1572 002E  
                            i1l1740 04A0                              i1l1732 0474  
                            i1l1724 0451                              i1l1708 040F  
                            u121_25 0121                              i1l1558 03FB  
                            i1l1494 031C                              i1l1486 02FF  
                            i1l1670 01DB                              i1l1654 01AE  
                            i1l1662 01BE                              i1l1646 017D  
                            i1l1638 0139                              i1l1590 0056  
                            i1l1582 0043                              i1l1574 002F  
                            i1l1566 0024                              i1l1742 04A5  
                            i1l1734 0478                              i1l1726 0455  
                            i1l1718 043C                              i1l1822 04B3  
                            i1l1830 05BE                              u106_20 0398  
                            i1l1496 0320                              i1l1488 0307  
                            i1l1680 01F4                              u130_20 01DB  
                            i1l1664 01C2                              i1l1656 01B2  
                            i1l1648 0194                              u122_20 0173  
                            i1l1592 0057                              i1l1584 004B  
                            u114_20 0039                              i1l1576 0034  
                            i1l1568 0028                              i1l1744 04A9  
                            i1l1736 0482                              i1l1728 045D  
                            u106_21 0397                              u130_21 01DA  
                            u114_21 0038                              i1l1498 0321  
                            i1l1690 0235                              i1l1682 020C  
                            i1l1674 01E3                              i1l1666 01C3  
                            i1l1658 01B3                              i1l1594 005C  
                            i1l1586 0050                              i1l1578 0039  
                            i1l1746 04AA                              i1l1738 048C  
                            i1l1826 05B4                              i1l1692 023E  
                            i1l1676 01E8                              i1l1684 0210  
                            i1l1668 01C7                              i1l1596 0061  
                            i1l1588 0052                              i1l1828 05B6  
                            u122_25 016F                              i1l1694 0240  
                            i1l1686 021D                              i1l1678 01F0  
                            i1l1598 0069                              i1l1862 0006  
                            u107_20 03A4                              i1l1696 024B  
                            i1l1688 0227                              u131_20 01E2  
                            u123_20 018A                              u115_20 0056  
                            i1l1864 000A                              u107_21 03A3  
                            u131_21 01E1                              u115_21 0055  
                            i1l1698 024F                              i1l1866 000F  
                            i1l1868 0014                              u123_25 0186  
                            u108_20 03B2                              u132_20 01E8  
                            u116_20 005C                              u140_20 0433  
                            u132_21 01E7                              u116_21 005B  
                            u140_21 0432                              u108_25 03AE  
                            u124_25 0195                              u109_20 03CD  
                            u133_20 01F4                              u117_20 0061  
                            u109_21 03CC                              u133_21 01F3  
                            u117_21 0060                              u109_25 03C9  
                            u125_25 01A8                              u141_25 0444  
                            u134_20 0202                              u126_20 01B2  
                            u118_20 0078                              u150_20 04A5  
                            u142_20 0450                              u126_21 01B1  
                            u118_21 0077                              u150_21 04A4  
                            u142_21 044F                              u134_25 01FE  
                            u135_20 021D                              u119_20 007D  
                            u151_20 04A9                              u135_21 021C  
                            u119_21 007C                              u151_21 04A8  
                            u135_25 0219                              u127_25 01B4  
                            u143_25 045E                              u136_20 0235  
                            u128_20 01C2                              u144_20 046A  
                            u136_21 0234                              u128_21 01C1  
                            u144_21 0469                              u136_25 0231  
                            u137_20 024F                              u129_20 01C7  
                            u137_21 024E                              u129_21 01C6  
                            u145_25 046E                              u146_20 0478  
                            u138_20 040F                              u146_21 0477  
                            u138_21 040E                              u147_20 047E  
                            u139_20 0413                              u155_20 000A  
                            _FVRCON 0117                              u147_21 047D  
                            u139_21 0412                              u155_21 0009  
                            u148_20 0482                              u156_20 000F  
                            u148_21 0481                              u156_21 000E  
                            u149_20 0496                              u157_20 0014  
                            u157_21 0013                              u149_25 0492  
                            _OSCCON 0099                              _WDTCON 0097  
                  __end_of___xxtofl 04B3                        _CCPTMRS0bits 029E  
                         ??___fldiv 0078                           ??___flmul 0028  
                   ?_WDT_Initialize 0070            ADC_GetConversion@channel 0041  
               _EPWM2_LoadDutyValue 0580                   ?_ECCP1_Initialize 0070  
                  ?_TMR1_Initialize 0070                        ___xxtofl@arg 007A  
                      ___xxtofl@exp 0079                   _SYSTEM_Initialize 0564  
                      ___xxtofl@val 0070                  ??_ECCP1_Initialize 003E  
           __end_of__initialization 0020                  ?_SYSTEM_Initialize 0070  
                    __pcstackCOMMON 0070                ?_EPWM2_LoadDutyValue 003E  
               ??_SYSTEM_Initialize 003E                    ?_TMR2_Initialize 0070  
                    _OPTION_REGbits 0095                   ?_EPWM2_Initialize 0070  
         __end_of_SYSTEM_Initialize 0580                  ??_EPWM2_Initialize 003E  
                        __pbssBANK0 004C                   __end_of__Umul8_16 0546  
                  ??_FVR_Initialize 003E                          __pmaintext 04F8  
             ??_EPWM2_LoadDutyValue 0040                          __pintentry 0004  
                           _CCP1CON 0293                             _CCP2CON 029A  
                           _ECCP2AS 029C                             _APFCON0 011D  
                           _APFCON1 011E                           ?___xxtofl 0070  
                           _OSCTUNE 0098                             _PWM2CON 029B  
              _ADC_InterruptHandler 004E                      _ECCP1_CallBack 04B3  
                           ___fldiv 025F                             ___flmul 0024  
                           __ptext1 0564                             __ptext2 0601  
                           __ptext3 05EA                             __ptext4 05D4  
                           __ptext5 059C                             __ptext6 05FA  
                           __ptext7 0605                             __ptext8 05C6  
                           __ptext9 05E0                           _T1CONbits 0018  
             _OSCILLATOR_Initialize 05FA                           _T2CONbits 001C  
                        ??___xxtofl 0074            ??_PIN_MANAGER_Initialize 003E  
              end_of_initialization 0020              __end_of_ECCP1_CallBack 04F8  
       ECCP1_CallBack@capturedValue 003A                    ??_WDT_Initialize 003E  
                     ___xxtofl@sign 0078                         ___fldiv@grs 0027  
                       ___fldiv@rem 0020                         ___flmul@grs 002E  
                   ?_ECCP1_CallBack 003A                      _ADC_Initialize 05F2  
            ?_OSCILLATOR_Initialize 0070                 start_initialization 001B  
            __end_of_ADC_Initialize 05FA                           __Umul8_16 0523  
                         ___fldiv@a 0070                           ___fldiv@b 0074  
                         ___flmul@a 0024                           ___flmul@b 0020  
                         ___latbits 0001                       __pcstackBANK0 0020  
                  _ECCP1_CaptureISR 05B4         __end_of_EPWM2_LoadDutyValue 059C  
                         __pnvBANK0 0042              _PIN_MANAGER_Initialize 059C  
                          ?___fldiv 0070                            ?___flmul 0020  
                        ?__Umul8_16 0070                     ?_ADC_Initialize 0070  
      ??_INTERRUPT_InterruptManager 007E                            _PIE1bits 0091  
                          _PIR1bits 0011                    _ECCP1_Initialize 05E0  
                          _PSTR2CON 029D                   ??_TMR1_Initialize 003E  
                        _ADCON0bits 009D              ECCP1_CaptureISR@module 003C  
                  ??_ECCP1_CallBack 007E                   ??_TMR2_Initialize 003E  
                  _EPWM2_Initialize 05C6                   _ADC_GetConversion 0546  
           ??_OSCILLATOR_Initialize 003E                         ??__Umul8_16 0072  
                ?_ADC_GetConversion 003E                 ??_ADC_GetConversion 0040  
                          ___xxtofl 0409                            __ptext10 05F2  
                          __ptext11 0580                            __ptext12 0546  
                        _T1GCONbits 0019                            __ptext14 05B4  
                          __ptext15 04B3                            __ptext16 0409  
                          __ptext17 0024                            __ptext18 0523  
                          __ptext19 025F           __end_of_ADC_GetConversion 0564  
                          int$flags 007E  __end_of_INTERRUPT_InterruptManager 0019  
        _INTERRUPT_InterruptManager 0004            __end_of_ECCP1_CaptureISR 05C6  
                        _INTCONbits 000B                          _FVRCONbits 0117  
                          intlevel1 0000        EPWM2_LoadDutyValue@dutyValue 003E  
           ?_PIN_MANAGER_Initialize 0070                    ??_ADC_Initialize 003E  
                    _FVR_Initialize 0605              __Umul8_16@multiplicand 0070  
          __end_of_ECCP1_Initialize 05EA      __end_of_PIN_MANAGER_Initialize 05B4  
              __Umul8_16@multiplier 0078                     _TMR1_Initialize 05D4  
                 __Umul8_16@product 0074  
